---
triple:          'arm64-apple-darwin'
binary-path:     '/Users/juniper/Library/Audio/Plug-Ins/VST3/Phoenix.vst3/Contents/MacOS/Phoenix'
relocations:
  - { offset: 0xEA462, size: 0x8, addend: 0x0, symName: __ZN9Steinberg7IString3iidE, symObjAddr: 0x5470, symBinAddr: 0x132778, symSize: 0x0 }
  - { offset: 0xEA96C, size: 0x8, addend: 0x0, symName: __ZN9Steinberg13IStringResult3iidE, symObjAddr: 0x5488, symBinAddr: 0x132790, symSize: 0x0 }
  - { offset: 0xEA9CA, size: 0x8, addend: 0x0, symName: __ZN9SteinbergL11IString_iidE, symObjAddr: 0x4C, symBinAddr: 0x100340, symSize: 0x0 }
  - { offset: 0xEA9E4, size: 0x8, addend: 0x0, symName: __ZN9SteinbergL17IStringResult_iidE, symObjAddr: 0x5C, symBinAddr: 0x100350, symSize: 0x0 }
  - { offset: 0xEAB03, size: 0x8, addend: 0x0, symName: __ZTVN9Steinberg4FUIDE, symObjAddr: 0x80, symBinAddr: 0x11C270, symSize: 0x0 }
  - { offset: 0xEAB11, size: 0x8, addend: 0x0, symName: __ZN9Steinberg4FUIDD1Ev, symObjAddr: 0x0, symBinAddr: 0x11E0, symSize: 0x4 }
  - { offset: 0xEAB3E, size: 0x8, addend: 0x0, symName: __ZN9Steinberg4FUIDD0Ev, symObjAddr: 0x4, symBinAddr: 0x11E4, symSize: 0x4 }
  - { offset: 0xEABF1, size: 0x8, addend: 0x0, symName: __GLOBAL__sub_I_baseiids.cpp, symObjAddr: 0x8, symBinAddr: 0x11E8, symSize: 0x44 }
  - { offset: 0xEC658, size: 0x8, addend: 0x0, symName: __ZTVN5iplug10Timer_implE, symObjAddr: 0x458, symBinAddr: 0x11C2A0, symSize: 0x0 }
  - { offset: 0xECD43, size: 0x8, addend: 0x0, symName: __ZNSt3__125__throw_bad_function_callB9nqe210106Ev, symObjAddr: 0x3B4, symBinAddr: 0x15E0, symSize: 0x34 }
  - { offset: 0xEDDE2, size: 0x8, addend: 0x0, symName: __ZTVNSt3__117bad_function_callE, symObjAddr: 0x4C0, symBinAddr: 0x11C308, symSize: 0x0 }
  - { offset: 0xEDF86, size: 0x8, addend: 0x0, symName: __ZN5iplug5Timer6CreateENSt3__18functionIFvRS0_EEEj, symObjAddr: 0x0, symBinAddr: 0x122C, symSize: 0x134 }
  - { offset: 0xEE1D0, size: 0x8, addend: 0x0, symName: __ZN5iplug10Timer_implC2ENSt3__18functionIFvRNS_5TimerEEEEj, symObjAddr: 0x134, symBinAddr: 0x1360, symSize: 0x134 }
  - { offset: 0xEE5AC, size: 0x8, addend: 0x0, symName: __ZN5iplug10Timer_impl9TimerProcEP16__CFRunLoopTimerPv, symObjAddr: 0x268, symBinAddr: 0x1494, symSize: 0x20 }
  - { offset: 0xEE5F0, size: 0x8, addend: 0x0, symName: __ZN5iplug10Timer_impl9TimerProcEP16__CFRunLoopTimerPv, symObjAddr: 0x268, symBinAddr: 0x1494, symSize: 0x20 }
  - { offset: 0xEE617, size: 0x8, addend: 0x0, symName: __ZN5iplug10Timer_impl9TimerProcEP16__CFRunLoopTimerPv, symObjAddr: 0x268, symBinAddr: 0x1494, symSize: 0x20 }
  - { offset: 0xEE64D, size: 0x8, addend: 0x0, symName: ___clang_call_terminate, symObjAddr: 0x288, symBinAddr: 0x14B4, symSize: 0x10 }
  - { offset: 0xEE690, size: 0x8, addend: 0x0, symName: __ZN5iplug10Timer_implD1Ev, symObjAddr: 0x298, symBinAddr: 0x14C4, symSize: 0x74 }
  - { offset: 0xEE7DC, size: 0x8, addend: 0x0, symName: __ZN5iplug10Timer_implD0Ev, symObjAddr: 0x30C, symBinAddr: 0x1538, symSize: 0x74 }
  - { offset: 0xEE901, size: 0x8, addend: 0x0, symName: __ZN5iplug10Timer_impl4StopEv, symObjAddr: 0x380, symBinAddr: 0x15AC, symSize: 0x34 }
  - { offset: 0xEE998, size: 0x8, addend: 0x0, symName: __ZNSt3__117bad_function_callD1Ev, symObjAddr: 0x3E8, symBinAddr: 0x1614, symSize: 0x4 }
  - { offset: 0xEE9BC, size: 0x8, addend: 0x0, symName: __ZNSt3__117bad_function_callD1Ev, symObjAddr: 0x3E8, symBinAddr: 0x1614, symSize: 0x4 }
  - { offset: 0xEE9F5, size: 0x8, addend: 0x0, symName: __ZNSt3__117bad_function_callD0Ev, symObjAddr: 0x3EC, symBinAddr: 0x1618, symSize: 0x14 }
  - { offset: 0xF0CAA, size: 0x8, addend: 0x0, symName: __MergedGlobals, symObjAddr: 0xFD720, symBinAddr: 0x132BE0, symSize: 0x0 }
  - { offset: 0xF0F8A, size: 0x8, addend: 0x0, symName: __MergedGlobals, symObjAddr: 0xFD720, symBinAddr: 0x132BE0, symSize: 0x0 }
  - { offset: 0xF0FA7, size: 0x8, addend: 0x0, symName: __MergedGlobals, symObjAddr: 0xFD720, symBinAddr: 0x132BE0, symSize: 0x0 }
  - { offset: 0xF0FC4, size: 0x8, addend: 0x0, symName: __MergedGlobals, symObjAddr: 0xFD720, symBinAddr: 0x132BE0, symSize: 0x0 }
  - { offset: 0xF0FE2, size: 0x8, addend: 0x0, symName: __MergedGlobals, symObjAddr: 0xFD720, symBinAddr: 0x132BE0, symSize: 0x0 }
  - { offset: 0xF1000, size: 0x8, addend: 0x0, symName: __MergedGlobals, symObjAddr: 0xFD720, symBinAddr: 0x132BE0, symSize: 0x0 }
  - { offset: 0xF101E, size: 0x8, addend: 0x0, symName: __MergedGlobals, symObjAddr: 0xFD720, symBinAddr: 0x132BE0, symSize: 0x0 }
  - { offset: 0xF103C, size: 0x8, addend: 0x0, symName: __MergedGlobals, symObjAddr: 0xFD720, symBinAddr: 0x132BE0, symSize: 0x0 }
  - { offset: 0xF105A, size: 0x8, addend: 0x0, symName: __MergedGlobals, symObjAddr: 0xFD720, symBinAddr: 0x132BE0, symSize: 0x0 }
  - { offset: 0xF1078, size: 0x8, addend: 0x0, symName: __MergedGlobals, symObjAddr: 0xFD720, symBinAddr: 0x132BE0, symSize: 0x0 }
  - { offset: 0xF1096, size: 0x8, addend: 0x0, symName: __MergedGlobals, symObjAddr: 0xFD720, symBinAddr: 0x132BE0, symSize: 0x0 }
  - { offset: 0xF10B4, size: 0x8, addend: 0x0, symName: __MergedGlobals, symObjAddr: 0xFD720, symBinAddr: 0x132BE0, symSize: 0x0 }
  - { offset: 0xF10D2, size: 0x8, addend: 0x0, symName: __MergedGlobals, symObjAddr: 0xFD720, symBinAddr: 0x132BE0, symSize: 0x0 }
  - { offset: 0xF10F0, size: 0x8, addend: 0x0, symName: __MergedGlobals, symObjAddr: 0xFD720, symBinAddr: 0x132BE0, symSize: 0x0 }
  - { offset: 0xF110E, size: 0x8, addend: 0x0, symName: __MergedGlobals, symObjAddr: 0xFD720, symBinAddr: 0x132BE0, symSize: 0x0 }
  - { offset: 0xF112C, size: 0x8, addend: 0x0, symName: __MergedGlobals, symObjAddr: 0xFD720, symBinAddr: 0x132BE0, symSize: 0x0 }
  - { offset: 0xF114A, size: 0x8, addend: 0x0, symName: __MergedGlobals, symObjAddr: 0xFD720, symBinAddr: 0x132BE0, symSize: 0x0 }
  - { offset: 0xF1168, size: 0x8, addend: 0x0, symName: __MergedGlobals, symObjAddr: 0xFD720, symBinAddr: 0x132BE0, symSize: 0x0 }
  - { offset: 0xF1215, size: 0x8, addend: 0x0, symName: __MergedGlobals, symObjAddr: 0xFD720, symBinAddr: 0x132BE0, symSize: 0x0 }
  - { offset: 0xF1232, size: 0x8, addend: 0x0, symName: __MergedGlobals, symObjAddr: 0xFD720, symBinAddr: 0x132BE0, symSize: 0x0 }
  - { offset: 0xF124F, size: 0x8, addend: 0x0, symName: __MergedGlobals, symObjAddr: 0xFD720, symBinAddr: 0x132BE0, symSize: 0x0 }
  - { offset: 0xF126C, size: 0x8, addend: 0x0, symName: __MergedGlobals, symObjAddr: 0xFD720, symBinAddr: 0x132BE0, symSize: 0x0 }
  - { offset: 0xF1289, size: 0x8, addend: 0x0, symName: __MergedGlobals, symObjAddr: 0xFD720, symBinAddr: 0x132BE0, symSize: 0x0 }
  - { offset: 0xF12A6, size: 0x8, addend: 0x0, symName: __MergedGlobals, symObjAddr: 0xFD720, symBinAddr: 0x132BE0, symSize: 0x0 }
  - { offset: 0xF12C3, size: 0x8, addend: 0x0, symName: __MergedGlobals, symObjAddr: 0xFD720, symBinAddr: 0x132BE0, symSize: 0x0 }
  - { offset: 0xF12E0, size: 0x8, addend: 0x0, symName: __MergedGlobals, symObjAddr: 0xFD720, symBinAddr: 0x132BE0, symSize: 0x0 }
  - { offset: 0xF1516, size: 0x8, addend: 0x0, symName: __MergedGlobals, symObjAddr: 0xFD720, symBinAddr: 0x132BE0, symSize: 0x0 }
  - { offset: 0xF1623, size: 0x8, addend: 0x0, symName: __MergedGlobals, symObjAddr: 0xFD720, symBinAddr: 0x132BE0, symSize: 0x0 }
  - { offset: 0xF1641, size: 0x8, addend: 0x0, symName: __MergedGlobals, symObjAddr: 0xFD720, symBinAddr: 0x132BE0, symSize: 0x0 }
  - { offset: 0xF165F, size: 0x8, addend: 0x0, symName: __MergedGlobals, symObjAddr: 0xFD720, symBinAddr: 0x132BE0, symSize: 0x0 }
  - { offset: 0xF8537, size: 0x8, addend: 0x0, symName: __MergedGlobals, symObjAddr: 0xFD720, symBinAddr: 0x132BE0, symSize: 0x0 }
  - { offset: 0xF8555, size: 0x8, addend: 0x0, symName: __MergedGlobals, symObjAddr: 0xFD720, symBinAddr: 0x132BE0, symSize: 0x0 }
  - { offset: 0xF8573, size: 0x8, addend: 0x0, symName: __MergedGlobals, symObjAddr: 0xFD720, symBinAddr: 0x132BE0, symSize: 0x0 }
  - { offset: 0xF8591, size: 0x8, addend: 0x0, symName: __MergedGlobals, symObjAddr: 0xFD720, symBinAddr: 0x132BE0, symSize: 0x0 }
  - { offset: 0xF85AF, size: 0x8, addend: 0x0, symName: __MergedGlobals, symObjAddr: 0xFD720, symBinAddr: 0x132BE0, symSize: 0x0 }
  - { offset: 0xF85CD, size: 0x8, addend: 0x0, symName: __MergedGlobals, symObjAddr: 0xFD720, symBinAddr: 0x132BE0, symSize: 0x0 }
  - { offset: 0xF85EB, size: 0x8, addend: 0x0, symName: __MergedGlobals, symObjAddr: 0xFD720, symBinAddr: 0x132BE0, symSize: 0x0 }
  - { offset: 0xF8609, size: 0x8, addend: 0x0, symName: __MergedGlobals, symObjAddr: 0xFD720, symBinAddr: 0x132BE0, symSize: 0x0 }
  - { offset: 0xF8627, size: 0x8, addend: 0x0, symName: __MergedGlobals, symObjAddr: 0xFD720, symBinAddr: 0x132BE0, symSize: 0x0 }
  - { offset: 0xF8645, size: 0x8, addend: 0x0, symName: __MergedGlobals, symObjAddr: 0xFD720, symBinAddr: 0x132BE0, symSize: 0x0 }
  - { offset: 0xF8663, size: 0x8, addend: 0x0, symName: __MergedGlobals, symObjAddr: 0xFD720, symBinAddr: 0x132BE0, symSize: 0x0 }
  - { offset: 0xFA182, size: 0x8, addend: 0x0, symName: __ZN5iplugL17UTF16ToUTF8StringERKNSt3__112basic_stringIDsNS0_11char_traitsIDsEENS0_9allocatorIDsEEEE, symObjAddr: 0x960, symBinAddr: 0x1F88, symSize: 0x1BC }
  - { offset: 0x114ACB, size: 0x8, addend: 0x0, symName: __ZNSt3__120__throw_length_errorB9nqe210106EPKc, symObjAddr: 0x3320, symBinAddr: 0x4948, symSize: 0x50 }
  - { offset: 0x114B43, size: 0x8, addend: 0x0, symName: __ZNSt3__120__throw_out_of_rangeB9nqe210106EPKc, symObjAddr: 0x41B0, symBinAddr: 0x57C4, symSize: 0x50 }
  - { offset: 0x116179, size: 0x8, addend: 0x0, symName: __ZSt28__throw_bad_array_new_lengthB9nqe210106v, symObjAddr: 0x3394, symBinAddr: 0x49BC, symSize: 0x28 }
  - { offset: 0x11A73F, size: 0x8, addend: 0x0, symName: __ZN5iplug9igraphics17ITextEntryControl11OnMouseDownEffRKNS0_9IMouseModE, symObjAddr: 0xB1C, symBinAddr: 0x2144, symSize: 0x2CC }
  - { offset: 0x11A765, size: 0x8, addend: 0x0, symName: __MergedGlobals, symObjAddr: 0xFD720, symBinAddr: 0x132BE0, symSize: 0x0 }
  - { offset: 0x11ACB8, size: 0x8, addend: 0x0, symName: __ZTVN5iplug9igraphics17ITextEntryControlE, symObjAddr: 0x7988, symBinAddr: 0x11C330, symSize: 0x0 }
  - { offset: 0x11AE7F, size: 0x8, addend: 0x0, symName: '__ZTVNSt3__110__function6__funcIZN5iplug9igraphics17ITextEntryControlC1EvE3$_0FvPNS3_8IControlEEEE', symObjAddr: 0x7C08, symBinAddr: 0x11C5B0, symSize: 0x0 }
  - { offset: 0x11AF08, size: 0x8, addend: 0x0, symName: '__ZTVNSt3__110__function6__funcIZZN5iplug9igraphics17ITextEntryControlC1EvENK3$_0clEPNS3_8IControlEEUlS7_E_FvS7_EEE', symObjAddr: 0x7C78, symBinAddr: 0x11C620, symSize: 0x0 }
  - { offset: 0x11AF71, size: 0x8, addend: 0x0, symName: '__ZTVNSt3__110__function6__funcIZN5iplug9igraphics17ITextEntryControl11OnMouseDownEffRKNS3_9IMouseModEE3$_0FvPNS3_10IPopupMenuEEEE', symObjAddr: 0x7D08, symBinAddr: 0x11C6B0, symSize: 0x0 }
  - { offset: 0x11B4E9, size: 0x8, addend: 0x0, symName: __ZN5iplug9igraphics17ITextEntryControlC2Ev, symObjAddr: 0x0, symBinAddr: 0x162C, symSize: 0x1B8 }
  - { offset: 0x11BB8B, size: 0x8, addend: 0x0, symName: __ZNSt3__110__function12__value_funcIFvPN5iplug9igraphics8IControlEEE4swapB9nqe210106ERS7_, symObjAddr: 0x3174, symBinAddr: 0x479C, symSize: 0x198 }
  - { offset: 0x11C16A, size: 0x8, addend: 0x0, symName: __ZN5iplug9igraphics8IControlD2Ev, symObjAddr: 0x1B8, symBinAddr: 0x17E4, symSize: 0x134 }
  - { offset: 0x11CA8B, size: 0x8, addend: 0x0, symName: __ZN5iplug9igraphics17ITextEntryControl4DrawERNS0_9IGraphicsE, symObjAddr: 0x2F0, symBinAddr: 0x1918, symSize: 0x43C }
  - { offset: 0x11CF87, size: 0x8, addend: 0x0, symName: __ZN5iplug9igraphics17ITextEntryControl6LayoutEP14StbTexteditRowPS1_i, symObjAddr: 0x72C, symBinAddr: 0x1D54, symSize: 0x234 }
  - { offset: 0x11D172, size: 0x8, addend: 0x0, symName: __ZN5iplug9igraphics17ITextEntryControl18FillCharWidthCacheEv, symObjAddr: 0x2508, symBinAddr: 0x3B30, symSize: 0x108 }
  - { offset: 0x11D1B0, size: 0x8, addend: 0x0, symName: __ZN5iplug9igraphics17ITextEntryControl18FillCharWidthCacheEv, symObjAddr: 0x2508, symBinAddr: 0x3B30, symSize: 0x108 }
  - { offset: 0x11D1C6, size: 0x8, addend: 0x0, symName: __ZN5iplug9igraphics17ITextEntryControl18FillCharWidthCacheEv, symObjAddr: 0x2508, symBinAddr: 0x3B30, symSize: 0x108 }
  - { offset: 0x11D84A, size: 0x8, addend: 0x0, symName: __ZL21stb_text_locate_coordPN5iplug9igraphics17ITextEntryControlEff, symObjAddr: 0x470C, symBinAddr: 0x5D20, symSize: 0x174 }
  - { offset: 0x11DABD, size: 0x8, addend: 0x0, symName: __ZN5iplug9igraphics17ITextEntryControl10CommitEditEv, symObjAddr: 0xDE8, symBinAddr: 0x2410, symSize: 0x158 }
  - { offset: 0x11E023, size: 0x8, addend: 0x0, symName: __ZN5iplug9igraphics10IPopupMenuC2EPKcRKSt16initializer_listIS3_ENSt3__18functionIFvPS1_EEE, symObjAddr: 0x33BC, symBinAddr: 0x49E4, symSize: 0x268 }
  - { offset: 0x11E7ED, size: 0x8, addend: 0x0, symName: __ZN5iplug9igraphics10IPopupMenuD1Ev, symObjAddr: 0xF40, symBinAddr: 0x2568, symSize: 0x70 }
  - { offset: 0x11E9E4, size: 0x8, addend: 0x0, symName: __ZN11WDL_PtrListIN5iplug9igraphics10IPopupMenu4ItemEE5EmptyEbPFvPvE, symObjAddr: 0x3F58, symBinAddr: 0x5580, symSize: 0x190 }
  - { offset: 0x11EE67, size: 0x8, addend: 0x0, symName: __ZN5iplug9igraphics17ITextEntryControl11OnMouseDragEffffRKNS0_9IMouseModE, symObjAddr: 0xFB0, symBinAddr: 0x25D8, symSize: 0xDC }
  - { offset: 0x11F164, size: 0x8, addend: 0x0, symName: __ZN5iplug9igraphics17ITextEntryControl15OnMouseDblClickEffRKNS0_9IMouseModE, symObjAddr: 0x108C, symBinAddr: 0x26B4, symSize: 0x9C }
  - { offset: 0x11F2D1, size: 0x8, addend: 0x0, symName: __ZN5iplug9igraphics17ITextEntryControl9OnMouseUpEffRKNS0_9IMouseModE, symObjAddr: 0x1128, symBinAddr: 0x2750, symSize: 0xF4 }
  - { offset: 0x11F4A8, size: 0x8, addend: 0x0, symName: __ZN5iplug9igraphics17ITextEntryControl9OnKeyDownEffRKNS_9IKeyPressE, symObjAddr: 0x121C, symBinAddr: 0x2844, symSize: 0x4FC }
  - { offset: 0x11FF01, size: 0x8, addend: 0x0, symName: __ZL16stb_textedit_keyPN5iplug9igraphics17ITextEntryControlEP17STB_TexteditStatej, symObjAddr: 0x4A20, symBinAddr: 0x6034, symSize: 0x1734 }
  - { offset: 0x121A3D, size: 0x8, addend: 0x0, symName: __ZN5iplug9igraphics17ITextEntryControl13CopySelectionEv, symObjAddr: 0x1718, symBinAddr: 0x2D40, symSize: 0x17C }
  - { offset: 0x1221D2, size: 0x8, addend: 0x0, symName: __ZL18wdl_utf8_parsecharPKcPi, symObjAddr: 0x1D9C, symBinAddr: 0x33C4, symSize: 0x110 }
  - { offset: 0x122253, size: 0x8, addend: 0x0, symName: __ZN5iplug9igraphics17ITextEntryControl5PasteEv, symObjAddr: 0x1894, symBinAddr: 0x2EBC, symSize: 0x508 }
  - { offset: 0x123191, size: 0x8, addend: 0x0, symName: __ZL29stb_textedit_delete_selectionPN5iplug9igraphics17ITextEntryControlEP17STB_TexteditState, symObjAddr: 0x61AC, symBinAddr: 0x77C0, symSize: 0x4A4 }
  - { offset: 0x12384D, size: 0x8, addend: 0x0, symName: __ZNSt3__112basic_stringIDsNS_11char_traitsIDsEENS_9allocatorIDsEEE20__throw_out_of_rangeB9nqe210106Ev, symObjAddr: 0x40FC, symBinAddr: 0x5710, symSize: 0x14 }
  - { offset: 0x123C28, size: 0x8, addend: 0x0, symName: __ZN5iplug9igraphics17ITextEntryControl11InsertCharsEPS1_mPKDsm, symObjAddr: 0x2344, symBinAddr: 0x396C, symSize: 0x1C4 }
  - { offset: 0x12429D, size: 0x8, addend: 0x0, symName: __ZL19stb_text_createundoP12StbUndoStateiii, symObjAddr: 0x6B78, symBinAddr: 0x818C, symSize: 0x3A0 }
  - { offset: 0x1243CC, size: 0x8, addend: 0x0, symName: __ZN5iplug9igraphics17ITextEntryControl14OnEndAnimationEv, symObjAddr: 0x1EAC, symBinAddr: 0x34D4, symSize: 0x24 }
  - { offset: 0x124574, size: 0x8, addend: 0x0, symName: __ZN5iplug9igraphics17ITextEntryControl11DeleteCharsEPS1_mm, symObjAddr: 0x1ED0, symBinAddr: 0x34F8, symSize: 0x114 }
  - { offset: 0x124A84, size: 0x8, addend: 0x0, symName: __ZNSt3__112basic_stringIDsNS_11char_traitsIDsEENS_9allocatorIDsEEE26__erase_external_with_moveEmm, symObjAddr: 0x4110, symBinAddr: 0x5724, symSize: 0xA0 }
  - { offset: 0x124CBD, size: 0x8, addend: 0x0, symName: __ZNSt3__112basic_stringIDsNS_11char_traitsIDsEENS_9allocatorIDsEEE20__throw_out_of_rangeB9nqe210106Ev, symObjAddr: 0x40FC, symBinAddr: 0x5710, symSize: 0x14 }
  - { offset: 0x124CD5, size: 0x8, addend: 0x0, symName: __ZNSt3__112basic_stringIDsNS_11char_traitsIDsEENS_9allocatorIDsEEE26__erase_external_with_moveEmm, symObjAddr: 0x4110, symBinAddr: 0x5724, symSize: 0xA0 }
  - { offset: 0x124CE0, size: 0x8, addend: 0x0, symName: __ZN5iplug9igraphics17ITextEntryControl6SetStrEPKc, symObjAddr: 0x1FE4, symBinAddr: 0x360C, symSize: 0x360 }
  - { offset: 0x1259A0, size: 0x8, addend: 0x0, symName: __ZNSt3__112basic_stringIDsNS_11char_traitsIDsEENS_9allocatorIDsEEE21__grow_by_and_replaceEmmmmmmPKDs, symObjAddr: 0x4224, symBinAddr: 0x5838, symSize: 0x180 }
  - { offset: 0x125DA7, size: 0x8, addend: 0x0, symName: '__ZNSt3__110__function6__funcIZN5iplug9igraphics17ITextEntryControlC1EvE3$_0FvPNS3_8IControlEEED1Ev', symObjAddr: 0x43A4, symBinAddr: 0x59B8, symSize: 0x4 }
  - { offset: 0x125DEB, size: 0x8, addend: 0x0, symName: __ZN11WDL_HeapBuf6ResizeEib, symObjAddr: 0x39BC, symBinAddr: 0x4FE4, symSize: 0x1D4 }
  - { offset: 0x125EC0, size: 0x8, addend: 0x0, symName: __ZN5iplug9igraphics17ITextEntryControl16MeasureCharWidthEDsDs, symObjAddr: 0x2610, symBinAddr: 0x3C38, symSize: 0x334 }
  - { offset: 0x126E13, size: 0x8, addend: 0x0, symName: __ZN5iplug9igraphics17ITextEntryControl15CreateTextEntryEiRKNS0_5ITextERKNS0_5IRECTEiPKc, symObjAddr: 0x2944, symBinAddr: 0x3F6C, symSize: 0x128 }
  - { offset: 0x1270C9, size: 0x8, addend: 0x0, symName: __ZN5iplug9igraphics8IControl14queryInterfaceEPKcPPv, symObjAddr: 0x2A6C, symBinAddr: 0x4094, symSize: 0xE8 }
  - { offset: 0x1271D4, size: 0x8, addend: 0x0, symName: __ZN5iplug9igraphics8IControl6addRefEv, symObjAddr: 0x2B54, symBinAddr: 0x417C, symSize: 0x14 }
  - { offset: 0x1271FA, size: 0x8, addend: 0x0, symName: __ZN5iplug9igraphics8IControl6addRefEv, symObjAddr: 0x2B54, symBinAddr: 0x417C, symSize: 0x14 }
  - { offset: 0x12723F, size: 0x8, addend: 0x0, symName: __ZN5iplug9igraphics8IControl7releaseEv, symObjAddr: 0x2B68, symBinAddr: 0x4190, symSize: 0x54 }
  - { offset: 0x1272B8, size: 0x8, addend: 0x0, symName: __ZN5iplug9igraphics8IControl15executeMenuItemEi, symObjAddr: 0x2BBC, symBinAddr: 0x41E4, symSize: 0x20 }
  - { offset: 0x127358, size: 0x8, addend: 0x0, symName: __ZN5iplug9igraphics17ITextEntryControlD1Ev, symObjAddr: 0x2BDC, symBinAddr: 0x4204, symSize: 0x64 }
  - { offset: 0x127543, size: 0x8, addend: 0x0, symName: __ZN5iplug9igraphics17ITextEntryControlD0Ev, symObjAddr: 0x2C40, symBinAddr: 0x4268, symSize: 0x50 }
  - { offset: 0x127744, size: 0x8, addend: 0x0, symName: __ZN5iplug9igraphics8IControl12OnMouseWheelEffRKNS0_9IMouseModEf, symObjAddr: 0x2C90, symBinAddr: 0x42B8, symSize: 0x4 }
  - { offset: 0x1277A4, size: 0x8, addend: 0x0, symName: __ZN5iplug9igraphics8IControl7OnKeyUpEffRKNS_9IKeyPressE, symObjAddr: 0x2C94, symBinAddr: 0x42BC, symSize: 0x8 }
  - { offset: 0x1277F7, size: 0x8, addend: 0x0, symName: __ZN5iplug9igraphics8IControl16OnTouchCancelledEffRKNS0_9IMouseModE, symObjAddr: 0x2C9C, symBinAddr: 0x42C4, symSize: 0x4 }
  - { offset: 0x127848, size: 0x8, addend: 0x0, symName: __ZN5iplug9igraphics8IControl6OnDropEPKc, symObjAddr: 0x2CA0, symBinAddr: 0x42C8, symSize: 0x4 }
  - { offset: 0x1278A4, size: 0x8, addend: 0x0, symName: __ZN5iplug9igraphics8IControl14OnDropMultipleERKNSt3__16vectorIPKcNS2_9allocatorIS5_EEEE, symObjAddr: 0x2CA4, symBinAddr: 0x42CC, symSize: 0x14 }
  - { offset: 0x1278DC, size: 0x8, addend: 0x0, symName: __ZN5iplug9igraphics8IControl14OnDropMultipleERKNSt3__16vectorIPKcNS2_9allocatorIS5_EEEE, symObjAddr: 0x2CA4, symBinAddr: 0x42CC, symSize: 0x14 }
  - { offset: 0x12790A, size: 0x8, addend: 0x0, symName: __ZN5iplug9igraphics8IControl9OnRescaleEv, symObjAddr: 0x2CB8, symBinAddr: 0x42E0, symSize: 0x4 }
  - { offset: 0x12792F, size: 0x8, addend: 0x0, symName: __ZN5iplug9igraphics8IControl8OnResizeEv, symObjAddr: 0x2CBC, symBinAddr: 0x42E4, symSize: 0x4 }
  - { offset: 0x127954, size: 0x8, addend: 0x0, symName: __ZN5iplug9igraphics8IControl6OnInitEv, symObjAddr: 0x2CC0, symBinAddr: 0x42E8, symSize: 0x4 }
  - { offset: 0x127979, size: 0x8, addend: 0x0, symName: __ZN5iplug9igraphics8IControl10OnAttachedEv, symObjAddr: 0x2CC4, symBinAddr: 0x42EC, symSize: 0x4 }
  - { offset: 0x12799E, size: 0x8, addend: 0x0, symName: __ZN5iplug9igraphics8IControl17OnMsgFromDelegateEiiPKv, symObjAddr: 0x2CC8, symBinAddr: 0x42F0, symSize: 0x4 }
  - { offset: 0x1279ED, size: 0x8, addend: 0x0, symName: __ZN5iplug9igraphics8IControl6OnMidiERKNS_8IMidiMsgE, symObjAddr: 0x2CCC, symBinAddr: 0x42F4, symSize: 0x4 }
  - { offset: 0x127A20, size: 0x8, addend: 0x0, symName: __ZN5iplug9igraphics8IControl17CreateContextMenuERNS0_10IPopupMenuE, symObjAddr: 0x2CD0, symBinAddr: 0x42F8, symSize: 0x4 }
  - { offset: 0x127A53, size: 0x8, addend: 0x0, symName: __ZN5iplug9igraphics8IControl21OnDeleteFromPopupMenuEPNS0_10IPopupMenuEi, symObjAddr: 0x2CD4, symBinAddr: 0x42FC, symSize: 0x4 }
  - { offset: 0x127A94, size: 0x8, addend: 0x0, symName: __ZN5iplug9igraphics8IControl21OnTextEntryCompletionEPKci, symObjAddr: 0x2CD8, symBinAddr: 0x4300, symSize: 0x4 }
  - { offset: 0x127AD5, size: 0x8, addend: 0x0, symName: __ZN5iplug9igraphics8IControl18OnContextSelectionEi, symObjAddr: 0x2CDC, symBinAddr: 0x4304, symSize: 0x4 }
  - { offset: 0x127B1E, size: 0x8, addend: 0x0, symName: __ZNK5iplug9igraphics8IControl15GetValIdxForPosEff, symObjAddr: 0x2CE0, symBinAddr: 0x4308, symSize: 0x14 }
  - { offset: 0x127B66, size: 0x8, addend: 0x0, symName: __ZNK5iplug9igraphics8IControl15GetValIdxForPosEff, symObjAddr: 0x2CE0, symBinAddr: 0x4308, symSize: 0x14 }
  - { offset: 0x127B84, size: 0x8, addend: 0x0, symName: __ZN5iplug9igraphics8IControl7SetTextERKNS0_5ITextE, symObjAddr: 0x2CF4, symBinAddr: 0x431C, symSize: 0x24 }
  - { offset: 0x127BB8, size: 0x8, addend: 0x0, symName: __ZN5iplug9igraphics8IControl14SetIgnoreMouseEb, symObjAddr: 0x2D18, symBinAddr: 0x4340, symSize: 0x8 }
  - { offset: 0x127BEA, size: 0x8, addend: 0x0, symName: __ZNK5iplug9igraphics8IControl5IsHitEff, symObjAddr: 0x2D20, symBinAddr: 0x4348, symSize: 0x78 }
  - { offset: 0x127C61, size: 0x8, addend: 0x0, symName: __ZNK5iplug9igraphics8IControl5IsHitEff, symObjAddr: 0x2D20, symBinAddr: 0x4348, symSize: 0x78 }
  - { offset: 0x127C80, size: 0x8, addend: 0x0, symName: __ZN5iplug9igraphics8IControl8SetCleanEv, symObjAddr: 0x2D98, symBinAddr: 0x43C0, symSize: 0x8 }
  - { offset: 0x127CA5, size: 0x8, addend: 0x0, symName: __ZN5iplug9igraphics8IControl9OnGUIIdleEv, symObjAddr: 0x2DA0, symBinAddr: 0x43C8, symSize: 0x4 }
  - { offset: 0x127D3A, size: 0x8, addend: 0x0, symName: __ZNK5iplug9igraphics8IControl16GetWantsGesturesEv, symObjAddr: 0x2DA4, symBinAddr: 0x43CC, symSize: 0x20 }
  - { offset: 0x127D64, size: 0x8, addend: 0x0, symName: __ZNK5iplug9igraphics8IControl16GetWantsGesturesEv, symObjAddr: 0x2DA4, symBinAddr: 0x43CC, symSize: 0x20 }
  - { offset: 0x127D85, size: 0x8, addend: 0x0, symName: __ZNK5iplug9igraphics8IControl16GetWantsGesturesEv, symObjAddr: 0x2DA4, symBinAddr: 0x43CC, symSize: 0x20 }
  - { offset: 0x127DE9, size: 0x8, addend: 0x0, symName: __ZNK5iplug9igraphics8IControl3isAEv, symObjAddr: 0x2DC4, symBinAddr: 0x43EC, symSize: 0xC }
  - { offset: 0x127E10, size: 0x8, addend: 0x0, symName: __ZNK5iplug9igraphics8IControl3isAEPKc, symObjAddr: 0x2DD0, symBinAddr: 0x43F8, symSize: 0x10 }
  - { offset: 0x127E96, size: 0x8, addend: 0x0, symName: __ZNK5iplug9igraphics8IControl8isTypeOfEPKcb, symObjAddr: 0x2DE0, symBinAddr: 0x4408, symSize: 0x68 }
  - { offset: 0x127ED0, size: 0x8, addend: 0x0, symName: __ZNK5iplug9igraphics8IControl8isTypeOfEPKcb, symObjAddr: 0x2DE0, symBinAddr: 0x4408, symSize: 0x68 }
  - { offset: 0x127FA1, size: 0x8, addend: 0x0, symName: __ZThn8_N5iplug9igraphics8IControl14queryInterfaceEPKcPPv, symObjAddr: 0x2E48, symBinAddr: 0x4470, symSize: 0xEC }
  - { offset: 0x1280CE, size: 0x8, addend: 0x0, symName: __ZThn8_N5iplug9igraphics8IControl6addRefEv, symObjAddr: 0x2F34, symBinAddr: 0x455C, symSize: 0x14 }
  - { offset: 0x1280E9, size: 0x8, addend: 0x0, symName: __ZThn8_N5iplug9igraphics8IControl6addRefEv, symObjAddr: 0x2F34, symBinAddr: 0x455C, symSize: 0x14 }
  - { offset: 0x128107, size: 0x8, addend: 0x0, symName: __ZThn8_N5iplug9igraphics8IControl6addRefEv, symObjAddr: 0x2F34, symBinAddr: 0x455C, symSize: 0x14 }
  - { offset: 0x128161, size: 0x8, addend: 0x0, symName: __ZThn8_N5iplug9igraphics8IControl7releaseEv, symObjAddr: 0x2F48, symBinAddr: 0x4570, symSize: 0x54 }
  - { offset: 0x1281E6, size: 0x8, addend: 0x0, symName: __ZN9Steinberg7FObject6updateEPNS_8FUnknownEi, symObjAddr: 0x2F9C, symBinAddr: 0x45C4, symSize: 0x4 }
  - { offset: 0x12821F, size: 0x8, addend: 0x0, symName: __ZThn8_N5iplug9igraphics17ITextEntryControlD1Ev, symObjAddr: 0x2FA0, symBinAddr: 0x45C8, symSize: 0x6C }
  - { offset: 0x128419, size: 0x8, addend: 0x0, symName: __ZThn8_N5iplug9igraphics17ITextEntryControlD0Ev, symObjAddr: 0x300C, symBinAddr: 0x4634, symSize: 0x58 }
  - { offset: 0x12862F, size: 0x8, addend: 0x0, symName: __ZThn8_NK5iplug9igraphics8IControl3isAEv, symObjAddr: 0x3064, symBinAddr: 0x468C, symSize: 0xC }
  - { offset: 0x128669, size: 0x8, addend: 0x0, symName: __ZThn8_NK5iplug9igraphics8IControl3isAEPKc, symObjAddr: 0x3070, symBinAddr: 0x4698, symSize: 0x10 }
  - { offset: 0x128684, size: 0x8, addend: 0x0, symName: __ZThn8_NK5iplug9igraphics8IControl3isAEPKc, symObjAddr: 0x3070, symBinAddr: 0x4698, symSize: 0x10 }
  - { offset: 0x1286E4, size: 0x8, addend: 0x0, symName: __ZThn8_NK5iplug9igraphics8IControl8isTypeOfEPKcb, symObjAddr: 0x3080, symBinAddr: 0x46A8, symSize: 0x68 }
  - { offset: 0x1286FF, size: 0x8, addend: 0x0, symName: __ZThn8_NK5iplug9igraphics8IControl8isTypeOfEPKcb, symObjAddr: 0x3080, symBinAddr: 0x46A8, symSize: 0x68 }
  - { offset: 0x128731, size: 0x8, addend: 0x0, symName: __ZThn8_NK5iplug9igraphics8IControl8isTypeOfEPKcb, symObjAddr: 0x3080, symBinAddr: 0x46A8, symSize: 0x68 }
  - { offset: 0x1287BC, size: 0x8, addend: 0x0, symName: __ZN9Steinberg7FObject10updateDoneEi, symObjAddr: 0x30E8, symBinAddr: 0x4710, symSize: 0x4 }
  - { offset: 0x1287EB, size: 0x8, addend: 0x0, symName: __ZN9Steinberg7FObject15isEqualInstanceEPNS_8FUnknownE, symObjAddr: 0x30EC, symBinAddr: 0x4714, symSize: 0xC }
  - { offset: 0x1288EB, size: 0x8, addend: 0x0, symName: __ZN5iplug9igraphics11IVColorSpecC2ERKSt16initializer_listINS0_6IColorEE, symObjAddr: 0x30F8, symBinAddr: 0x4720, symSize: 0x7C }
  - { offset: 0x128A55, size: 0x8, addend: 0x0, symName: __ZNSt3__112basic_stringIcNS_11char_traitsIcEENS_9allocatorIcEEE20__throw_length_errorB9nqe210106Ev, symObjAddr: 0x330C, symBinAddr: 0x4934, symSize: 0x14 }
  - { offset: 0x128A6D, size: 0x8, addend: 0x0, symName: __ZNSt3__120__throw_length_errorB9nqe210106EPKc, symObjAddr: 0x3320, symBinAddr: 0x4948, symSize: 0x50 }
  - { offset: 0x128A78, size: 0x8, addend: 0x0, symName: __ZNSt12length_errorC1B9nqe210106EPKc, symObjAddr: 0x3370, symBinAddr: 0x4998, symSize: 0x24 }
  - { offset: 0x128D81, size: 0x8, addend: 0x0, symName: __ZN5iplug9igraphics10IPopupMenu7AddItemEPKcii, symObjAddr: 0x3624, symBinAddr: 0x4C4C, symSize: 0xBC }
  - { offset: 0x129043, size: 0x8, addend: 0x0, symName: __ZNSt3__110__function12__value_funcIFvPN5iplug9igraphics10IPopupMenuEEE4swapB9nqe210106ERS7_, symObjAddr: 0x3DC0, symBinAddr: 0x53E8, symSize: 0x198 }
  - { offset: 0x129250, size: 0x8, addend: 0x0, symName: __ZN10WDL_String7__doSetEiPKcii, symObjAddr: 0x3C14, symBinAddr: 0x523C, symSize: 0x1AC }
  - { offset: 0x129447, size: 0x8, addend: 0x0, symName: __ZN5iplug9igraphics10IPopupMenu7AddItemEPNS1_4ItemEi, symObjAddr: 0x36E0, symBinAddr: 0x4D08, symSize: 0x2DC }
  - { offset: 0x1297B8, size: 0x8, addend: 0x0, symName: __ZNSt3__110unique_ptrIN5iplug9igraphics10IPopupMenuENS_14default_deleteIS3_EEED1B9nqe210106Ev, symObjAddr: 0x3B90, symBinAddr: 0x51B8, symSize: 0x84 }
  - { offset: 0x129D4F, size: 0x8, addend: 0x0, symName: __ZNSt12out_of_rangeC1B9nqe210106EPKc, symObjAddr: 0x4200, symBinAddr: 0x5814, symSize: 0x24 }
  - { offset: 0x129DDC, size: 0x8, addend: 0x0, symName: '__ZNSt3__110__function6__funcIZN5iplug9igraphics17ITextEntryControlC1EvE3$_0FvPNS3_8IControlEEED1Ev', symObjAddr: 0x43A4, symBinAddr: 0x59B8, symSize: 0x4 }
  - { offset: 0x129E0B, size: 0x8, addend: 0x0, symName: '__ZNSt3__110__function6__funcIZN5iplug9igraphics17ITextEntryControlC1EvE3$_0FvPNS3_8IControlEEED0Ev', symObjAddr: 0x43A8, symBinAddr: 0x59BC, symSize: 0x4 }
  - { offset: 0x129E36, size: 0x8, addend: 0x0, symName: '__ZNKSt3__110__function6__funcIZN5iplug9igraphics17ITextEntryControlC1EvE3$_0FvPNS3_8IControlEEE7__cloneEv', symObjAddr: 0x43AC, symBinAddr: 0x59C0, symSize: 0x34 }
  - { offset: 0x129E99, size: 0x8, addend: 0x0, symName: '__ZNKSt3__110__function6__funcIZN5iplug9igraphics17ITextEntryControlC1EvE3$_0FvPNS3_8IControlEEE7__cloneEPNS0_6__baseIS8_EE', symObjAddr: 0x43E0, symBinAddr: 0x59F4, symSize: 0x14 }
  - { offset: 0x129EFE, size: 0x8, addend: 0x0, symName: '__ZNSt3__110__function6__funcIZN5iplug9igraphics17ITextEntryControlC1EvE3$_0FvPNS3_8IControlEEE7destroyEv', symObjAddr: 0x43F4, symBinAddr: 0x5A08, symSize: 0x4 }
  - { offset: 0x129F21, size: 0x8, addend: 0x0, symName: '__ZNSt3__110__function6__funcIZN5iplug9igraphics17ITextEntryControlC1EvE3$_0FvPNS3_8IControlEEE18destroy_deallocateEv', symObjAddr: 0x43F8, symBinAddr: 0x5A0C, symSize: 0x14 }
  - { offset: 0x12A185, size: 0x8, addend: 0x0, symName: '__ZNSt3__110__function6__funcIZN5iplug9igraphics17ITextEntryControlC1EvE3$_0FvPNS3_8IControlEEEclEOS7_', symObjAddr: 0x440C, symBinAddr: 0x5A20, symSize: 0x108 }
  - { offset: 0x12A68D, size: 0x8, addend: 0x0, symName: '__ZNKSt3__110__function6__funcIZN5iplug9igraphics17ITextEntryControlC1EvE3$_0FvPNS3_8IControlEEE6targetERKSt9type_info', symObjAddr: 0x4514, symBinAddr: 0x5B28, symSize: 0x60 }
  - { offset: 0x12A749, size: 0x8, addend: 0x0, symName: '__ZNKSt3__110__function6__funcIZN5iplug9igraphics17ITextEntryControlC1EvE3$_0FvPNS3_8IControlEEE11target_typeEv', symObjAddr: 0x4574, symBinAddr: 0x5B88, symSize: 0xC }
  - { offset: 0x12A76C, size: 0x8, addend: 0x0, symName: '__ZNSt3__110__function6__funcIZZN5iplug9igraphics17ITextEntryControlC1EvENK3$_0clEPNS3_8IControlEEUlS7_E_FvS7_EED1Ev', symObjAddr: 0x4580, symBinAddr: 0x5B94, symSize: 0x4 }
  - { offset: 0x12A79B, size: 0x8, addend: 0x0, symName: '__ZNSt3__110__function6__funcIZZN5iplug9igraphics17ITextEntryControlC1EvENK3$_0clEPNS3_8IControlEEUlS7_E_FvS7_EED0Ev', symObjAddr: 0x4584, symBinAddr: 0x5B98, symSize: 0x4 }
  - { offset: 0x12A7C6, size: 0x8, addend: 0x0, symName: '__ZNKSt3__110__function6__funcIZZN5iplug9igraphics17ITextEntryControlC1EvENK3$_0clEPNS3_8IControlEEUlS7_E_FvS7_EE7__cloneEv', symObjAddr: 0x4588, symBinAddr: 0x5B9C, symSize: 0x34 }
  - { offset: 0x12A829, size: 0x8, addend: 0x0, symName: '__ZNKSt3__110__function6__funcIZZN5iplug9igraphics17ITextEntryControlC1EvENK3$_0clEPNS3_8IControlEEUlS7_E_FvS7_EE7__cloneEPNS0_6__baseIS9_EE', symObjAddr: 0x45BC, symBinAddr: 0x5BD0, symSize: 0x14 }
  - { offset: 0x12A88E, size: 0x8, addend: 0x0, symName: '__ZNSt3__110__function6__funcIZZN5iplug9igraphics17ITextEntryControlC1EvENK3$_0clEPNS3_8IControlEEUlS7_E_FvS7_EE7destroyEv', symObjAddr: 0x45D0, symBinAddr: 0x5BE4, symSize: 0x4 }
  - { offset: 0x12A8B1, size: 0x8, addend: 0x0, symName: '__ZNSt3__110__function6__funcIZZN5iplug9igraphics17ITextEntryControlC1EvENK3$_0clEPNS3_8IControlEEUlS7_E_FvS7_EE18destroy_deallocateEv', symObjAddr: 0x45D4, symBinAddr: 0x5BE8, symSize: 0x14 }
  - { offset: 0x12A95B, size: 0x8, addend: 0x0, symName: '__ZNSt3__110__function6__funcIZZN5iplug9igraphics17ITextEntryControlC1EvENK3$_0clEPNS3_8IControlEEUlS7_E_FvS7_EEclEOS7_', symObjAddr: 0x45E8, symBinAddr: 0x5BFC, symSize: 0xB8 }
  - { offset: 0x12AB5D, size: 0x8, addend: 0x0, symName: '__ZNKSt3__110__function6__funcIZZN5iplug9igraphics17ITextEntryControlC1EvENK3$_0clEPNS3_8IControlEEUlS7_E_FvS7_EE6targetERKSt9type_info', symObjAddr: 0x46A0, symBinAddr: 0x5CB4, symSize: 0x60 }
  - { offset: 0x12AC19, size: 0x8, addend: 0x0, symName: '__ZNKSt3__110__function6__funcIZZN5iplug9igraphics17ITextEntryControlC1EvENK3$_0clEPNS3_8IControlEEUlS7_E_FvS7_EE11target_typeEv', symObjAddr: 0x4700, symBinAddr: 0x5D14, symSize: 0xC }
  - { offset: 0x12AC93, size: 0x8, addend: 0x0, symName: '__ZNSt3__110__function6__funcIZN5iplug9igraphics17ITextEntryControl11OnMouseDownEffRKNS3_9IMouseModEE3$_0FvPNS3_10IPopupMenuEEED1Ev', symObjAddr: 0x4880, symBinAddr: 0x5E94, symSize: 0x4 }
  - { offset: 0x12ACC2, size: 0x8, addend: 0x0, symName: '__ZNSt3__110__function6__funcIZN5iplug9igraphics17ITextEntryControl11OnMouseDownEffRKNS3_9IMouseModEE3$_0FvPNS3_10IPopupMenuEEED0Ev', symObjAddr: 0x4884, symBinAddr: 0x5E98, symSize: 0x4 }
  - { offset: 0x12AD39, size: 0x8, addend: 0x0, symName: '__ZNKSt3__110__function6__funcIZN5iplug9igraphics17ITextEntryControl11OnMouseDownEffRKNS3_9IMouseModEE3$_0FvPNS3_10IPopupMenuEEE7__cloneEv', symObjAddr: 0x4888, symBinAddr: 0x5E9C, symSize: 0x34 }
  - { offset: 0x12AD9C, size: 0x8, addend: 0x0, symName: '__ZNKSt3__110__function6__funcIZN5iplug9igraphics17ITextEntryControl11OnMouseDownEffRKNS3_9IMouseModEE3$_0FvPNS3_10IPopupMenuEEE7__cloneEPNS0_6__baseISB_EE', symObjAddr: 0x48BC, symBinAddr: 0x5ED0, symSize: 0x14 }
  - { offset: 0x12AE0B, size: 0x8, addend: 0x0, symName: '__ZNSt3__110__function6__funcIZN5iplug9igraphics17ITextEntryControl11OnMouseDownEffRKNS3_9IMouseModEE3$_0FvPNS3_10IPopupMenuEEE7destroyEv', symObjAddr: 0x48D0, symBinAddr: 0x5EE4, symSize: 0x4 }
  - { offset: 0x12AE2E, size: 0x8, addend: 0x0, symName: '__ZNSt3__110__function6__funcIZN5iplug9igraphics17ITextEntryControl11OnMouseDownEffRKNS3_9IMouseModEE3$_0FvPNS3_10IPopupMenuEEE18destroy_deallocateEv', symObjAddr: 0x48D4, symBinAddr: 0x5EE8, symSize: 0x14 }
  - { offset: 0x12AECC, size: 0x8, addend: 0x0, symName: '__ZNSt3__110__function6__funcIZN5iplug9igraphics17ITextEntryControl11OnMouseDownEffRKNS3_9IMouseModEE3$_0FvPNS3_10IPopupMenuEEEclEOSA_', symObjAddr: 0x48E8, symBinAddr: 0x5EFC, symSize: 0xCC }
  - { offset: 0x12B02A, size: 0x8, addend: 0x0, symName: '__ZNKSt3__110__function6__funcIZN5iplug9igraphics17ITextEntryControl11OnMouseDownEffRKNS3_9IMouseModEE3$_0FvPNS3_10IPopupMenuEEE6targetERKSt9type_info', symObjAddr: 0x49B4, symBinAddr: 0x5FC8, symSize: 0x60 }
  - { offset: 0x12B0E6, size: 0x8, addend: 0x0, symName: '__ZNKSt3__110__function6__funcIZN5iplug9igraphics17ITextEntryControl11OnMouseDownEffRKNS3_9IMouseModEE3$_0FvPNS3_10IPopupMenuEEE11target_typeEv', symObjAddr: 0x4A14, symBinAddr: 0x6028, symSize: 0xC }
  - { offset: 0x12B432, size: 0x8, addend: 0x0, symName: __ZL30stb_textedit_move_to_word_nextPN5iplug9igraphics17ITextEntryControlEi, symObjAddr: 0x6850, symBinAddr: 0x7E64, symSize: 0x134 }
  - { offset: 0x12B691, size: 0x8, addend: 0x0, symName: __ZL19stb_textedit_deletePN5iplug9igraphics17ITextEntryControlEP17STB_TexteditStateii, symObjAddr: 0x6AF8, symBinAddr: 0x810C, symSize: 0x80 }
  - { offset: 0x12B7A4, size: 0x8, addend: 0x0, symName: __ZL25stb_text_makeundo_replacePN5iplug9igraphics17ITextEntryControlEP17STB_TexteditStateiii, symObjAddr: 0x6154, symBinAddr: 0x7768, symSize: 0x58 }
  - { offset: 0x12B8A7, size: 0x8, addend: 0x0, symName: __ZL34stb_textedit_move_to_word_previousPN5iplug9igraphics17ITextEntryControlEi, symObjAddr: 0x6730, symBinAddr: 0x7D44, symSize: 0x120 }
  - { offset: 0x12BA77, size: 0x8, addend: 0x0, symName: __ZL18stb_textedit_clampPN5iplug9igraphics17ITextEntryControlEP17STB_TexteditState, symObjAddr: 0x66B0, symBinAddr: 0x7CC4, symSize: 0x80 }
  - { offset: 0x12BB33, size: 0x8, addend: 0x0, symName: __ZL25stb_textedit_move_to_lastPN5iplug9igraphics17ITextEntryControlEP17STB_TexteditState, symObjAddr: 0x6650, symBinAddr: 0x7C64, symSize: 0x60 }
  - { offset: 0x12BC28, size: 0x8, addend: 0x0, symName: __ZL25stb_textedit_find_charposP12StbFindStatePN5iplug9igraphics17ITextEntryControlEii, symObjAddr: 0x6984, symBinAddr: 0x7F98, symSize: 0x174 }
  - { offset: 0x12C2FC, size: 0x8, addend: 0x0, symName: __GLOBAL__sub_I_ITextEntryControl.cpp, symObjAddr: 0x760C, symBinAddr: 0x852C, symSize: 0x37C }
  - { offset: 0x130993, size: 0x8, addend: 0x0, symName: __ZTVN5iplug22IPlugVST3ProcessorBaseE, symObjAddr: 0x24E8, symBinAddr: 0x11C798, symSize: 0x0 }
  - { offset: 0x13B3BA, size: 0x8, addend: 0x0, symName: __ZN5iplug22IPlugVST3ProcessorBaseC2ENS_6ConfigERNS_12IPlugAPIBaseE, symObjAddr: 0x38, symBinAddr: 0x88A8, symSize: 0x1C8 }
  - { offset: 0x13BA3B, size: 0x8, addend: 0x0, symName: __ZN5iplug22IPlugVST3ProcessorBase13ProcessMidiInEPN9Steinberg3Vst10IEventListERNS_10IPlugQueueINS_8IMidiMsgEEES8_, symObjAddr: 0x200, symBinAddr: 0x8A70, symSize: 0x260 }
  - { offset: 0x13C1B6, size: 0x8, addend: 0x0, symName: __ZN5iplug22IPlugVST3ProcessorBase14ProcessMidiOutERNS_10IPlugQueueINS_9SysExDataEEERS2_PN9Steinberg3Vst10IEventListEi, symObjAddr: 0x460, symBinAddr: 0x8CD0, symSize: 0x4C8 }
  - { offset: 0x13CB78, size: 0x8, addend: 0x0, symName: __ZN5iplug22IPlugVST3ProcessorBase15SetupProcessingERKN9Steinberg3Vst12ProcessSetupERS3_, symObjAddr: 0x928, symBinAddr: 0x9198, symSize: 0x12C }
  - { offset: 0x13CFFD, size: 0x8, addend: 0x0, symName: __ZN5iplug22IPlugVST3ProcessorBase23ProcessParameterChangesERN9Steinberg3Vst11ProcessDataERNS_10IPlugQueueINS_8IMidiMsgEEE, symObjAddr: 0xA84, symBinAddr: 0x92C4, symSize: 0x344 }
  - { offset: 0x13D903, size: 0x8, addend: 0x0, symName: __ZN5iplug22IPlugVST3ProcessorBase12ProcessAudioERN9Steinberg3Vst11ProcessDataERNS2_12ProcessSetupERKNS2_7BusListES9_, symObjAddr: 0xDC8, symBinAddr: 0x9608, symSize: 0x13C0 }
  - { offset: 0x13ED68, size: 0x8, addend: 0x0, symName: __ZN5iplug22IPlugVST3ProcessorBase7ProcessERN9Steinberg3Vst11ProcessDataERNS2_12ProcessSetupERKNS2_7BusListES9_RNS_10IPlugQueueINS_8IMidiMsgEEESD_RNSA_INS_9SysExDataEEERSE_, symObjAddr: 0x2188, symBinAddr: 0xA9C8, symSize: 0x154 }
  - { offset: 0x13EF3B, size: 0x8, addend: 0x0, symName: __ZN5iplug22IPlugVST3ProcessorBase11SendMidiMsgERKNS_8IMidiMsgE, symObjAddr: 0x22DC, symBinAddr: 0xAB1C, symSize: 0x15C }
  - { offset: 0x13F043, size: 0x8, addend: 0x0, symName: __ZN5iplug22IPlugVST3ProcessorBaseD1Ev, symObjAddr: 0x2438, symBinAddr: 0xAC78, symSize: 0x34 }
  - { offset: 0x13F0F7, size: 0x8, addend: 0x0, symName: __ZN5iplug22IPlugVST3ProcessorBaseD0Ev, symObjAddr: 0x246C, symBinAddr: 0xACAC, symSize: 0x38 }
  - { offset: 0x13F1B1, size: 0x8, addend: 0x0, symName: __ZN5iplug14IPlugProcessor12ProcessSysExERKNS_6ISysExE, symObjAddr: 0x24A4, symBinAddr: 0xACE4, symSize: 0x4 }
  - { offset: 0x13F1E4, size: 0x8, addend: 0x0, symName: __ZN5iplug14IPlugProcessor7OnResetEv, symObjAddr: 0x24A8, symBinAddr: 0xACE8, symSize: 0x4 }
  - { offset: 0x13F209, size: 0x8, addend: 0x0, symName: __ZN5iplug14IPlugProcessor10OnActivateEb, symObjAddr: 0x24AC, symBinAddr: 0xACEC, symSize: 0x4 }
  - { offset: 0x13F241, size: 0x8, addend: 0x0, symName: __ZN5iplug14IPlugProcessor9SendSysExERKNS_6ISysExE, symObjAddr: 0x24B0, symBinAddr: 0xACF0, symSize: 0x8 }
  - { offset: 0x13F276, size: 0x8, addend: 0x0, symName: __ZN5iplug14IPlugProcessor11SetTailSizeEi, symObjAddr: 0x24B8, symBinAddr: 0xACF8, symSize: 0x8 }
  - { offset: 0x14140C, size: 0x8, addend: 0x0, symName: __ZN3nam12ParseVersionERKNSt3__112basic_stringIcNS0_11char_traitsIcEENS0_9allocatorIcEEEE, symObjAddr: 0x0, symBinAddr: 0xAD00, symSize: 0x558 }
  - { offset: 0x15B838, size: 0x8, addend: 0x0, symName: __ZNSt3__119piecewise_constructE, symObjAddr: 0x121B4, symBinAddr: 0x100CC4, symSize: 0x0 }
  - { offset: 0x15BFA3, size: 0x8, addend: 0x0, symName: __ZNSt3__124__put_character_sequenceB9nqe210106IcNS_11char_traitsIcEEEERNS_13basic_ostreamIT_T0_EES7_PKS4_m, symObjAddr: 0x6FAC, symBinAddr: 0x11C98, symSize: 0x16C }
  - { offset: 0x1602AD, size: 0x8, addend: 0x0, symName: __ZNSt3__17getlineB9nqe210106IcNS_11char_traitsIcEENS_9allocatorIcEEEERNS_13basic_istreamIT_T0_EES9_RNS_12basic_stringIS6_S7_T1_EES6_, symObjAddr: 0x558, symBinAddr: 0xB258, symSize: 0x318 }
  - { offset: 0x161CF2, size: 0x8, addend: 0x0, symName: __ZNSt3__116__throw_bad_castB9nqe210106Ev, symObjAddr: 0x45A4, symBinAddr: 0xF2A4, symSize: 0x28 }
  - { offset: 0x16257E, size: 0x8, addend: 0x0, symName: __ZNSt3__127__tree_balance_after_insertB9nqe210106IPNS_16__tree_node_baseIPvEEEEvT_S5_, symObjAddr: 0x5FDC, symBinAddr: 0x10CDC, symSize: 0x1D4 }
  - { offset: 0x163561, size: 0x8, addend: 0x0, symName: __ZNSt3__116__pad_and_outputB9nqe210106IcNS_11char_traitsIcEEEENS_19ostreambuf_iteratorIT_T0_EES6_PKS4_S8_S8_RNS_8ios_baseES4_, symObjAddr: 0x7118, symBinAddr: 0x11E04, symSize: 0x1A4 }
  - { offset: 0x1661AB, size: 0x8, addend: 0x0, symName: __ZNSt3__113__tree_removeB9nqe210106IPNS_16__tree_node_baseIPvEEEEvT_S5_, symObjAddr: 0xF5A0, symBinAddr: 0x1A250, symSize: 0x430 }
  - { offset: 0x1693F8, size: 0x8, addend: 0x0, symName: __ZTVNSt3__118basic_stringstreamIcNS_11char_traitsIcEENS_9allocatorIcEEEE, symObjAddr: 0x13370, symBinAddr: 0x11C828, symSize: 0x0 }
  - { offset: 0x16979D, size: 0x8, addend: 0x0, symName: __ZTVNSt3__115basic_stringbufIcNS_11char_traitsIcEENS_9allocatorIcEEEE, symObjAddr: 0x13568, symBinAddr: 0x11CA20, symSize: 0x0 }
  - { offset: 0x1697BC, size: 0x8, addend: 0x0, symName: __ZN3namL39LATEST_FULLY_SUPPORTED_NAM_FILE_VERSIONE, symObjAddr: 0x120C0, symBinAddr: 0x100BD0, symSize: 0x0 }
  - { offset: 0x1697D6, size: 0x8, addend: 0x0, symName: __ZN3namL35EARLIEST_SUPPORTED_NAM_FILE_VERSIONE, symObjAddr: 0x120D8, symBinAddr: 0x100BE8, symSize: 0x0 }
  - { offset: 0x169BDF, size: 0x8, addend: 0x0, symName: __ZN3nam12ParseVersionERKNSt3__112basic_stringIcNS0_11char_traitsIcEENS0_9allocatorIcEEEE, symObjAddr: 0x0, symBinAddr: 0xAD00, symSize: 0x558 }
  - { offset: 0x16AC4F, size: 0x8, addend: 0x0, symName: __ZN3nam21verify_config_versionENSt3__112basic_stringIcNS0_11char_traitsIcEENS0_9allocatorIcEEEE, symObjAddr: 0x904, symBinAddr: 0xB604, symSize: 0x484 }
  - { offset: 0x16B8E4, size: 0x8, addend: 0x0, symName: __ZN3nam7get_dspENSt3__14__fs10filesystem4pathE, symObjAddr: 0x15CC, symBinAddr: 0xC2CC, symSize: 0x130 }
  - { offset: 0x16C1F1, size: 0x8, addend: 0x0, symName: __ZN3nam7get_dspENSt3__14__fs10filesystem4pathERNS_7dspDataE, symObjAddr: 0x16FC, symBinAddr: 0xC3FC, symSize: 0x4AC }
  - { offset: 0x16D315, size: 0x8, addend: 0x0, symName: __ZN3nam7get_dspERKN8nlohmann16json_abi_v3_11_210basic_jsonINSt3__13mapENS3_6vectorENS3_12basic_stringIcNS3_11char_traitsIcEENS3_9allocatorIcEEEEbxydS9_NS1_14adl_serializerENS5_IhNS9_IhEEEEEERNS_7dspDataE, symObjAddr: 0x1CF8, symBinAddr: 0xC9F8, symSize: 0x6C8 }
  - { offset: 0x16F203, size: 0x8, addend: 0x0, symName: __ZN3nam7get_dspERNS_7dspDataE, symObjAddr: 0x23C0, symBinAddr: 0xD0C0, symSize: 0x600 }
  - { offset: 0x171038, size: 0x8, addend: 0x0, symName: __ZN3nam7get_dspERKN8nlohmann16json_abi_v3_11_210basic_jsonINSt3__13mapENS3_6vectorENS3_12basic_stringIcNS3_11char_traitsIcEENS3_9allocatorIcEEEEbxydS9_NS1_14adl_serializerENS5_IhNS9_IhEEEEEE, symObjAddr: 0x1C30, symBinAddr: 0xC930, symSize: 0xC8 }
  - { offset: 0x1716B7, size: 0x8, addend: 0x0, symName: __ZTVNSt3__114basic_ifstreamIcNS_11char_traitsIcEEEE, symObjAddr: 0x13600, symBinAddr: 0x11CAB8, symSize: 0x0 }
  - { offset: 0x171BDA, size: 0x8, addend: 0x0, symName: __ZTVNSt3__113basic_filebufIcNS_11char_traitsIcEEEE, symObjAddr: 0x136D8, symBinAddr: 0x11CB90, symSize: 0x0 }
  - { offset: 0x173797, size: 0x8, addend: 0x0, symName: __ZN8nlohmann16json_abi_v3_11_26detail9from_jsonINS0_10basic_jsonINSt3__13mapENS4_6vectorENS4_12basic_stringIcNS4_11char_traitsIcEENS4_9allocatorIcEEEEbxydSA_NS0_14adl_serializerENS6_IhNSA_IhEEEEEEEEvRKT_RNSH_8string_tE, symObjAddr: 0x45CC, symBinAddr: 0xF2CC, symSize: 0x158 }
  - { offset: 0x173A6A, size: 0x8, addend: 0x0, symName: __ZN8nlohmann16json_abi_v3_11_26detail9from_jsonINS0_10basic_jsonINSt3__13mapENS4_6vectorENS4_12basic_stringIcNS4_11char_traitsIcEENS4_9allocatorIcEEEEbxydSA_NS0_14adl_serializerENS6_IhNSA_IhEEEEEENS6_IfNSA_IfEEEELi0EEEDTcmcmcl20from_json_array_implfp_fp0_tlNS1_12priority_tagILj3EEEEEcldtfp_3getINT0_10value_typeEEEcvv_EERKT_RSL_, symObjAddr: 0x768C, symBinAddr: 0x12378, symSize: 0xD8 }
  - { offset: 0x173C13, size: 0x8, addend: 0x0, symName: __ZN8nlohmann16json_abi_v3_11_26detail20get_arithmetic_valueINS0_10basic_jsonINSt3__13mapENS4_6vectorENS4_12basic_stringIcNS4_11char_traitsIcEENS4_9allocatorIcEEEEbxydSA_NS0_14adl_serializerENS6_IhNSA_IhEEEEEEdLi0EEEvRKT_RT0_, symObjAddr: 0x61B0, symBinAddr: 0x10EB0, symSize: 0x134 }
  - { offset: 0x173DAE, size: 0x8, addend: 0x0, symName: __ZN8nlohmann16json_abi_v3_11_26detail6concatINSt3__112basic_stringIcNS3_11char_traitsIcEENS3_9allocatorIcEEEEJRA25_KcPSA_EEET_DpOT0_, symObjAddr: 0xF408, symBinAddr: 0x1A0B8, symSize: 0xE0 }
  - { offset: 0x174213, size: 0x8, addend: 0x0, symName: __ZN8nlohmann16json_abi_v3_11_26detail6concatINSt3__112basic_stringIcNS3_11char_traitsIcEENS3_9allocatorIcEEEEJRA29_KcPSA_EEET_DpOT0_, symObjAddr: 0x48F0, symBinAddr: 0xF5F0, symSize: 0xE0 }
  - { offset: 0x174678, size: 0x8, addend: 0x0, symName: __ZN8nlohmann16json_abi_v3_11_26detail6concatINSt3__112basic_stringIcNS3_11char_traitsIcEENS3_9allocatorIcEEEEJRA17_KcRKS9_cS9_RA3_SA_EEET_DpOT0_, symObjAddr: 0x4B70, symBinAddr: 0xF870, symSize: 0x178 }
  - { offset: 0x174E09, size: 0x8, addend: 0x0, symName: __ZN8nlohmann16json_abi_v3_11_26detail6concatINSt3__112basic_stringIcNS3_11char_traitsIcEENS3_9allocatorIcEEEEJS9_S9_RKS9_EEET_DpOT0_, symObjAddr: 0x4A28, symBinAddr: 0xF728, symSize: 0x148 }
  - { offset: 0x175AC8, size: 0x8, addend: 0x0, symName: __ZN8nlohmann16json_abi_v3_11_26detail6concatINSt3__112basic_stringIcNS3_11char_traitsIcEENS3_9allocatorIcEEEEJRA51_KcPSA_EEET_DpOT0_, symObjAddr: 0x5D38, symBinAddr: 0x10A38, symSize: 0xE0 }
  - { offset: 0x175F89, size: 0x8, addend: 0x0, symName: __ZN8nlohmann16json_abi_v3_11_26detail20from_json_array_implINS0_10basic_jsonINSt3__13mapENS4_6vectorENS4_12basic_stringIcNS4_11char_traitsIcEENS4_9allocatorIcEEEEbxydSA_NS0_14adl_serializerENS6_IhNSA_IhEEEEEENS6_IfNSA_IfEEEELi0EEEDTcmcmcldtfp0_7reserveclsr3stdE7declvalINT0_9size_typeEEEEcldtfp_3getINSJ_10value_typeEEEcvv_EERKT_RSJ_NS1_12priority_tagILj1EEE, symObjAddr: 0x7844, symBinAddr: 0x12530, symSize: 0x240 }
  - { offset: 0x176A5F, size: 0x8, addend: 0x0, symName: __ZN8nlohmann16json_abi_v3_11_26detail6concatINSt3__112basic_stringIcNS3_11char_traitsIcEENS3_9allocatorIcEEEEJRA28_KcPSA_EEET_DpOT0_, symObjAddr: 0x7764, symBinAddr: 0x12450, symSize: 0xE0 }
  - { offset: 0x176F20, size: 0x8, addend: 0x0, symName: __ZN8nlohmann16json_abi_v3_11_26detail9from_jsonINS0_10basic_jsonINSt3__13mapENS4_6vectorENS4_12basic_stringIcNS4_11char_traitsIcEENS4_9allocatorIcEEEEbxydSA_NS0_14adl_serializerENS6_IhNSA_IhEEEEEEfLi0EEEvRKT_RT0_, symObjAddr: 0x7A84, symBinAddr: 0x12770, symSize: 0x168 }
  - { offset: 0x178715, size: 0x8, addend: 0x0, symName: __ZN8nlohmann16json_abi_v3_11_26detail6concatINSt3__112basic_stringIcNS3_11char_traitsIcEENS3_9allocatorIcEEEEJRA12_KcPSA_EEET_DpOT0_, symObjAddr: 0xFBF4, symBinAddr: 0x1A8A4, symSize: 0xE0 }
  - { offset: 0x17AC48, size: 0x8, addend: 0x0, symName: __ZTVN8nlohmann16json_abi_v3_11_26detail10type_errorE, symObjAddr: 0x13820, symBinAddr: 0x11CCD8, symSize: 0x0 }
  - { offset: 0x17AC99, size: 0x8, addend: 0x0, symName: __ZTVN8nlohmann16json_abi_v3_11_26detail9exceptionE, symObjAddr: 0x13848, symBinAddr: 0x11CD00, symSize: 0x0 }
  - { offset: 0x17BD5B, size: 0x8, addend: 0x0, symName: __ZTVN8nlohmann16json_abi_v3_11_26detail16invalid_iteratorE, symObjAddr: 0x13888, symBinAddr: 0x11CD40, symSize: 0x0 }
  - { offset: 0x17BD76, size: 0x8, addend: 0x0, symName: __ZTVN8nlohmann16json_abi_v3_11_26detail12out_of_rangeE, symObjAddr: 0x13788, symBinAddr: 0x11CC40, symSize: 0x0 }
  - { offset: 0x17BDA3, size: 0x8, addend: 0x0, symName: __ZTVN8nlohmann16json_abi_v3_11_26detail11parse_errorE, symObjAddr: 0x137C8, symBinAddr: 0x11CC80, symSize: 0x0 }
  - { offset: 0x17C7F9, size: 0x8, addend: 0x0, symName: __ZNSt3__112basic_stringIcNS_11char_traitsIcEENS_9allocatorIcEEE17__assign_no_aliasILb1EEERS5_PKcm, symObjAddr: 0x554C, symBinAddr: 0x1024C, symSize: 0xBC }
  - { offset: 0x17CAC0, size: 0x8, addend: 0x0, symName: __ZNSt3__115basic_stringbufIcNS_11char_traitsIcEENS_9allocatorIcEEE15__init_buf_ptrsB9nqe210106Ev, symObjAddr: 0x6BF4, symBinAddr: 0x118E0, symSize: 0x144 }
  - { offset: 0x17CE09, size: 0x8, addend: 0x0, symName: __ZNSt3__118basic_stringstreamIcNS_11char_traitsIcEENS_9allocatorIcEEED1Ev, symObjAddr: 0x870, symBinAddr: 0xB570, symSize: 0x94 }
  - { offset: 0x17D25E, size: 0x8, addend: 0x0, symName: __ZNSt3__112basic_stringIcNS_11char_traitsIcEENS_9allocatorIcEEE6appendB9nqe210106IPKcLi0EEERS5_T_SA_, symObjAddr: 0x6D38, symBinAddr: 0x11A24, symSize: 0x274 }
  - { offset: 0x17DE09, size: 0x8, addend: 0x0, symName: __ZNK3nam7Version8toStringEv, symObjAddr: 0xEBC, symBinAddr: 0xBBBC, symSize: 0x4A4 }
  - { offset: 0x17F6CC, size: 0x8, addend: 0x0, symName: __ZNSt3__118basic_stringstreamIcNS_11char_traitsIcEENS_9allocatorIcEEEC1B9nqe210106Ev, symObjAddr: 0xD88, symBinAddr: 0xBA88, symSize: 0x134 }
  - { offset: 0x17F8DE, size: 0x8, addend: 0x0, symName: __ZNKRSt3__118basic_stringstreamIcNS_11char_traitsIcEENS_9allocatorIcEEE3strB9nqe210106Ev, symObjAddr: 0x1360, symBinAddr: 0xC060, symSize: 0xF4 }
  - { offset: 0x1801DD, size: 0x8, addend: 0x0, symName: __ZNK8nlohmann16json_abi_v3_11_26detail9iter_implIKNS0_10basic_jsonINSt3__13mapENS4_6vectorENS4_12basic_stringIcNS4_11char_traitsIcEENS4_9allocatorIcEEEEbxydSA_NS0_14adl_serializerENS6_IhNSA_IhEEEEEEEdeEv, symObjAddr: 0x1454, symBinAddr: 0xC154, symSize: 0x178 }
  - { offset: 0x18042C, size: 0x8, addend: 0x0, symName: __ZNSt3__112basic_stringIcNS_11char_traitsIcEENS_9allocatorIcEEEC1B9nqe210106ILi0EEEPKc, symObjAddr: 0x2D94, symBinAddr: 0xDA94, symSize: 0xA8 }
  - { offset: 0x18069E, size: 0x8, addend: 0x0, symName: __ZN8nlohmann16json_abi_v3_11_26detail16invalid_iterator6createIPKNS0_10basic_jsonINSt3__13mapENS5_6vectorENS5_12basic_stringIcNS5_11char_traitsIcEENS5_9allocatorIcEEEEbxydSB_NS0_14adl_serializerENS7_IhNSB_IhEEEEEELi0EEES2_iRKSD_T_, symObjAddr: 0x74C8, symBinAddr: 0x121B4, symSize: 0x1C4 }
  - { offset: 0x181669, size: 0x8, addend: 0x0, symName: __ZNSt3__112basic_stringIcNS_11char_traitsIcEENS_9allocatorIcEEE25__init_copy_ctor_externalEPKcm, symObjAddr: 0x53B0, symBinAddr: 0x100B0, symSize: 0x8C }
  - { offset: 0x181826, size: 0x8, addend: 0x0, symName: __ZN8nlohmann16json_abi_v3_11_210basic_jsonINSt3__13mapENS2_6vectorENS2_12basic_stringIcNS2_11char_traitsIcEENS2_9allocatorIcEEEEbxydS8_NS0_14adl_serializerENS4_IhNS8_IhEEEEE10json_value7destroyENS0_6detail7value_tE, symObjAddr: 0x62E4, symBinAddr: 0x10FE4, symSize: 0x560 }
  - { offset: 0x182FF2, size: 0x8, addend: 0x0, symName: __ZN3nam7dspDataD1Ev, symObjAddr: 0x1BA8, symBinAddr: 0xC8A8, symSize: 0x88 }
  - { offset: 0x183B9C, size: 0x8, addend: 0x0, symName: __ZNSt3__113basic_filebufIcNS_11char_traitsIcEEEC2Ev, symObjAddr: 0x7F28, symBinAddr: 0x12C14, symSize: 0x168 }
  - { offset: 0x183CDB, size: 0x8, addend: 0x0, symName: __ZN8nlohmann16json_abi_v3_11_26detail5lexerINS0_10basic_jsonINSt3__13mapENS4_6vectorENS4_12basic_stringIcNS4_11char_traitsIcEENS4_9allocatorIcEEEEbxydSA_NS0_14adl_serializerENS6_IhNSA_IhEEEEEENS1_20input_stream_adapterEE4scanEv, symObjAddr: 0xB6FC, symBinAddr: 0x163E8, symSize: 0x1640 }
  - { offset: 0x187130, size: 0x8, addend: 0x0, symName: __ZN8nlohmann16json_abi_v3_11_26detail6parserINS0_10basic_jsonINSt3__13mapENS4_6vectorENS4_12basic_stringIcNS4_11char_traitsIcEENS4_9allocatorIcEEEEbxydSA_NS0_14adl_serializerENS6_IhNSA_IhEEEEEENS1_20input_stream_adapterEE5parseEbRSG_, symObjAddr: 0x8090, symBinAddr: 0x12D7C, symSize: 0x3534 }
  - { offset: 0x192C0D, size: 0x8, addend: 0x0, symName: __ZN3nam7dspDataC2ERKS0_, symObjAddr: 0x35EC, symBinAddr: 0xE2EC, symSize: 0x16C }
  - { offset: 0x19333B, size: 0x8, addend: 0x0, symName: __ZNSt3__113basic_filebufIcNS_11char_traitsIcEEED2Ev, symObjAddr: 0x388C, symBinAddr: 0xE58C, symSize: 0xDC }
  - { offset: 0x193455, size: 0x8, addend: 0x0, symName: __ZN8nlohmann16json_abi_v3_11_210basic_jsonINSt3__13mapENS2_6vectorENS2_12basic_stringIcNS2_11char_traitsIcEENS2_9allocatorIcEEEEbxydS8_NS0_14adl_serializerENS4_IhNS8_IhEEEEED1Ev, symObjAddr: 0x29C0, symBinAddr: 0xD6C0, symSize: 0x2C }
  - { offset: 0x19349F, size: 0x8, addend: 0x0, symName: __ZNSt3__114basic_ifstreamIcNS_11char_traitsIcEEED1Ev, symObjAddr: 0x29EC, symBinAddr: 0xD6EC, symSize: 0x5C }
  - { offset: 0x19350D, size: 0x8, addend: 0x0, symName: __ZN8nlohmann16json_abi_v3_11_26detail6parserINS0_10basic_jsonINSt3__13mapENS4_6vectorENS4_12basic_stringIcNS4_11char_traitsIcEENS4_9allocatorIcEEEEbxydSA_NS0_14adl_serializerENS6_IhNSA_IhEEEEEENS1_20input_stream_adapterEED1Ev, symObjAddr: 0xB5C4, symBinAddr: 0x162B0, symSize: 0x8C }
  - { offset: 0x1938B4, size: 0x8, addend: 0x0, symName: __ZN8nlohmann16json_abi_v3_11_26detail5lexerINS0_10basic_jsonINSt3__13mapENS4_6vectorENS4_12basic_stringIcNS4_11char_traitsIcEENS4_9allocatorIcEEEEbxydSA_NS0_14adl_serializerENS6_IhNSA_IhEEEEEENS1_20input_stream_adapterEED1Ev, symObjAddr: 0xB698, symBinAddr: 0x16384, symSize: 0x64 }
  - { offset: 0x193B9C, size: 0x8, addend: 0x0, symName: __ZN8nlohmann16json_abi_v3_11_26detail20input_stream_adapterD1Ev, symObjAddr: 0xB650, symBinAddr: 0x1633C, symSize: 0x48 }
  - { offset: 0x1944FE, size: 0x8, addend: 0x0, symName: __ZNK8nlohmann16json_abi_v3_11_210basic_jsonINSt3__13mapENS2_6vectorENS2_12basic_stringIcNS2_11char_traitsIcEENS2_9allocatorIcEEEEbxydS8_NS0_14adl_serializerENS4_IhNS8_IhEEEEEixIKcEERKSE_PT_, symObjAddr: 0x2A48, symBinAddr: 0xD748, symSize: 0x108 }
  - { offset: 0x1949B3, size: 0x8, addend: 0x0, symName: __ZN8nlohmann16json_abi_v3_11_210basic_jsonINSt3__13mapENS2_6vectorENS2_12basic_stringIcNS2_11char_traitsIcEENS2_9allocatorIcEEEEbxydS8_NS0_14adl_serializerENS4_IhNS8_IhEEEEEC2ERKSE_, symObjAddr: 0xFFB8, symBinAddr: 0x1AC68, symSize: 0x26C }
  - { offset: 0x19561E, size: 0x8, addend: 0x0, symName: __ZNSt3__16__treeINS_12__value_typeINS_12basic_stringIcNS_11char_traitsIcEENS_9allocatorIcEEEEN8nlohmann16json_abi_v3_11_210basic_jsonINS_3mapENS_6vectorES7_bxydS5_NS9_14adl_serializerENSC_IhNS5_IhEEEEEEEENS_19__map_value_compareIS7_NS_4pairIKS7_SG_EENS_4lessIvEELb1EEENS5_ISL_EEE4findIA8_cEENS_15__tree_iteratorISH_PNS_11__tree_nodeISH_PvEElEERKT_, symObjAddr: 0x72BC, symBinAddr: 0x11FA8, symSize: 0x104 }
  - { offset: 0x1959C4, size: 0x8, addend: 0x0, symName: __ZNK8nlohmann16json_abi_v3_11_26detail9iter_implIKNS0_10basic_jsonINSt3__13mapENS4_6vectorENS4_12basic_stringIcNS4_11char_traitsIcEENS4_9allocatorIcEEEEbxydSA_NS0_14adl_serializerENS6_IhNSA_IhEEEEEEEeqISI_LDn0EEEbRKT_, symObjAddr: 0x73C0, symBinAddr: 0x120AC, symSize: 0x108 }
  - { offset: 0x195E15, size: 0x8, addend: 0x0, symName: __ZNK8nlohmann16json_abi_v3_11_26detail9iter_implIKNS0_10basic_jsonINSt3__13mapENS4_6vectorENS4_12basic_stringIcNS4_11char_traitsIcEENS4_9allocatorIcEEEEbxydSA_NS0_14adl_serializerENS6_IhNSA_IhEEEEEEEptEv, symObjAddr: 0x10948, symBinAddr: 0x1B5E4, symSize: 0x100 }
  - { offset: 0x195FF8, size: 0x8, addend: 0x0, symName: __ZNSt3__16vectorIfNS_9allocatorIfEEE18__assign_with_sizeB9nqe210106IPfS5_EEvT_T0_l, symObjAddr: 0x4D88, symBinAddr: 0xFA88, symSize: 0x148 }
  - { offset: 0x196A69, size: 0x8, addend: 0x0, symName: __ZN3nam20ConfigParserRegistryD1Ev, symObjAddr: 0x4ED0, symBinAddr: 0xFBD0, symSize: 0x94 }
  - { offset: 0x196CB8, size: 0x8, addend: 0x0, symName: __ZNK8nlohmann16json_abi_v3_11_210basic_jsonINSt3__13mapENS2_6vectorENS2_12basic_stringIcNS2_11char_traitsIcEENS2_9allocatorIcEEEEbxydS8_NS0_14adl_serializerENS4_IhNS8_IhEEEEE9type_nameEv, symObjAddr: 0x49D0, symBinAddr: 0xF6D0, symSize: 0x28 }
  - { offset: 0x196CDF, size: 0x8, addend: 0x0, symName: __ZN8nlohmann16json_abi_v3_11_26detail10type_error6createIPKNS0_10basic_jsonINSt3__13mapENS5_6vectorENS5_12basic_stringIcNS5_11char_traitsIcEENS5_9allocatorIcEEEEbxydSB_NS0_14adl_serializerENS7_IhNSB_IhEEEEEELi0EEES2_iRKSD_T_, symObjAddr: 0x4724, symBinAddr: 0xF424, symSize: 0x1CC }
  - { offset: 0x198128, size: 0x8, addend: 0x0, symName: '__ZZN3nam7get_dspERNS_7dspDataEENK3$_0clERKNSt3__112basic_stringIcNS3_11char_traitsIcEENS3_9allocatorIcEEEE', symObjAddr: 0x2B50, symBinAddr: 0xD850, symSize: 0x244 }
  - { offset: 0x198AA6, size: 0x8, addend: 0x0, symName: __ZNKSt3__121__murmur2_or_cityhashImLm64EEclB9nqe210106EPKvm, symObjAddr: 0x4F64, symBinAddr: 0xFC64, symSize: 0x44C }
  - { offset: 0x199568, size: 0x8, addend: 0x0, symName: __ZNK8nlohmann16json_abi_v3_11_210basic_jsonINSt3__13mapENS2_6vectorENS2_12basic_stringIcNS2_11char_traitsIcEENS2_9allocatorIcEEEEbxydS8_NS0_14adl_serializerENS4_IhNS8_IhEEEEEixERKSA_, symObjAddr: 0x10864, symBinAddr: 0x1B500, symSize: 0xE4 }
  - { offset: 0x199851, size: 0x8, addend: 0x0, symName: __ZNK8nlohmann16json_abi_v3_11_26detail9iter_implINS0_10basic_jsonINSt3__13mapENS4_6vectorENS4_12basic_stringIcNS4_11char_traitsIcEENS4_9allocatorIcEEEEbxydSA_NS0_14adl_serializerENS6_IhNSA_IhEEEEEEEeqISH_LDn0EEEbRKT_, symObjAddr: 0x583C, symBinAddr: 0x1053C, symSize: 0x108 }
  - { offset: 0x199A70, size: 0x8, addend: 0x0, symName: __ZNSt3__16__treeINS_12__value_typeINS_12basic_stringIcNS_11char_traitsIcEENS_9allocatorIcEEEEN8nlohmann16json_abi_v3_11_210basic_jsonINS_3mapENS_6vectorES7_bxydS5_NS9_14adl_serializerENSC_IhNS5_IhEEEEEEEENS_19__map_value_compareIS7_NS_4pairIKS7_SG_EENS_4lessIvEELb1EEENS5_ISL_EEE4findIS7_EENS_15__tree_iteratorISH_PNS_11__tree_nodeISH_PvEElEERKT_, symObjAddr: 0x5730, symBinAddr: 0x10430, symSize: 0x10C }
  - { offset: 0x199DD2, size: 0x8, addend: 0x0, symName: __ZN8nlohmann16json_abi_v3_11_210basic_jsonINSt3__13mapENS2_6vectorENS2_12basic_stringIcNS2_11char_traitsIcEENS2_9allocatorIcEEEEbxydS8_NS0_14adl_serializerENS4_IhNS8_IhEEEEEixESA_, symObjAddr: 0x5608, symBinAddr: 0x10308, symSize: 0x128 }
  - { offset: 0x19A13D, size: 0x8, addend: 0x0, symName: __ZThn16_NSt3__118basic_stringstreamIcNS_11char_traitsIcEENS_9allocatorIcEEED1Ev, symObjAddr: 0x2E3C, symBinAddr: 0xDB3C, symSize: 0x98 }
  - { offset: 0x19A2E2, size: 0x8, addend: 0x0, symName: __ZTv0_n24_NSt3__118basic_stringstreamIcNS_11char_traitsIcEENS_9allocatorIcEEED1Ev, symObjAddr: 0x2ED4, symBinAddr: 0xDBD4, symSize: 0x94 }
  - { offset: 0x19A485, size: 0x8, addend: 0x0, symName: __ZNSt3__118basic_stringstreamIcNS_11char_traitsIcEENS_9allocatorIcEEED0Ev, symObjAddr: 0x2F68, symBinAddr: 0xDC68, symSize: 0x94 }
  - { offset: 0x19A64F, size: 0x8, addend: 0x0, symName: __ZThn16_NSt3__118basic_stringstreamIcNS_11char_traitsIcEENS_9allocatorIcEEED0Ev, symObjAddr: 0x2FFC, symBinAddr: 0xDCFC, symSize: 0xA0 }
  - { offset: 0x19A814, size: 0x8, addend: 0x0, symName: __ZTv0_n24_NSt3__118basic_stringstreamIcNS_11char_traitsIcEENS_9allocatorIcEEED0Ev, symObjAddr: 0x309C, symBinAddr: 0xDD9C, symSize: 0x9C }
  - { offset: 0x19A9D5, size: 0x8, addend: 0x0, symName: __ZNSt3__115basic_stringbufIcNS_11char_traitsIcEENS_9allocatorIcEEED1Ev, symObjAddr: 0x3138, symBinAddr: 0xDE38, symSize: 0x58 }
  - { offset: 0x19AB34, size: 0x8, addend: 0x0, symName: __ZNSt3__115basic_stringbufIcNS_11char_traitsIcEENS_9allocatorIcEEED0Ev, symObjAddr: 0x3190, symBinAddr: 0xDE90, symSize: 0x58 }
  - { offset: 0x19AD83, size: 0x8, addend: 0x0, symName: __ZNSt3__115basic_stringbufIcNS_11char_traitsIcEENS_9allocatorIcEEE7seekoffExNS_8ios_base7seekdirEj, symObjAddr: 0x31E8, symBinAddr: 0xDEE8, symSize: 0x120 }
  - { offset: 0x19AFCB, size: 0x8, addend: 0x0, symName: __ZNSt3__115basic_stringbufIcNS_11char_traitsIcEENS_9allocatorIcEEE7seekposENS_4fposI11__mbstate_tEEj, symObjAddr: 0x3308, symBinAddr: 0xE008, symSize: 0x18 }
  - { offset: 0x19B03D, size: 0x8, addend: 0x0, symName: __ZNSt3__115basic_stringbufIcNS_11char_traitsIcEENS_9allocatorIcEEE9underflowEv, symObjAddr: 0x3320, symBinAddr: 0xE020, symSize: 0x50 }
  - { offset: 0x19B0EA, size: 0x8, addend: 0x0, symName: __ZNSt3__115basic_stringbufIcNS_11char_traitsIcEENS_9allocatorIcEEE9pbackfailEi, symObjAddr: 0x3370, symBinAddr: 0xE070, symSize: 0x6C }
  - { offset: 0x19B366, size: 0x8, addend: 0x0, symName: __ZNSt3__115basic_stringbufIcNS_11char_traitsIcEENS_9allocatorIcEEE8overflowEi, symObjAddr: 0x33DC, symBinAddr: 0xE0DC, symSize: 0x210 }
  - { offset: 0x19BAF4, size: 0x8, addend: 0x0, symName: __ZNSt3__16vectorIfNS_9allocatorIfEEE20__throw_length_errorB9nqe210106Ev, symObjAddr: 0x3758, symBinAddr: 0xE458, symSize: 0x14 }
  - { offset: 0x19BB08, size: 0x8, addend: 0x0, symName: __ZTv0_n24_NSt3__114basic_ifstreamIcNS_11char_traitsIcEEED1Ev, symObjAddr: 0x376C, symBinAddr: 0xE46C, symSize: 0x5C }
  - { offset: 0x19BB89, size: 0x8, addend: 0x0, symName: __ZNSt3__114basic_ifstreamIcNS_11char_traitsIcEEED0Ev, symObjAddr: 0x37C8, symBinAddr: 0xE4C8, symSize: 0x5C }
  - { offset: 0x19BC31, size: 0x8, addend: 0x0, symName: __ZTv0_n24_NSt3__114basic_ifstreamIcNS_11char_traitsIcEEED0Ev, symObjAddr: 0x3824, symBinAddr: 0xE524, symSize: 0x64 }
  - { offset: 0x19BCD0, size: 0x8, addend: 0x0, symName: __ZNSt3__113basic_filebufIcNS_11char_traitsIcEEED1Ev, symObjAddr: 0x3888, symBinAddr: 0xE588, symSize: 0x4 }
  - { offset: 0x19BCF4, size: 0x8, addend: 0x0, symName: __ZNSt3__113basic_filebufIcNS_11char_traitsIcEEED1Ev, symObjAddr: 0x3888, symBinAddr: 0xE588, symSize: 0x4 }
  - { offset: 0x19BDF4, size: 0x8, addend: 0x0, symName: __ZNSt3__113basic_filebufIcNS_11char_traitsIcEEE4syncEv, symObjAddr: 0x3DC8, symBinAddr: 0xEAC8, symSize: 0x264 }
  - { offset: 0x19C0C2, size: 0x8, addend: 0x0, symName: __ZNSt3__113basic_filebufIcNS_11char_traitsIcEEE9underflowEv, symObjAddr: 0x402C, symBinAddr: 0xED2C, symSize: 0x2CC }
  - { offset: 0x19C0DF, size: 0x8, addend: 0x0, symName: __ZNSt3__113basic_filebufIcNS_11char_traitsIcEEED0Ev, symObjAddr: 0x3968, symBinAddr: 0xE668, symSize: 0x14 }
  - { offset: 0x19C153, size: 0x8, addend: 0x0, symName: __ZNSt3__113basic_filebufIcNS_11char_traitsIcEEE5imbueERKNS_6localeE, symObjAddr: 0x397C, symBinAddr: 0xE67C, symSize: 0xFC }
  - { offset: 0x19C258, size: 0x8, addend: 0x0, symName: __ZNSt3__113basic_filebufIcNS_11char_traitsIcEEE6setbufEPcl, symObjAddr: 0x3A78, symBinAddr: 0xE778, symSize: 0x164 }
  - { offset: 0x19C36A, size: 0x8, addend: 0x0, symName: __ZNSt3__113basic_filebufIcNS_11char_traitsIcEEE7seekoffExNS_8ios_base7seekdirEj, symObjAddr: 0x3BDC, symBinAddr: 0xE8DC, symSize: 0x110 }
  - { offset: 0x19C50A, size: 0x8, addend: 0x0, symName: __ZNSt3__113basic_filebufIcNS_11char_traitsIcEEE7seekposENS_4fposI11__mbstate_tEEj, symObjAddr: 0x3CEC, symBinAddr: 0xE9EC, symSize: 0xDC }
  - { offset: 0x19C550, size: 0x8, addend: 0x0, symName: __ZNSt3__113basic_filebufIcNS_11char_traitsIcEEE7seekposENS_4fposI11__mbstate_tEEj, symObjAddr: 0x3CEC, symBinAddr: 0xE9EC, symSize: 0xDC }
  - { offset: 0x19C755, size: 0x8, addend: 0x0, symName: __ZNSt3__113basic_filebufIcNS_11char_traitsIcEEE9underflowEv, symObjAddr: 0x402C, symBinAddr: 0xED2C, symSize: 0x2CC }
  - { offset: 0x19CAEC, size: 0x8, addend: 0x0, symName: __ZNSt3__113basic_filebufIcNS_11char_traitsIcEEE9pbackfailEi, symObjAddr: 0x42F8, symBinAddr: 0xEFF8, symSize: 0x5C }
  - { offset: 0x19CB18, size: 0x8, addend: 0x0, symName: __ZNSt3__113basic_filebufIcNS_11char_traitsIcEEE9pbackfailEi, symObjAddr: 0x42F8, symBinAddr: 0xEFF8, symSize: 0x5C }
  - { offset: 0x19CC85, size: 0x8, addend: 0x0, symName: __ZNSt3__113basic_filebufIcNS_11char_traitsIcEEE8overflowEi, symObjAddr: 0x4354, symBinAddr: 0xF054, symSize: 0x250 }
  - { offset: 0x19CFE3, size: 0x8, addend: 0x0, symName: __ZNSt3__116__throw_bad_castB9nqe210106Ev, symObjAddr: 0x45A4, symBinAddr: 0xF2A4, symSize: 0x28 }
  - { offset: 0x19D049, size: 0x8, addend: 0x0, symName: __ZNSt3__112basic_stringIcNS_11char_traitsIcEENS_9allocatorIcEEE17__assign_no_aliasILb0EEERS5_PKcm, symObjAddr: 0x543C, symBinAddr: 0x1013C, symSize: 0x110 }
  - { offset: 0x19D5CB, size: 0x8, addend: 0x0, symName: __ZN8nlohmann16json_abi_v3_11_26detail10type_errorD1Ev, symObjAddr: 0x49F8, symBinAddr: 0xF6F8, symSize: 0x30 }
  - { offset: 0x19D6A0, size: 0x8, addend: 0x0, symName: __ZN8nlohmann16json_abi_v3_11_26detail10type_errorD0Ev, symObjAddr: 0x4CE8, symBinAddr: 0xF9E8, symSize: 0x34 }
  - { offset: 0x19D72B, size: 0x8, addend: 0x0, symName: __ZNK8nlohmann16json_abi_v3_11_26detail9exception4whatEv, symObjAddr: 0x4D1C, symBinAddr: 0xFA1C, symSize: 0x8 }
  - { offset: 0x19D752, size: 0x8, addend: 0x0, symName: __ZN8nlohmann16json_abi_v3_11_26detail9exceptionD1Ev, symObjAddr: 0x4D24, symBinAddr: 0xFA24, symSize: 0x30 }
  - { offset: 0x19D7B7, size: 0x8, addend: 0x0, symName: __ZN8nlohmann16json_abi_v3_11_26detail9exceptionD0Ev, symObjAddr: 0x4D54, symBinAddr: 0xFA54, symSize: 0x34 }
  - { offset: 0x19DBD8, size: 0x8, addend: 0x0, symName: __ZN3nam20ConfigParserRegistryD1Ev, symObjAddr: 0x4ED0, symBinAddr: 0xFBD0, symSize: 0x94 }
  - { offset: 0x19E558, size: 0x8, addend: 0x0, symName: __ZNSt3__16__treeINS_12__value_typeINS_12basic_stringIcNS_11char_traitsIcEENS_9allocatorIcEEEEN8nlohmann16json_abi_v3_11_210basic_jsonINS_3mapENS_6vectorES7_bxydS5_NS9_14adl_serializerENSC_IhNS5_IhEEEEEEEENS_19__map_value_compareIS7_NS_4pairIKS7_SG_EENS_4lessIvEELb1EEENS5_ISL_EEE25__emplace_unique_key_argsIS7_JS7_DnEEENSJ_INS_15__tree_iteratorISH_PNS_11__tree_nodeISH_PvEElEEbEERKT_DpOT0_, symObjAddr: 0x5E18, symBinAddr: 0x10B18, symSize: 0x164 }
  - { offset: 0x19EBB9, size: 0x8, addend: 0x0, symName: __ZN8nlohmann16json_abi_v3_11_26detail10type_error6createIPNS0_10basic_jsonINSt3__13mapENS5_6vectorENS5_12basic_stringIcNS5_11char_traitsIcEENS5_9allocatorIcEEEEbxydSB_NS0_14adl_serializerENS7_IhNSB_IhEEEEEELi0EEES2_iRKSD_T_, symObjAddr: 0x5B6C, symBinAddr: 0x1086C, symSize: 0x1CC }
  - { offset: 0x19F9B9, size: 0x8, addend: 0x0, symName: __ZN8nlohmann16json_abi_v3_11_26detail16invalid_iterator6createIPNS0_10basic_jsonINSt3__13mapENS5_6vectorENS5_12basic_stringIcNS5_11char_traitsIcEENS5_9allocatorIcEEEEbxydSB_NS0_14adl_serializerENS7_IhNSB_IhEEEEEELi0EEES2_iRKSD_T_, symObjAddr: 0x5944, symBinAddr: 0x10644, symSize: 0x1C4 }
  - { offset: 0x1A0692, size: 0x8, addend: 0x0, symName: __ZN8nlohmann16json_abi_v3_11_26detail16invalid_iteratorD1Ev, symObjAddr: 0x5B08, symBinAddr: 0x10808, symSize: 0x30 }
  - { offset: 0x1A0718, size: 0x8, addend: 0x0, symName: __ZN8nlohmann16json_abi_v3_11_26detail16invalid_iteratorD0Ev, symObjAddr: 0x5B38, symBinAddr: 0x10838, symSize: 0x34 }
  - { offset: 0x1A0B35, size: 0x8, addend: 0x0, symName: __ZNSt3__110unique_ptrINS_11__tree_nodeINS_12__value_typeINS_12basic_stringIcNS_11char_traitsIcEENS_9allocatorIcEEEEN8nlohmann16json_abi_v3_11_210basic_jsonINS_3mapENS_6vectorES8_bxydS6_NSA_14adl_serializerENSD_IhNS6_IhEEEEEEEEPvEENS_22__tree_node_destructorINS6_ISK_EEEEED1B9nqe210106Ev, symObjAddr: 0x5F7C, symBinAddr: 0x10C7C, symSize: 0x60 }
  - { offset: 0x1A16E4, size: 0x8, addend: 0x0, symName: __ZNSt3__16vectorIN8nlohmann16json_abi_v3_11_210basic_jsonINS_3mapES0_NS_12basic_stringIcNS_11char_traitsIcEENS_9allocatorIcEEEEbxydS8_NS2_14adl_serializerENS0_IhNS8_IhEEEEEENS8_ISE_EEE7reserveEm, symObjAddr: 0x6844, symBinAddr: 0x11544, symSize: 0xE4 }
  - { offset: 0x1A1B16, size: 0x8, addend: 0x0, symName: __ZNSt3__16vectorIN8nlohmann16json_abi_v3_11_210basic_jsonINS_3mapES0_NS_12basic_stringIcNS_11char_traitsIcEENS_9allocatorIcEEEEbxydS8_NS2_14adl_serializerENS0_IhNS8_IhEEEEEENS8_ISE_EEE24__emplace_back_slow_pathIJSE_EEEPSE_DpOT_, symObjAddr: 0x69E8, symBinAddr: 0x116D4, symSize: 0x138 }
  - { offset: 0x1A202E, size: 0x8, addend: 0x0, symName: __ZNSt3__16__treeINS_12__value_typeINS_12basic_stringIcNS_11char_traitsIcEENS_9allocatorIcEEEEN8nlohmann16json_abi_v3_11_210basic_jsonINS_3mapENS_6vectorES7_bxydS5_NS9_14adl_serializerENSC_IhNS5_IhEEEEEEEENS_19__map_value_compareIS7_NS_4pairIKS7_SG_EENS_4lessIvEELb1EEENS5_ISL_EEE7destroyEPNS_11__tree_nodeISH_PvEE, symObjAddr: 0x6B20, symBinAddr: 0x1180C, symSize: 0x78 }
  - { offset: 0x1A22A5, size: 0x8, addend: 0x0, symName: __ZNSt3__16vectorIN8nlohmann16json_abi_v3_11_210basic_jsonINS_3mapES0_NS_12basic_stringIcNS_11char_traitsIcEENS_9allocatorIcEEEEbxydS8_NS2_14adl_serializerENS0_IhNS8_IhEEEEEENS8_ISE_EEED2B9nqe210106Ev, symObjAddr: 0x6B98, symBinAddr: 0x11884, symSize: 0x5C }
  - { offset: 0x1A2496, size: 0x8, addend: 0x0, symName: __ZNSt3__114__split_bufferIN8nlohmann16json_abi_v3_11_210basic_jsonINS_3mapENS_6vectorENS_12basic_stringIcNS_11char_traitsIcEENS_9allocatorIcEEEEbxydS9_NS2_14adl_serializerENS5_IhNS9_IhEEEEEERNS9_ISF_EEED1Ev, symObjAddr: 0x693C, symBinAddr: 0x11628, symSize: 0x54 }
  - { offset: 0x1A2643, size: 0x8, addend: 0x0, symName: __ZNSt3__128__exception_guard_exceptionsINS_29_AllocatorDestroyRangeReverseINS_9allocatorIN8nlohmann16json_abi_v3_11_210basic_jsonINS_3mapENS_6vectorENS_12basic_stringIcNS_11char_traitsIcEENS2_IcEEEEbxydS2_NS4_14adl_serializerENS7_IhNS2_IhEEEEEEEEPSG_EEED1B9nqe210106Ev, symObjAddr: 0x6990, symBinAddr: 0x1167C, symSize: 0x58 }
  - { offset: 0x1A3192, size: 0x8, addend: 0x0, symName: __ZNSt3__16vectorIfNS_9allocatorIfEEE6insertENS_11__wrap_iterIPKfEEOf, symObjAddr: 0x7BEC, symBinAddr: 0x128D8, symSize: 0x1FC }
  - { offset: 0x1A3FD1, size: 0x8, addend: 0x0, symName: __ZN8nlohmann16json_abi_v3_11_210basic_jsonINSt3__13mapENS2_6vectorENS2_12basic_stringIcNS2_11char_traitsIcEENS2_9allocatorIcEEEEbxydS8_NS0_14adl_serializerENS4_IhNS8_IhEEEEE10json_valueC2ENS0_6detail7value_tE, symObjAddr: 0x7DE8, symBinAddr: 0x12AD4, symSize: 0x140 }
  - { offset: 0x1A6778, size: 0x8, addend: 0x0, symName: __ZN8nlohmann16json_abi_v3_11_26detail19json_sax_dom_parserINS0_10basic_jsonINSt3__13mapENS4_6vectorENS4_12basic_stringIcNS4_11char_traitsIcEENS4_9allocatorIcEEEEbxydSA_NS0_14adl_serializerENS6_IhNSA_IhEEEEEEE12handle_valueINS1_7value_tEEEPSG_OT_, symObjAddr: 0xFD58, symBinAddr: 0x1AA08, symSize: 0x260 }
  - { offset: 0x1A719E, size: 0x8, addend: 0x0, symName: __ZNSt3__16__treeINS_12__value_typeINS_12basic_stringIcNS_11char_traitsIcEENS_9allocatorIcEEEEN8nlohmann16json_abi_v3_11_210basic_jsonINS_3mapENS_6vectorES7_bxydS5_NS9_14adl_serializerENSC_IhNS5_IhEEEEEEEENS_19__map_value_compareIS7_NS_4pairIKS7_SG_EENS_4lessIvEELb1EEENS5_ISL_EEE25__emplace_unique_key_argsIS7_JRKNS_21piecewise_construct_tENS_5tupleIJRSK_EEENSV_IJEEEEEENSJ_INS_15__tree_iteratorISH_PNS_11__tree_nodeISH_PvEElEEbEERKT_DpOT0_, symObjAddr: 0xF9D0, symBinAddr: 0x1A680, symSize: 0x198 }
  - { offset: 0x1A783D, size: 0x8, addend: 0x0, symName: __ZNSt3__16vectorIbNS_9allocatorIbEEE7reserveEm, symObjAddr: 0xE610, symBinAddr: 0x192E8, symSize: 0x11C }
  - { offset: 0x1A7E10, size: 0x8, addend: 0x0, symName: __ZN8nlohmann16json_abi_v3_11_26detail28json_sax_dom_callback_parserINS0_10basic_jsonINSt3__13mapENS4_6vectorENS4_12basic_stringIcNS4_11char_traitsIcEENS4_9allocatorIcEEEEbxydSA_NS0_14adl_serializerENS6_IhNSA_IhEEEEEEE12handle_valueINS1_7value_tEEENS4_4pairIbPSG_EEOT_b, symObjAddr: 0xF034, symBinAddr: 0x19CF8, symSize: 0x1BC }
  - { offset: 0x1A8424, size: 0x8, addend: 0x0, symName: __ZN8nlohmann16json_abi_v3_11_26detail28json_sax_dom_callback_parserINS0_10basic_jsonINSt3__13mapENS4_6vectorENS4_12basic_stringIcNS4_11char_traitsIcEENS4_9allocatorIcEEEEbxydSA_NS0_14adl_serializerENS6_IhNSA_IhEEEEEEE9end_arrayEv, symObjAddr: 0xEEA8, symBinAddr: 0x19B6C, symSize: 0x15C }
  - { offset: 0x1A880C, size: 0x8, addend: 0x0, symName: __ZN8nlohmann16json_abi_v3_11_26detail28json_sax_dom_callback_parserINS0_10basic_jsonINSt3__13mapENS4_6vectorENS4_12basic_stringIcNS4_11char_traitsIcEENS4_9allocatorIcEEEEbxydSA_NS0_14adl_serializerENS6_IhNSA_IhEEEEEEE10end_objectEv, symObjAddr: 0xE740, symBinAddr: 0x19404, symSize: 0x574 }
  - { offset: 0x1A9820, size: 0x8, addend: 0x0, symName: __ZN8nlohmann16json_abi_v3_11_26detail28json_sax_dom_callback_parserINS0_10basic_jsonINSt3__13mapENS4_6vectorENS4_12basic_stringIcNS4_11char_traitsIcEENS4_9allocatorIcEEEEbxydSA_NS0_14adl_serializerENS6_IhNSA_IhEEEEEEE3keyERSC_, symObjAddr: 0xECB4, symBinAddr: 0x19978, symSize: 0x1F4 }
  - { offset: 0x1A9F18, size: 0x8, addend: 0x0, symName: __ZN8nlohmann16json_abi_v3_11_26detail6parserINS0_10basic_jsonINSt3__13mapENS4_6vectorENS4_12basic_stringIcNS4_11char_traitsIcEENS4_9allocatorIcEEEEbxydSA_NS0_14adl_serializerENS6_IhNSA_IhEEEEEENS1_20input_stream_adapterEE17exception_messageENS1_10lexer_baseISG_E10token_typeERKSC_, symObjAddr: 0xDC64, symBinAddr: 0x1893C, symSize: 0x930 }
  - { offset: 0x1AC430, size: 0x8, addend: 0x0, symName: __ZN8nlohmann16json_abi_v3_11_26detail11parse_error6createIDnLi0EEES2_iRKNS1_10position_tERKNSt3__112basic_stringIcNS7_11char_traitsIcEENS7_9allocatorIcEEEET_, symObjAddr: 0xD38C, symBinAddr: 0x18064, symSize: 0x8D8 }
  - { offset: 0x1AF513, size: 0x8, addend: 0x0, symName: __ZN8nlohmann16json_abi_v3_11_26detail28json_sax_dom_callback_parserINS0_10basic_jsonINSt3__13mapENS4_6vectorENS4_12basic_stringIcNS4_11char_traitsIcEENS4_9allocatorIcEEEEbxydSA_NS0_14adl_serializerENS6_IhNSA_IhEEEEEEED2Ev, symObjAddr: 0xFCD4, symBinAddr: 0x1A984, symSize: 0x84 }
  - { offset: 0x1AF8CF, size: 0x8, addend: 0x0, symName: __ZNK8nlohmann16json_abi_v3_11_26detail5lexerINS0_10basic_jsonINSt3__13mapENS4_6vectorENS4_12basic_stringIcNS4_11char_traitsIcEENS4_9allocatorIcEEEEbxydSA_NS0_14adl_serializerENS6_IhNSA_IhEEEEEENS1_20input_stream_adapterEE16get_token_stringEv, symObjAddr: 0xD298, symBinAddr: 0x17F70, symSize: 0xF4 }
  - { offset: 0x1AFB34, size: 0x8, addend: 0x0, symName: __ZN8nlohmann16json_abi_v3_11_26detail28json_sax_dom_callback_parserINS0_10basic_jsonINSt3__13mapENS4_6vectorENS4_12basic_stringIcNS4_11char_traitsIcEENS4_9allocatorIcEEEEbxydSA_NS0_14adl_serializerENS6_IhNSA_IhEEEEEEE11parse_errorINS1_11parse_errorEEEbmRKSC_RKT_, symObjAddr: 0xD24C, symBinAddr: 0x17F24, symSize: 0x4C }
  - { offset: 0x1AFB7B, size: 0x8, addend: 0x0, symName: __ZN8nlohmann16json_abi_v3_11_26detail19json_sax_dom_parserINS0_10basic_jsonINSt3__13mapENS4_6vectorENS4_12basic_stringIcNS4_11char_traitsIcEENS4_9allocatorIcEEEEbxydSA_NS0_14adl_serializerENS6_IhNSA_IhEEEEEEE11parse_errorINS1_11parse_errorEEEbmRKSC_RKT_, symObjAddr: 0xE5C4, symBinAddr: 0x1929C, symSize: 0x4C }
  - { offset: 0x1B011D, size: 0x8, addend: 0x0, symName: __ZN8nlohmann16json_abi_v3_11_26detail5lexerINS0_10basic_jsonINSt3__13mapENS4_6vectorENS4_12basic_stringIcNS4_11char_traitsIcEENS4_9allocatorIcEEEEbxydSA_NS0_14adl_serializerENS6_IhNSA_IhEEEEEENS1_20input_stream_adapterEE3getEv, symObjAddr: 0xCF04, symBinAddr: 0x17BF0, symSize: 0x188 }
  - { offset: 0x1B064B, size: 0x8, addend: 0x0, symName: __ZN8nlohmann16json_abi_v3_11_26detail5lexerINS0_10basic_jsonINSt3__13mapENS4_6vectorENS4_12basic_stringIcNS4_11char_traitsIcEENS4_9allocatorIcEEEEbxydSA_NS0_14adl_serializerENS6_IhNSA_IhEEEEEENS1_20input_stream_adapterEE15skip_whitespaceEv, symObjAddr: 0xCD3C, symBinAddr: 0x17A28, symSize: 0x1C8 }
  - { offset: 0x1B0B89, size: 0x8, addend: 0x0, symName: __ZN8nlohmann16json_abi_v3_11_26detail5lexerINS0_10basic_jsonINSt3__13mapENS4_6vectorENS4_12basic_stringIcNS4_11char_traitsIcEENS4_9allocatorIcEEEEbxydSA_NS0_14adl_serializerENS6_IhNSA_IhEEEEEENS1_20input_stream_adapterEE3getEv, symObjAddr: 0xCF04, symBinAddr: 0x17BF0, symSize: 0x188 }
  - { offset: 0x1B0B94, size: 0x8, addend: 0x0, symName: __ZN8nlohmann16json_abi_v3_11_26detail5lexerINS0_10basic_jsonINSt3__13mapENS4_6vectorENS4_12basic_stringIcNS4_11char_traitsIcEENS4_9allocatorIcEEEEbxydSA_NS0_14adl_serializerENS6_IhNSA_IhEEEEEENS1_20input_stream_adapterEE13get_codepointEv, symObjAddr: 0xD0A0, symBinAddr: 0x17D78, symSize: 0x1AC }
  - { offset: 0x1B0D0D, size: 0x8, addend: 0x0, symName: __ZN8nlohmann16json_abi_v3_11_26detail11parse_errorC1ERKS2_, symObjAddr: 0xFB68, symBinAddr: 0x1A818, symSize: 0x58 }
  - { offset: 0x1B0EB2, size: 0x8, addend: 0x0, symName: __ZN8nlohmann16json_abi_v3_11_26detail11parse_errorD1Ev, symObjAddr: 0xE594, symBinAddr: 0x1926C, symSize: 0x30 }
  - { offset: 0x1B13BB, size: 0x8, addend: 0x0, symName: __ZNSt3__16__treeINS_12__value_typeINS_12basic_stringIcNS_11char_traitsIcEENS_9allocatorIcEEEEN8nlohmann16json_abi_v3_11_210basic_jsonINS_3mapENS_6vectorES7_bxydS5_NS9_14adl_serializerENSC_IhNS5_IhEEEEEEEENS_19__map_value_compareIS7_NS_4pairIKS7_SG_EENS_4lessIvEELb1EEENS5_ISL_EEE5eraseENS_21__tree_const_iteratorISH_PNS_11__tree_nodeISH_PvEElEE, symObjAddr: 0xF4E8, symBinAddr: 0x1A198, symSize: 0xB8 }
  - { offset: 0x1B1707, size: 0x8, addend: 0x0, symName: __ZN8nlohmann16json_abi_v3_11_26detail12out_of_rangeD1Ev, symObjAddr: 0xF004, symBinAddr: 0x19CC8, symSize: 0x30 }
  - { offset: 0x1B188C, size: 0x8, addend: 0x0, symName: __ZN8nlohmann16json_abi_v3_11_26detail12out_of_range6createIPNS0_10basic_jsonINSt3__13mapENS5_6vectorENS5_12basic_stringIcNS5_11char_traitsIcEENS5_9allocatorIcEEEEbxydSB_NS0_14adl_serializerENS7_IhNSB_IhEEEEEELi0EEES2_iRKSD_T_, symObjAddr: 0xF1F0, symBinAddr: 0x19EB4, symSize: 0x1D0 }
  - { offset: 0x1B2516, size: 0x8, addend: 0x0, symName: __ZN8nlohmann16json_abi_v3_11_26detail12out_of_rangeD0Ev, symObjAddr: 0xF3D4, symBinAddr: 0x1A084, symSize: 0x34 }
  - { offset: 0x1B28CC, size: 0x8, addend: 0x0, symName: __ZN8nlohmann16json_abi_v3_11_26detail11parse_errorD0Ev, symObjAddr: 0xFBC0, symBinAddr: 0x1A870, symSize: 0x34 }
  - { offset: 0x1B32F7, size: 0x8, addend: 0x0, symName: __ZNSt3__16vectorIN8nlohmann16json_abi_v3_11_210basic_jsonINS_3mapES0_NS_12basic_stringIcNS_11char_traitsIcEENS_9allocatorIcEEEEbxydS8_NS2_14adl_serializerENS0_IhNS8_IhEEEEEENS8_ISE_EEE16__init_with_sizeB9nqe210106IPSE_SI_EEvT_T0_m, symObjAddr: 0x106E8, symBinAddr: 0x1B398, symSize: 0xFC }
  - { offset: 0x1B36F2, size: 0x8, addend: 0x0, symName: __ZNSt3__16__treeINS_12__value_typeINS_12basic_stringIcNS_11char_traitsIcEENS_9allocatorIcEEEEN8nlohmann16json_abi_v3_11_210basic_jsonINS_3mapENS_6vectorES7_bxydS5_NS9_14adl_serializerENSC_IhNS5_IhEEEEEEEENS_19__map_value_compareIS7_NS_4pairIKS7_SG_EENS_4lessIvEELb1EEENS5_ISL_EEE30__emplace_hint_unique_key_argsIS7_JRKSL_EEENSJ_INS_15__tree_iteratorISH_PNS_11__tree_nodeISH_PvEElEEbEENS_21__tree_const_iteratorISH_SY_lEERKT_DpOT0_, symObjAddr: 0x10224, symBinAddr: 0x1AED4, symSize: 0x120 }
  - { offset: 0x1B3C65, size: 0x8, addend: 0x0, symName: __ZNSt3__16__treeINS_12__value_typeINS_12basic_stringIcNS_11char_traitsIcEENS_9allocatorIcEEEEN8nlohmann16json_abi_v3_11_210basic_jsonINS_3mapENS_6vectorES7_bxydS5_NS9_14adl_serializerENSC_IhNS5_IhEEEEEEEENS_19__map_value_compareIS7_NS_4pairIKS7_SG_EENS_4lessIvEELb1EEENS5_ISL_EEE12__find_equalIS7_EERPNS_16__tree_node_baseIPvEENS_21__tree_const_iteratorISH_PNS_11__tree_nodeISH_ST_EElEERPNS_15__tree_end_nodeISV_EESW_RKT_, symObjAddr: 0x10344, symBinAddr: 0x1AFF4, symSize: 0x3A4 }
  - { offset: 0x1B4AF2, size: 0x8, addend: 0x0, symName: __ZNSt3__128__exception_guard_exceptionsINS_6vectorIN8nlohmann16json_abi_v3_11_210basic_jsonINS_3mapES1_NS_12basic_stringIcNS_11char_traitsIcEENS_9allocatorIcEEEEbxydS9_NS3_14adl_serializerENS1_IhNS9_IhEEEEEENS9_ISF_EEE16__destroy_vectorEED1B9nqe210106Ev, symObjAddr: 0x107E4, symBinAddr: 0x1B494, symSize: 0x6C }
  - { offset: 0x1B75F2, size: 0x8, addend: 0x0, symName: __MergedGlobals, symObjAddr: 0x6406E0, symBinAddr: 0x2B34A0, symSize: 0x0 }
  - { offset: 0x1B78D2, size: 0x8, addend: 0x0, symName: __MergedGlobals, symObjAddr: 0x6406E0, symBinAddr: 0x2B34A0, symSize: 0x0 }
  - { offset: 0x1B78EF, size: 0x8, addend: 0x0, symName: __MergedGlobals, symObjAddr: 0x6406E0, symBinAddr: 0x2B34A0, symSize: 0x0 }
  - { offset: 0x1B790C, size: 0x8, addend: 0x0, symName: __MergedGlobals, symObjAddr: 0x6406E0, symBinAddr: 0x2B34A0, symSize: 0x0 }
  - { offset: 0x1B792A, size: 0x8, addend: 0x0, symName: __MergedGlobals, symObjAddr: 0x6406E0, symBinAddr: 0x2B34A0, symSize: 0x0 }
  - { offset: 0x1B7948, size: 0x8, addend: 0x0, symName: __MergedGlobals, symObjAddr: 0x6406E0, symBinAddr: 0x2B34A0, symSize: 0x0 }
  - { offset: 0x1B7966, size: 0x8, addend: 0x0, symName: __MergedGlobals, symObjAddr: 0x6406E0, symBinAddr: 0x2B34A0, symSize: 0x0 }
  - { offset: 0x1B7984, size: 0x8, addend: 0x0, symName: __MergedGlobals, symObjAddr: 0x6406E0, symBinAddr: 0x2B34A0, symSize: 0x0 }
  - { offset: 0x1B79A2, size: 0x8, addend: 0x0, symName: __MergedGlobals, symObjAddr: 0x6406E0, symBinAddr: 0x2B34A0, symSize: 0x0 }
  - { offset: 0x1B79C0, size: 0x8, addend: 0x0, symName: __MergedGlobals, symObjAddr: 0x6406E0, symBinAddr: 0x2B34A0, symSize: 0x0 }
  - { offset: 0x1B79DE, size: 0x8, addend: 0x0, symName: __MergedGlobals, symObjAddr: 0x6406E0, symBinAddr: 0x2B34A0, symSize: 0x0 }
  - { offset: 0x1B79FC, size: 0x8, addend: 0x0, symName: __MergedGlobals, symObjAddr: 0x6406E0, symBinAddr: 0x2B34A0, symSize: 0x0 }
  - { offset: 0x1B7A1A, size: 0x8, addend: 0x0, symName: __MergedGlobals, symObjAddr: 0x6406E0, symBinAddr: 0x2B34A0, symSize: 0x0 }
  - { offset: 0x1B7A38, size: 0x8, addend: 0x0, symName: __MergedGlobals, symObjAddr: 0x6406E0, symBinAddr: 0x2B34A0, symSize: 0x0 }
  - { offset: 0x1B7A56, size: 0x8, addend: 0x0, symName: __MergedGlobals, symObjAddr: 0x6406E0, symBinAddr: 0x2B34A0, symSize: 0x0 }
  - { offset: 0x1B7A74, size: 0x8, addend: 0x0, symName: __MergedGlobals, symObjAddr: 0x6406E0, symBinAddr: 0x2B34A0, symSize: 0x0 }
  - { offset: 0x1B7A92, size: 0x8, addend: 0x0, symName: __MergedGlobals, symObjAddr: 0x6406E0, symBinAddr: 0x2B34A0, symSize: 0x0 }
  - { offset: 0x1B7AB0, size: 0x8, addend: 0x0, symName: __MergedGlobals, symObjAddr: 0x6406E0, symBinAddr: 0x2B34A0, symSize: 0x0 }
  - { offset: 0x1B7ACB, size: 0x8, addend: 0x0, symName: __MergedGlobals, symObjAddr: 0x6406E0, symBinAddr: 0x2B34A0, symSize: 0x0 }
  - { offset: 0x1B7AE8, size: 0x8, addend: 0x0, symName: __MergedGlobals, symObjAddr: 0x6406E0, symBinAddr: 0x2B34A0, symSize: 0x0 }
  - { offset: 0x1B7B05, size: 0x8, addend: 0x0, symName: __MergedGlobals, symObjAddr: 0x6406E0, symBinAddr: 0x2B34A0, symSize: 0x0 }
  - { offset: 0x1B7B22, size: 0x8, addend: 0x0, symName: __MergedGlobals, symObjAddr: 0x6406E0, symBinAddr: 0x2B34A0, symSize: 0x0 }
  - { offset: 0x1B7B3F, size: 0x8, addend: 0x0, symName: __MergedGlobals, symObjAddr: 0x6406E0, symBinAddr: 0x2B34A0, symSize: 0x0 }
  - { offset: 0x1B7B5C, size: 0x8, addend: 0x0, symName: __MergedGlobals, symObjAddr: 0x6406E0, symBinAddr: 0x2B34A0, symSize: 0x0 }
  - { offset: 0x1B7B79, size: 0x8, addend: 0x0, symName: __MergedGlobals, symObjAddr: 0x6406E0, symBinAddr: 0x2B34A0, symSize: 0x0 }
  - { offset: 0x1B7B96, size: 0x8, addend: 0x0, symName: __MergedGlobals, symObjAddr: 0x6406E0, symBinAddr: 0x2B34A0, symSize: 0x0 }
  - { offset: 0x1B7BB4, size: 0x8, addend: 0x0, symName: __MergedGlobals, symObjAddr: 0x6406E0, symBinAddr: 0x2B34A0, symSize: 0x0 }
  - { offset: 0x1B7BE3, size: 0x8, addend: 0x0, symName: __MergedGlobals, symObjAddr: 0x6406E0, symBinAddr: 0x2B34A0, symSize: 0x0 }
  - { offset: 0x1B7C01, size: 0x8, addend: 0x0, symName: __MergedGlobals, symObjAddr: 0x6406E0, symBinAddr: 0x2B34A0, symSize: 0x0 }
  - { offset: 0x1B7C1F, size: 0x8, addend: 0x0, symName: __MergedGlobals, symObjAddr: 0x6406E0, symBinAddr: 0x2B34A0, symSize: 0x0 }
  - { offset: 0x1B7C3C, size: 0x8, addend: 0x0, symName: __MergedGlobals, symObjAddr: 0x6406E0, symBinAddr: 0x2B34A0, symSize: 0x0 }
  - { offset: 0x1B7C59, size: 0x8, addend: 0x0, symName: __MergedGlobals, symObjAddr: 0x6406E0, symBinAddr: 0x2B34A0, symSize: 0x0 }
  - { offset: 0x1B7C76, size: 0x8, addend: 0x0, symName: __MergedGlobals, symObjAddr: 0x6406E0, symBinAddr: 0x2B34A0, symSize: 0x0 }
  - { offset: 0x1B7C93, size: 0x8, addend: 0x0, symName: __MergedGlobals, symObjAddr: 0x6406E0, symBinAddr: 0x2B34A0, symSize: 0x0 }
  - { offset: 0x1BC428, size: 0x8, addend: 0x0, symName: __MergedGlobals, symObjAddr: 0x6406E0, symBinAddr: 0x2B34A0, symSize: 0x0 }
  - { offset: 0x1BC446, size: 0x8, addend: 0x0, symName: __MergedGlobals, symObjAddr: 0x6406E0, symBinAddr: 0x2B34A0, symSize: 0x0 }
  - { offset: 0x1BC464, size: 0x8, addend: 0x0, symName: __MergedGlobals, symObjAddr: 0x6406E0, symBinAddr: 0x2B34A0, symSize: 0x0 }
  - { offset: 0x1BC482, size: 0x8, addend: 0x0, symName: __MergedGlobals, symObjAddr: 0x6406E0, symBinAddr: 0x2B34A0, symSize: 0x0 }
  - { offset: 0x1BC4A0, size: 0x8, addend: 0x0, symName: __MergedGlobals, symObjAddr: 0x6406E0, symBinAddr: 0x2B34A0, symSize: 0x0 }
  - { offset: 0x1BC4BE, size: 0x8, addend: 0x0, symName: __MergedGlobals, symObjAddr: 0x6406E0, symBinAddr: 0x2B34A0, symSize: 0x0 }
  - { offset: 0x1BC4DC, size: 0x8, addend: 0x0, symName: __MergedGlobals, symObjAddr: 0x6406E0, symBinAddr: 0x2B34A0, symSize: 0x0 }
  - { offset: 0x1BC4FA, size: 0x8, addend: 0x0, symName: __MergedGlobals, symObjAddr: 0x6406E0, symBinAddr: 0x2B34A0, symSize: 0x0 }
  - { offset: 0x1BC518, size: 0x8, addend: 0x0, symName: __MergedGlobals, symObjAddr: 0x6406E0, symBinAddr: 0x2B34A0, symSize: 0x0 }
  - { offset: 0x1BC536, size: 0x8, addend: 0x0, symName: __MergedGlobals, symObjAddr: 0x6406E0, symBinAddr: 0x2B34A0, symSize: 0x0 }
  - { offset: 0x1BC554, size: 0x8, addend: 0x0, symName: __MergedGlobals, symObjAddr: 0x6406E0, symBinAddr: 0x2B34A0, symSize: 0x0 }
  - { offset: 0x1FEA3F, size: 0x8, addend: 0x0, symName: '__ZNSt3__111__introsortINS_17_ClassicAlgPolicyERZN7Phoenix26_LoadCapturesFromDirectoryERK10WDL_StringE3$_0P10NAMCaptureLb0EEEvT1_SA_T0_NS_15iterator_traitsISA_E15difference_typeEb', symObjAddr: 0x1647C, symBinAddr: 0x31978, symSize: 0x1160 }
  - { offset: 0x2020BA, size: 0x8, addend: 0x0, symName: '__ZNSt3__127__insertion_sort_incompleteB9nqe210106INS_17_ClassicAlgPolicyERZN7Phoenix26_LoadCapturesFromDirectoryERK10WDL_StringE3$_0P10NAMCaptureEEbT1_SA_T0_', symObjAddr: 0x1814C, symBinAddr: 0x33648, symSize: 0x380 }
  - { offset: 0x203D93, size: 0x8, addend: 0x0, symName: '__ZNSt3__111__introsortINS_17_ClassicAlgPolicyERZN7Phoenix20_ComputeBlendWeightsEvE3$_0PZNS2_20_ComputeBlendWeightsEvE4DistLb0EEEvT1_S7_T0_NS_15iterator_traitsIS7_E15difference_typeEb', symObjAddr: 0x184E0, symBinAddr: 0x339C8, symSize: 0xB70 }
  - { offset: 0x20549A, size: 0x8, addend: 0x0, symName: '__ZNSt3__127__insertion_sort_incompleteB9nqe210106INS_17_ClassicAlgPolicyERZN7Phoenix20_ComputeBlendWeightsEvE3$_0PZNS2_20_ComputeBlendWeightsEvE4DistEEbT1_S7_T0_', symObjAddr: 0x191D4, symBinAddr: 0x346BC, symSize: 0x354 }
  - { offset: 0x20E309, size: 0x8, addend: 0x0, symName: __ZNSt3__1plB9nqe210106IcNS_11char_traitsIcEENS_9allocatorIcEEEENS_12basic_stringIT_T0_T1_EEOS9_PKS6_, symObjAddr: 0xDA10, symBinAddr: 0x290E4, symSize: 0x5C }
  - { offset: 0x20E4BF, size: 0x8, addend: 0x0, symName: __ZNSt3__1plB9nqe210106IcNS_11char_traitsIcEENS_9allocatorIcEEEENS_12basic_stringIT_T0_T1_EEPKS6_OS9_, symObjAddr: 0xC720, symBinAddr: 0x27DF4, symSize: 0x5C }
  - { offset: 0x20E5D8, size: 0x8, addend: 0x0, symName: __ZNSt3__14endlB9nqe210106IcNS_11char_traitsIcEEEERNS_13basic_ostreamIT_T0_EES7_, symObjAddr: 0xC850, symBinAddr: 0x27F24, symSize: 0x90 }
  - { offset: 0x2119B2, size: 0x8, addend: 0x0, symName: '__ZNSt3__17__sort3B9nqe210106INS_17_ClassicAlgPolicyERZN7Phoenix26_LoadCapturesFromDirectoryERK10WDL_StringE3$_0P10NAMCaptureLi0EEEbT1_SA_SA_T0_', symObjAddr: 0x175DC, symBinAddr: 0x32AD8, symSize: 0x450 }
  - { offset: 0x212DE5, size: 0x8, addend: 0x0, symName: '__ZNSt3__17__sort5B9nqe210106INS_17_ClassicAlgPolicyERZN7Phoenix26_LoadCapturesFromDirectoryERK10WDL_StringE3$_0P10NAMCaptureLi0EEEvT1_SA_SA_SA_SA_T0_', symObjAddr: 0x17D44, symBinAddr: 0x33240, symSize: 0x408 }
  - { offset: 0x213F6F, size: 0x8, addend: 0x0, symName: '__ZNSt3__17__sort4B9nqe210106INS_17_ClassicAlgPolicyERZN7Phoenix26_LoadCapturesFromDirectoryERK10WDL_StringE3$_0P10NAMCaptureLi0EEEvT1_SA_SA_SA_T0_', symObjAddr: 0x17A2C, symBinAddr: 0x32F28, symSize: 0x318 }
  - { offset: 0x21552B, size: 0x8, addend: 0x0, symName: '__ZNSt3__17__sort5B9nqe210106INS_17_ClassicAlgPolicyERZN7Phoenix20_ComputeBlendWeightsEvE3$_0PZNS2_20_ComputeBlendWeightsEvE4DistLi0EEEvT1_S7_S7_S7_S7_T0_', symObjAddr: 0x19050, symBinAddr: 0x34538, symSize: 0x184 }
  - { offset: 0x219CA1, size: 0x8, addend: 0x0, symName: __MergedGlobals, symObjAddr: 0x6406E0, symBinAddr: 0x2B34A0, symSize: 0x0 }
  - { offset: 0x219CBE, size: 0x8, addend: 0x0, symName: __MergedGlobals, symObjAddr: 0x6406E0, symBinAddr: 0x2B34A0, symSize: 0x0 }
  - { offset: 0x219CDB, size: 0x8, addend: 0x0, symName: __MergedGlobals, symObjAddr: 0x6406E0, symBinAddr: 0x2B34A0, symSize: 0x0 }
  - { offset: 0x219CF8, size: 0x8, addend: 0x0, symName: __MergedGlobals, symObjAddr: 0x6406E0, symBinAddr: 0x2B34A0, symSize: 0x0 }
  - { offset: 0x219D15, size: 0x8, addend: 0x0, symName: __MergedGlobals, symObjAddr: 0x6406E0, symBinAddr: 0x2B34A0, symSize: 0x0 }
  - { offset: 0x219D32, size: 0x8, addend: 0x0, symName: __MergedGlobals, symObjAddr: 0x6406E0, symBinAddr: 0x2B34A0, symSize: 0x0 }
  - { offset: 0x219D4F, size: 0x8, addend: 0x0, symName: __MergedGlobals, symObjAddr: 0x6406E0, symBinAddr: 0x2B34A0, symSize: 0x0 }
  - { offset: 0x219D6C, size: 0x8, addend: 0x0, symName: __MergedGlobals, symObjAddr: 0x6406E0, symBinAddr: 0x2B34A0, symSize: 0x0 }
  - { offset: 0x219D89, size: 0x8, addend: 0x0, symName: __MergedGlobals, symObjAddr: 0x6406E0, symBinAddr: 0x2B34A0, symSize: 0x0 }
  - { offset: 0x219DA6, size: 0x8, addend: 0x0, symName: __MergedGlobals, symObjAddr: 0x6406E0, symBinAddr: 0x2B34A0, symSize: 0x0 }
  - { offset: 0x219DC3, size: 0x8, addend: 0x0, symName: __MergedGlobals, symObjAddr: 0x6406E0, symBinAddr: 0x2B34A0, symSize: 0x0 }
  - { offset: 0x219DE0, size: 0x8, addend: 0x0, symName: __MergedGlobals, symObjAddr: 0x6406E0, symBinAddr: 0x2B34A0, symSize: 0x0 }
  - { offset: 0x219DFD, size: 0x8, addend: 0x0, symName: __MergedGlobals, symObjAddr: 0x6406E0, symBinAddr: 0x2B34A0, symSize: 0x0 }
  - { offset: 0x219E0F, size: 0x8, addend: 0x0, symName: _GetPluginFactory, symObjAddr: 0x10, symBinAddr: 0x1B6E4, symSize: 0x1AC }
  - { offset: 0x219E35, size: 0x8, addend: 0x0, symName: __ZZ16GetPluginFactoryE11factoryInfo, symObjAddr: 0x34060, symBinAddr: 0x101080, symSize: 0x0 }
  - { offset: 0x219E4B, size: 0x8, addend: 0x0, symName: __ZZ16GetPluginFactoryE14componentClass, symObjAddr: 0x4C0450, symBinAddr: 0x133210, symSize: 0x0 }
  - { offset: 0x21E997, size: 0x8, addend: 0x0, symName: __MergedGlobals, symObjAddr: 0x6406E0, symBinAddr: 0x2B34A0, symSize: 0x0 }
  - { offset: 0x21E9BA, size: 0x8, addend: 0x0, symName: __MergedGlobals, symObjAddr: 0x6406E0, symBinAddr: 0x2B34A0, symSize: 0x0 }
  - { offset: 0x21E9D7, size: 0x8, addend: 0x0, symName: __MergedGlobals, symObjAddr: 0x6406E0, symBinAddr: 0x2B34A0, symSize: 0x0 }
  - { offset: 0x21E9F4, size: 0x8, addend: 0x0, symName: __MergedGlobals, symObjAddr: 0x6406E0, symBinAddr: 0x2B34A0, symSize: 0x0 }
  - { offset: 0x21EA11, size: 0x8, addend: 0x0, symName: __MergedGlobals, symObjAddr: 0x6406E0, symBinAddr: 0x2B34A0, symSize: 0x0 }
  - { offset: 0x21EA96, size: 0x8, addend: 0x0, symName: __ZTV7Phoenix, symObjAddr: 0x37478, symBinAddr: 0x11CEC0, symSize: 0x0 }
  - { offset: 0x223702, size: 0x8, addend: 0x0, symName: __ZN3dsp16LanczosResamplerIdLi1ELm6EE18sTablesInitializedE, symObjAddr: 0x4C060C, symBinAddr: 0x1333CC, symSize: 0x0 }
  - { offset: 0x22371E, size: 0x8, addend: 0x0, symName: __ZN3dsp16LanczosResamplerIdLi1ELm6EE6sTableE, symObjAddr: 0x4C0610, symBinAddr: 0x1333D0, symSize: 0x0 }
  - { offset: 0x223733, size: 0x8, addend: 0x0, symName: __ZN3dsp16LanczosResamplerIdLi1ELm6EE11sDeltaTableE, symObjAddr: 0x580670, symBinAddr: 0x1F3430, symSize: 0x0 }
  - { offset: 0x22AD57, size: 0x8, addend: 0x0, symName: __ZN8nlohmann16json_abi_v3_11_26detail6concatINSt3__112basic_stringIcNS3_11char_traitsIcEENS3_9allocatorIcEEEEJRA29_KcS9_RA5_SA_S9_EEET_DpOT0_, symObjAddr: 0x3161C, symBinAddr: 0x4B9B4, symSize: 0x130 }
  - { offset: 0x22B3AD, size: 0x8, addend: 0x0, symName: __ZN8nlohmann16json_abi_v3_11_26detail6concatINSt3__112basic_stringIcNS3_11char_traitsIcEENS3_9allocatorIcEEEEJRA39_KcS9_EEET_DpOT0_, symObjAddr: 0x3174C, symBinAddr: 0x4BAE4, symSize: 0xE0 }
  - { offset: 0x22BFE4, size: 0x8, addend: 0x0, symName: __ZN8nlohmann16json_abi_v3_11_2lsERNSt3__113basic_ostreamIcNS1_11char_traitsIcEEEERKNS0_10basic_jsonINS1_3mapENS1_6vectorENS1_12basic_stringIcS4_NS1_9allocatorIcEEEEbxydSB_NS0_14adl_serializerENS9_IhNSB_IhEEEEEE, symObjAddr: 0xF0E4, symBinAddr: 0x2A7B8, symSize: 0x354 }
  - { offset: 0x22D264, size: 0x8, addend: 0x0, symName: __ZTVN23recursive_linear_filter8HighPassE, symObjAddr: 0x37E30, symBinAddr: 0x11D878, symSize: 0x0 }
  - { offset: 0x22D279, size: 0x8, addend: 0x0, symName: __ZTV9NAMSender, symObjAddr: 0x37E78, symBinAddr: 0x11D8C0, symSize: 0x0 }
  - { offset: 0x22D28E, size: 0x8, addend: 0x0, symName: __ZTVN5iplug14IPeakAvgSenderILi1ELi64EEE, symObjAddr: 0x37ED0, symBinAddr: 0x11D918, symSize: 0x0 }
  - { offset: 0x22D2A3, size: 0x8, addend: 0x0, symName: __ZTVN5iplug7ISenderILi1ELi64ENSt3__14pairIffEEEE, symObjAddr: 0x37EE8, symBinAddr: 0x11D930, symSize: 0x0 }
  - { offset: 0x22D2BD, size: 0x8, addend: 0x0, symName: __ZL24kCalibrateInputParamName, symObjAddr: 0x342C8, symBinAddr: 0x1012E8, symSize: 0x0 }
  - { offset: 0x22D2D7, size: 0x8, addend: 0x0, symName: __ZL31kInputCalibrationLevelParamName, symObjAddr: 0x342E0, symBinAddr: 0x101300, symSize: 0x0 }
  - { offset: 0x22D2F7, size: 0x8, addend: 0x0, symName: __ZL20_PhoenixBinaryMarker, symObjAddr: 0x4C0608, symBinAddr: 0x1333C8, symSize: 0x0 }
  - { offset: 0x22D396, size: 0x8, addend: 0x0, symName: __ZTVNSt3__120__shared_ptr_emplaceIN3dsp19ResamplingContainerIdLi1ELm6EEENS_9allocatorIS3_EEEE, symObjAddr: 0x37F00, symBinAddr: 0x11D948, symSize: 0x0 }
  - { offset: 0x22D3E8, size: 0x8, addend: 0x0, symName: __ZL12kBlendValues, symObjAddr: 0x34230, symBinAddr: 0x101250, symSize: 0x0 }
  - { offset: 0x22D411, size: 0x8, addend: 0x0, symName: __ZTVNSt3__119basic_istringstreamIcNS_11char_traitsIcEENS_9allocatorIcEEEE, symObjAddr: 0x37F50, symBinAddr: 0x11D998, symSize: 0x0 }
  - { offset: 0x22D462, size: 0x8, addend: 0x0, symName: '__ZTVNSt3__110__function6__funcIZN7PhoenixC1ERKN5iplug12InstanceInfoEE3$_0FPNS3_9igraphics9IGraphicsEvEEE', symObjAddr: 0x38028, symBinAddr: 0x11DA70, symSize: 0x0 }
  - { offset: 0x22D4F2, size: 0x8, addend: 0x0, symName: '__ZTVNSt3__110__function6__funcIZN7PhoenixC1ERKN5iplug12InstanceInfoEE3$_1FvPNS3_9igraphics9IGraphicsEEEE', symObjAddr: 0x380B8, symBinAddr: 0x11DB00, symSize: 0x0 }
  - { offset: 0x22D52B, size: 0x8, addend: 0x0, symName: __ZTV20NAMBackgroundControl, symObjAddr: 0x38138, symBinAddr: 0x11DB80, symSize: 0x0 }
  - { offset: 0x22D5CB, size: 0x8, addend: 0x0, symName: __ZTV18NAMAmpImageControl, symObjAddr: 0x383A0, symBinAddr: 0x11DDE8, symSize: 0x0 }
  - { offset: 0x22D69A, size: 0x8, addend: 0x0, symName: __ZTVN5iplug9igraphics11IBitmapBaseE, symObjAddr: 0x3CD18, symBinAddr: 0x122760, symSize: 0x0 }
  - { offset: 0x22D6AF, size: 0x8, addend: 0x0, symName: __ZTV14NAMLineControl, symObjAddr: 0x38648, symBinAddr: 0x11E090, symSize: 0x0 }
  - { offset: 0x22D761, size: 0x8, addend: 0x0, symName: __ZTV15NAMMeterControl, symObjAddr: 0x388B0, symBinAddr: 0x11E2F8, symSize: 0x0 }
  - { offset: 0x22DC38, size: 0x8, addend: 0x0, symName: __ZTVN5iplug9igraphics21IVPeakAvgMeterControlILi1EEE, symObjAddr: 0x38C28, symBinAddr: 0x11E670, symSize: 0x0 }
  - { offset: 0x22DC4D, size: 0x8, addend: 0x0, symName: __ZTVN5iplug9igraphics14IVMeterControlILi1EEE, symObjAddr: 0x38F18, symBinAddr: 0x11E960, symSize: 0x0 }
  - { offset: 0x22DC62, size: 0x8, addend: 0x0, symName: __ZTVN5iplug9igraphics18IVTrackControlBaseE, symObjAddr: 0x3C968, symBinAddr: 0x1223B0, symSize: 0x0 }
  - { offset: 0x22DC77, size: 0x8, addend: 0x0, symName: __ZTVN5iplug9igraphics11IVectorBaseE, symObjAddr: 0x3D0B0, symBinAddr: 0x122AF8, symSize: 0x0 }
  - { offset: 0x22DC8C, size: 0x8, addend: 0x0, symName: __ZTV18NAMGateKnobControl, symObjAddr: 0x39208, symBinAddr: 0x11EC50, symSize: 0x0 }
  - { offset: 0x22DF51, size: 0x8, addend: 0x0, symName: __ZTV14NAMKnobControl, symObjAddr: 0x39548, symBinAddr: 0x11EF90, symSize: 0x0 }
  - { offset: 0x22DF5F, size: 0x8, addend: 0x0, symName: __ZN14NAMKnobControl11OnMouseDownEffRKN5iplug9igraphics9IMouseModE, symObjAddr: 0x24688, symBinAddr: 0x3EAD8, symSize: 0x300 }
  - { offset: 0x22DF84, size: 0x8, addend: 0x0, symName: __ZZN14NAMKnobControl11OnMouseDownEffRKN5iplug9igraphics9IMouseModEE10sLastClick.0, symObjAddr: 0x6406D0, symBinAddr: 0x2B3490, symSize: 0x0 }
  - { offset: 0x22DF9B, size: 0x8, addend: 0x0, symName: __ZZN14NAMKnobControl11OnMouseDownEffRKN5iplug9igraphics9IMouseModEE10sLastParam, symObjAddr: 0x3D108, symBinAddr: 0x12F278, symSize: 0x0 }
  - { offset: 0x22E989, size: 0x8, addend: 0x0, symName: __ZN18NAMGateKnobControl11OnMouseDownEffRKN5iplug9igraphics9IMouseModE, symObjAddr: 0x2388C, symBinAddr: 0x3DCDC, symSize: 0x488 }
  - { offset: 0x22E9AE, size: 0x8, addend: 0x0, symName: __ZZN18NAMGateKnobControl11OnMouseDownEffRKN5iplug9igraphics9IMouseModEE10sLastClick.0, symObjAddr: 0x6406D8, symBinAddr: 0x2B3498, symSize: 0x0 }
  - { offset: 0x22E9C5, size: 0x8, addend: 0x0, symName: __ZZN18NAMGateKnobControl11OnMouseDownEffRKN5iplug9igraphics9IMouseModEE10sLastParam, symObjAddr: 0x3D10C, symBinAddr: 0x12F27C, symSize: 0x0 }
  - { offset: 0x22F932, size: 0x8, addend: 0x0, symName: '__ZTVNSt3__110__function6__funcIZZN7PhoenixC1ERKN5iplug12InstanceInfoEENK3$_1clEPNS3_9igraphics9IGraphicsEEUlRK10WDL_StringSD_E_FvSD_SD_EEE', symObjAddr: 0x39838, symBinAddr: 0x11F280, symSize: 0x0 }
  - { offset: 0x22F946, size: 0x8, addend: 0x0, symName: '__ZZN7PhoenixC1ERKN5iplug12InstanceInfoEENK3$_1clEPNS0_9igraphics9IGraphicsE', symObjAddr: 0x1AD30, symBinAddr: 0x35194, symSize: 0x3E88 }
  - { offset: 0x23E1C0, size: 0x8, addend: 0x0, symName: __ZTV21NAMFileBrowserControl, symObjAddr: 0x398C8, symBinAddr: 0x11F310, symSize: 0x0 }
  - { offset: 0x23E72E, size: 0x8, addend: 0x0, symName: __ZTVN5iplug9igraphics14IContainerBaseE, symObjAddr: 0x3CD50, symBinAddr: 0x122798, symSize: 0x0 }
  - { offset: 0x23E743, size: 0x8, addend: 0x0, symName: __ZTVNSt3__110__function6__funcIPFvPN5iplug9igraphics8IControlEES6_EE, symObjAddr: 0x3CC58, symBinAddr: 0x1226A0, symSize: 0x0 }
  - { offset: 0x23E77C, size: 0x8, addend: 0x0, symName: __ZTV22NAMSquareButtonControl, symObjAddr: 0x39B30, symBinAddr: 0x11F578, symSize: 0x0 }
  - { offset: 0x23E791, size: 0x8, addend: 0x0, symName: __ZTVNSt3__110__function6__funcIZN21NAMFileBrowserControl10OnAttachedEvEUlPN5iplug9igraphics8IControlEE1_FvS6_EEE, symObjAddr: 0x39D98, symBinAddr: 0x11F7E0, symSize: 0x0 }
  - { offset: 0x23E79F, size: 0x8, addend: 0x0, symName: __ZN21NAMFileBrowserControl10OnAttachedEv, symObjAddr: 0x257C8, symBinAddr: 0x3FC18, symSize: 0xE28 }
  - { offset: 0x242B9F, size: 0x8, addend: 0x0, symName: __ZTVNSt3__110__function6__funcIZZN21NAMFileBrowserControl10OnAttachedEvENKUlPN5iplug9igraphics8IControlEE1_clES6_EUlRK10WDL_StringSA_E_FvSA_SA_EEE, symObjAddr: 0x39E08, symBinAddr: 0x11F850, symSize: 0x0 }
  - { offset: 0x242BB3, size: 0x8, addend: 0x0, symName: __ZZN21NAMFileBrowserControl10OnAttachedEvENKUlPN5iplug9igraphics8IControlEE1_clES3_, symObjAddr: 0x27768, symBinAddr: 0x41BB8, symSize: 0x1DC }
  - { offset: 0x2433FC, size: 0x8, addend: 0x0, symName: __ZTVNSt3__110__function6__funcIZN21NAMFileBrowserControl10OnAttachedEvEUlPN5iplug9igraphics8IControlEE_FvS6_EEE, symObjAddr: 0x39E98, symBinAddr: 0x11F8E0, symSize: 0x0 }
  - { offset: 0x243435, size: 0x8, addend: 0x0, symName: __ZTVNSt3__110__function6__funcIZN21NAMFileBrowserControl10OnAttachedEvEUlPN5iplug9igraphics8IControlEE0_FvS6_EEE, symObjAddr: 0x39F18, symBinAddr: 0x11F960, symSize: 0x0 }
  - { offset: 0x24346E, size: 0x8, addend: 0x0, symName: __ZTV18NAMFileNameControl, symObjAddr: 0x39F98, symBinAddr: 0x11F9E0, symSize: 0x0 }
  - { offset: 0x243483, size: 0x8, addend: 0x0, symName: __ZTVNSt3__110__function6__funcIZN21NAMFileBrowserControl10OnAttachedEvEUlPN5iplug9igraphics8IControlEE3_FvS6_EEE, symObjAddr: 0x3A260, symBinAddr: 0x11FCA8, symSize: 0x0 }
  - { offset: 0x2434BC, size: 0x8, addend: 0x0, symName: __ZTVNSt3__110__function6__funcIZN21NAMFileBrowserControl10OnAttachedEvEUlPN5iplug9igraphics8IControlEE2_FvS6_EEE, symObjAddr: 0x3A2E0, symBinAddr: 0x11FD28, symSize: 0x0 }
  - { offset: 0x2434F5, size: 0x8, addend: 0x0, symName: __ZTV19NAMGetButtonControl, symObjAddr: 0x3A360, symBinAddr: 0x11FDA8, symSize: 0x0 }
  - { offset: 0x24350A, size: 0x8, addend: 0x0, symName: __ZTVNSt3__110__function6__funcIZN19NAMGetButtonControlC1ERKN5iplug9igraphics5IRECTEPKcS9_RKNS4_4ISVGEEUlPNS4_8IControlEE_FvSE_EEE, symObjAddr: 0x3A5C8, symBinAddr: 0x120010, symSize: 0x0 }
  - { offset: 0x243570, size: 0x8, addend: 0x0, symName: __ZTVNSt3__110__function6__funcIZN5iplug9igraphics14IContainerBase4HideEbEUliPNS3_8IControlEE_FviS6_EEE, symObjAddr: 0x3CFA0, symBinAddr: 0x1229E8, symSize: 0x0 }
  - { offset: 0x24357E, size: 0x8, addend: 0x0, symName: __ZN5iplug9igraphics14IContainerBase4HideEb, symObjAddr: 0x26B98, symBinAddr: 0x40FE8, symSize: 0x180 }
  - { offset: 0x243961, size: 0x8, addend: 0x0, symName: __ZTVNSt3__110__function6__funcIZN5iplug9igraphics14IContainerBase11SetDisabledEbEUliPNS3_8IControlEE_FviS6_EEE, symObjAddr: 0x3D030, symBinAddr: 0x122A78, symSize: 0x0 }
  - { offset: 0x24396F, size: 0x8, addend: 0x0, symName: __ZN5iplug9igraphics14IContainerBase11SetDisabledEb, symObjAddr: 0x26D18, symBinAddr: 0x41168, symSize: 0x194 }
  - { offset: 0x243D52, size: 0x8, addend: 0x0, symName: '__ZTVNSt3__110__function6__funcIZZN7PhoenixC1ERKN5iplug12InstanceInfoEENK3$_1clEPNS3_9igraphics9IGraphicsEEUlRK10WDL_StringSD_E0_FvSD_SD_EEE', symObjAddr: 0x3A648, symBinAddr: 0x120090, symSize: 0x0 }
  - { offset: 0x243D8B, size: 0x8, addend: 0x0, symName: __ZTV19NAMPhaseFlipControl, symObjAddr: 0x3A6C8, symBinAddr: 0x120110, symSize: 0x0 }
  - { offset: 0x2440A6, size: 0x8, addend: 0x0, symName: __ZTV14NAMMuteControl, symObjAddr: 0x3A930, symBinAddr: 0x120378, symSize: 0x0 }
  - { offset: 0x244139, size: 0x8, addend: 0x0, symName: __ZTV15NAMDelayControl, symObjAddr: 0x3AB98, symBinAddr: 0x1205E0, symSize: 0x0 }
  - { offset: 0x24428A, size: 0x8, addend: 0x0, symName: '__ZTVNSt3__110__function6__funcIZZN7PhoenixC1ERKN5iplug12InstanceInfoEENK3$_1clEPNS3_9igraphics9IGraphicsEEUlPNS8_8IControlEE_FvSC_EEE', symObjAddr: 0x3AE00, symBinAddr: 0x120848, symSize: 0x0 }
  - { offset: 0x2442C3, size: 0x8, addend: 0x0, symName: __ZTVNSt3__110__function6__funcIZN22NAMSettingsPageControl12HideAnimatedEbEUliPN5iplug9igraphics8IControlEE_FviS6_EEE, symObjAddr: 0x3AEA0, symBinAddr: 0x1208E8, symSize: 0x0 }
  - { offset: 0x244997, size: 0x8, addend: 0x0, symName: __ZN22NAMSettingsPageControl12HideAnimatedEb, symObjAddr: 0x29D70, symBinAddr: 0x441C0, symSize: 0x238 }
  - { offset: 0x24516C, size: 0x8, addend: 0x0, symName: __ZTVNSt3__110__function6__funcIZN22NAMSettingsPageControl12HideAnimatedEbEUlPN5iplug9igraphics8IControlEE_FvS6_EEE, symObjAddr: 0x3AF20, symBinAddr: 0x120968, symSize: 0x0 }
  - { offset: 0x2451AB, size: 0x8, addend: 0x0, symName: __ZTV22NAMCircleButtonControl, symObjAddr: 0x3AFB0, symBinAddr: 0x1209F8, symSize: 0x0 }
  - { offset: 0x245243, size: 0x8, addend: 0x0, symName: __ZTV22NAMSettingsPageControl, symObjAddr: 0x3B218, symBinAddr: 0x120C60, symSize: 0x0 }
  - { offset: 0x245258, size: 0x8, addend: 0x0, symName: __ZTV31IContainerBaseWithNamedChildren, symObjAddr: 0x3B468, symBinAddr: 0x120EB0, symSize: 0x0 }
  - { offset: 0x245273, size: 0x8, addend: 0x0, symName: __ZTV16NAMSwitchControl, symObjAddr: 0x3B6B8, symBinAddr: 0x121100, symSize: 0x0 }
  - { offset: 0x2453A6, size: 0x8, addend: 0x0, symName: __ZTVN22NAMSettingsPageControl17InputLevelControlE, symObjAddr: 0x3B9D0, symBinAddr: 0x121418, symSize: 0x0 }
  - { offset: 0x2453D9, size: 0x8, addend: 0x0, symName: __ZTV19OversamplingControl, symObjAddr: 0x3BC68, symBinAddr: 0x1216B0, symSize: 0x0 }
  - { offset: 0x24547C, size: 0x8, addend: 0x0, symName: __ZTV13IRModeControl, symObjAddr: 0x3BF48, symBinAddr: 0x121990, symSize: 0x0 }
  - { offset: 0x2454FB, size: 0x8, addend: 0x0, symName: __ZTV19BlendNearestControl, symObjAddr: 0x3C228, symBinAddr: 0x121C70, symSize: 0x0 }
  - { offset: 0x24557A, size: 0x8, addend: 0x0, symName: __ZTVNSt3__110__function6__funcIZN22NAMSettingsPageControl10OnAttachedEvEUlPN5iplug9igraphics8IControlEE_FvS6_EEE, symObjAddr: 0x3C508, symBinAddr: 0x121F50, symSize: 0x0 }
  - { offset: 0x245588, size: 0x8, addend: 0x0, symName: __ZN22NAMSettingsPageControl10OnAttachedEv, symObjAddr: 0x2A60C, symBinAddr: 0x44A5C, symSize: 0x1A8C }
  - { offset: 0x24AC18, size: 0x8, addend: 0x0, symName: '__ZTVNSt3__110__function6__funcIZZN7PhoenixC1ERKN5iplug12InstanceInfoEENK3$_1clEPNS3_9igraphics9IGraphicsEEUlPNS8_8IControlEE0_FvSC_EEE', symObjAddr: 0x3C588, symBinAddr: 0x121FD0, symSize: 0x0 }
  - { offset: 0x24AC51, size: 0x8, addend: 0x0, symName: '__ZTVNSt3__110__function6__funcIZZN7PhoenixC1ERKN5iplug12InstanceInfoEENK3$_1clEPNS3_9igraphics9IGraphicsEEUlPNS8_8IControlEE1_FvSC_EEE', symObjAddr: 0x3C608, symBinAddr: 0x122050, symSize: 0x0 }
  - { offset: 0x24AC8A, size: 0x8, addend: 0x0, symName: '__ZTVNSt3__110__function6__funcIZN7Phoenix20OnParentWindowResizeEiiE3$_0FvPN5iplug9igraphics8IControlEEEE', symObjAddr: 0x3C698, symBinAddr: 0x1220E0, symSize: 0x0 }
  - { offset: 0x24AC98, size: 0x8, addend: 0x0, symName: __ZN7Phoenix20OnParentWindowResizeEii, symObjAddr: 0xB064, symBinAddr: 0x26738, symSize: 0x1BC }
  - { offset: 0x24B1D2, size: 0x8, addend: 0x0, symName: '__ZTVNSt3__110__function6__funcIZN7Phoenix9OnMessageEiiiPKvE3$_0FvPN5iplug9igraphics8IControlEEEE', symObjAddr: 0x3C718, symBinAddr: 0x122160, symSize: 0x0 }
  - { offset: 0x24B1E0, size: 0x8, addend: 0x0, symName: __ZN7Phoenix9OnMessageEiiiPKv, symObjAddr: 0xC198, symBinAddr: 0x2786C, symSize: 0x2FC }
  - { offset: 0x24BFF4, size: 0x8, addend: 0x0, symName: __ZTV13ResamplingNAM, symObjAddr: 0x3C798, symBinAddr: 0x1221E0, symSize: 0x0 }
  - { offset: 0x24C009, size: 0x8, addend: 0x0, symName: __ZTVNSt3__110__function6__funcIZN13ResamplingNAMC1ENS_10unique_ptrIN3nam3DSPENS_14default_deleteIS5_EEEEdEUlPPdSA_iE_FvSA_SA_iEEE, symObjAddr: 0x3C7F8, symBinAddr: 0x122240, symSize: 0x0 }
  - { offset: 0x24C017, size: 0x8, addend: 0x0, symName: __ZN13ResamplingNAMC2ENSt3__110unique_ptrIN3nam3DSPENS0_14default_deleteIS3_EEEEd, symObjAddr: 0x2E538, symBinAddr: 0x48988, symSize: 0x2A8 }
  - { offset: 0x24CD63, size: 0x8, addend: 0x0, symName: __ZTVNSt3__120__shared_ptr_emplaceIN8nlohmann16json_abi_v3_11_26detail21output_stream_adapterIcEENS_9allocatorIS5_EEEE, symObjAddr: 0x3C888, symBinAddr: 0x1222D0, symSize: 0x0 }
  - { offset: 0x24CDA8, size: 0x8, addend: 0x0, symName: __ZTVN8nlohmann16json_abi_v3_11_26detail21output_stream_adapterIcEE, symObjAddr: 0x3C8D8, symBinAddr: 0x122320, symSize: 0x0 }
  - { offset: 0x24DCB3, size: 0x8, addend: 0x0, symName: __ZN9Steinberg11PClassInfo2C2EPKciS2_S2_iS2_S2_S2_S2_, symObjAddr: 0x1473C, symBinAddr: 0x2FE10, symSize: 0x11C }
  - { offset: 0x24FA86, size: 0x8, addend: 0x0, symName: __ZL14createInstancePv, symObjAddr: 0x1BC, symBinAddr: 0x1B890, symSize: 0x1E80 }
  - { offset: 0x255509, size: 0x8, addend: 0x0, symName: __ZN5iplug14IPeakAvgSenderILi1ELi64EEC2Edbffff, symObjAddr: 0x1486C, symBinAddr: 0x2FF40, symSize: 0x190 }
  - { offset: 0x255DC9, size: 0x8, addend: 0x0, symName: __ZN9NAMSenderD1Ev, symObjAddr: 0x2094, symBinAddr: 0x1D768, symSize: 0x50 }
  - { offset: 0x256087, size: 0x8, addend: 0x0, symName: __ZN23recursive_linear_filter4BaseD2Ev, symObjAddr: 0x14A00, symBinAddr: 0x300D4, symSize: 0x158 }
  - { offset: 0x256A6B, size: 0x8, addend: 0x0, symName: __ZNSt3__16vectorI10NAMCaptureNS_9allocatorIS1_EEED1B9nqe210106Ev, symObjAddr: 0x20E8, symBinAddr: 0x1D7BC, symSize: 0x88 }
  - { offset: 0x256DA3, size: 0x8, addend: 0x0, symName: __ZN3dsp10noise_gate4GainD1Ev, symObjAddr: 0x2170, symBinAddr: 0x1D844, symSize: 0xEC }
  - { offset: 0x2572EE, size: 0x8, addend: 0x0, symName: __ZN3dsp10noise_gate7TriggerD2Ev, symObjAddr: 0x14B58, symBinAddr: 0x3022C, symSize: 0x154 }
  - { offset: 0x257F4E, size: 0x8, addend: 0x0, symName: __ZNSt3__16vectorINS0_IdNS_9allocatorIdEEEENS1_IS3_EEED1B9nqe210106Ev, symObjAddr: 0x225C, symBinAddr: 0x1D930, symSize: 0x74 }
  - { offset: 0x2581B4, size: 0x8, addend: 0x0, symName: __ZN13WDL_MutexLockD1Ev, symObjAddr: 0x2064, symBinAddr: 0x1D738, symSize: 0x30 }
  - { offset: 0x258239, size: 0x8, addend: 0x0, symName: __ZN9WDL_MutexD1Ev, symObjAddr: 0x203C, symBinAddr: 0x1D710, symSize: 0x28 }
  - { offset: 0x2584EB, size: 0x8, addend: 0x0, symName: __ZN23recursive_linear_filter8HighPassD1Ev, symObjAddr: 0x20E4, symBinAddr: 0x1D7B8, symSize: 0x4 }
  - { offset: 0x25850F, size: 0x8, addend: 0x0, symName: __ZN23recursive_linear_filter8HighPassD1Ev, symObjAddr: 0x20E4, symBinAddr: 0x1D7B8, symSize: 0x4 }
  - { offset: 0x25852D, size: 0x8, addend: 0x0, symName: __ZN23recursive_linear_filter8HighPassD1Ev, symObjAddr: 0x20E4, symBinAddr: 0x1D7B8, symSize: 0x4 }
  - { offset: 0x258A20, size: 0x8, addend: 0x0, symName: __ZN7PhoenixD2Ev, symObjAddr: 0x22D0, symBinAddr: 0x1D9A4, symSize: 0x4C8 }
  - { offset: 0x25B874, size: 0x8, addend: 0x0, symName: __ZN7PhoenixD1Ev, symObjAddr: 0x2798, symBinAddr: 0x1DE6C, symSize: 0x4 }
  - { offset: 0x25B898, size: 0x8, addend: 0x0, symName: __ZN7PhoenixD1Ev, symObjAddr: 0x2798, symBinAddr: 0x1DE6C, symSize: 0x4 }
  - { offset: 0x25B8C4, size: 0x8, addend: 0x0, symName: __ZThn1136_N7PhoenixD1Ev, symObjAddr: 0x279C, symBinAddr: 0x1DE70, symSize: 0x8 }
  - { offset: 0x25B907, size: 0x8, addend: 0x0, symName: __ZThn1640_N7PhoenixD1Ev, symObjAddr: 0x27A4, symBinAddr: 0x1DE78, symSize: 0x8 }
  - { offset: 0x25B94A, size: 0x8, addend: 0x0, symName: __ZN7PhoenixD0Ev, symObjAddr: 0x27AC, symBinAddr: 0x1DE80, symSize: 0x14 }
  - { offset: 0x25B9B5, size: 0x8, addend: 0x0, symName: __ZThn1136_N7PhoenixD0Ev, symObjAddr: 0x27C0, symBinAddr: 0x1DE94, symSize: 0x18 }
  - { offset: 0x25BA17, size: 0x8, addend: 0x0, symName: __ZThn1640_N7PhoenixD0Ev, symObjAddr: 0x27D8, symBinAddr: 0x1DEAC, symSize: 0x18 }
  - { offset: 0x25D193, size: 0x8, addend: 0x0, symName: __ZN7Phoenix12ProcessBlockEPPdS1_i, symObjAddr: 0x27F0, symBinAddr: 0x1DEC4, symSize: 0x3584 }
  - { offset: 0x267830, size: 0x8, addend: 0x0, symName: __ZNSt3__16vectorINS0_IdNS_9allocatorIdEEEENS1_IS3_EEE8__appendEm, symObjAddr: 0x15334, symBinAddr: 0x308B4, symSize: 0x17C }
  - { offset: 0x267CAA, size: 0x8, addend: 0x0, symName: __ZNSt3__16vectorIdNS_9allocatorIdEEE8__appendEm, symObjAddr: 0x14CAC, symBinAddr: 0x30380, symSize: 0x118 }
  - { offset: 0x26814E, size: 0x8, addend: 0x0, symName: __ZN7Phoenix14_UpdateLatencyEv, symObjAddr: 0x6580, symBinAddr: 0x21C54, symSize: 0x1B4 }
  - { offset: 0x26857D, size: 0x8, addend: 0x0, symName: __ZN7Phoenix25_UpdateAutoGainOutputKnobEv, symObjAddr: 0xBA4C, symBinAddr: 0x27120, symSize: 0x2B4 }
  - { offset: 0x268F5B, size: 0x8, addend: 0x0, symName: __ZNSt3__16vectorIdNS_9allocatorIdEEE6assignEmRKd, symObjAddr: 0xD440, symBinAddr: 0x28B14, symSize: 0x1EC }
  - { offset: 0x269468, size: 0x8, addend: 0x0, symName: __ZN5iplug14IPeakAvgSenderILi1ELi64EE12ProcessBlockEPPdiiii, symObjAddr: 0xD62C, symBinAddr: 0x28D00, symSize: 0x250 }
  - { offset: 0x269732, size: 0x8, addend: 0x0, symName: __ZN5iplug14IPeakAvgSenderILi1ELi64EE12ProcessBlockEPPdiiii, symObjAddr: 0xD62C, symBinAddr: 0x28D00, symSize: 0x250 }
  - { offset: 0x2697A7, size: 0x8, addend: 0x0, symName: __ZN5iplug14IPeakAvgSenderILi1ELi64EE12ProcessBlockEPPdiiii, symObjAddr: 0xD62C, symBinAddr: 0x28D00, symSize: 0x250 }
  - { offset: 0x269BBD, size: 0x8, addend: 0x0, symName: __ZThn1136_N7Phoenix12ProcessBlockEPPdS1_i, symObjAddr: 0x5D74, symBinAddr: 0x21448, symSize: 0x8 }
  - { offset: 0x269F9C, size: 0x8, addend: 0x0, symName: __ZN7Phoenix7OnResetEv, symObjAddr: 0x5D7C, symBinAddr: 0x21450, symSize: 0x804 }
  - { offset: 0x26BA05, size: 0x8, addend: 0x0, symName: __ZNSt3__16vectorIfNS_9allocatorIfEEE8__appendEm, symObjAddr: 0x2DEA0, symBinAddr: 0x482F0, symSize: 0x118 }
  - { offset: 0x26BEA7, size: 0x8, addend: 0x0, symName: '__ZZN7Phoenix16_ResetModelAndIREdiENK3$_1clERNSt3__110unique_ptrIN3dsp15ImpulseResponseENS1_14default_deleteIS4_EEEES8_', symObjAddr: 0xC500, symBinAddr: 0x27BD4, symSize: 0x220 }
  - { offset: 0x26CC1A, size: 0x8, addend: 0x0, symName: __ZThn1136_N7Phoenix7OnResetEv, symObjAddr: 0x6734, symBinAddr: 0x21E08, symSize: 0x8 }
  - { offset: 0x26CECB, size: 0x8, addend: 0x0, symName: __ZN7Phoenix6OnIdleEv, symObjAddr: 0x673C, symBinAddr: 0x21E10, symSize: 0x3A0 }
  - { offset: 0x26DF56, size: 0x8, addend: 0x0, symName: __ZNK7Phoenix14SerializeStateERN5iplug10IByteChunkE, symObjAddr: 0x6ADC, symBinAddr: 0x221B0, symSize: 0x44C }
  - { offset: 0x2707E0, size: 0x8, addend: 0x0, symName: __ZN7Phoenix16UnserializeStateERKN5iplug10IByteChunkEi, symObjAddr: 0x6F28, symBinAddr: 0x225FC, symSize: 0x10BC }
  - { offset: 0x274634, size: 0x8, addend: 0x0, symName: __Z22_GetConfigFrom_EarlierRKN5iplug10IByteChunkEiRN8nlohmann16json_abi_v3_11_210basic_jsonINSt3__13mapENS6_6vectorENS6_12basic_stringIcNS6_11char_traitsIcEENS6_9allocatorIcEEEEbxydSC_NS4_14adl_serializerENS8_IhNSC_IhEEEEEE, symObjAddr: 0x1201C, symBinAddr: 0x2D6F0, symSize: 0x3B0 }
  - { offset: 0x275C54, size: 0x8, addend: 0x0, symName: __ZN7Phoenix23_UnserializeApplyConfigERN8nlohmann16json_abi_v3_11_210basic_jsonINSt3__13mapENS3_6vectorENS3_12basic_stringIcNS3_11char_traitsIcEENS3_9allocatorIcEEEEbxydS9_NS1_14adl_serializerENS5_IhNS9_IhEEEEEE, symObjAddr: 0xDADC, symBinAddr: 0x291B0, symSize: 0x1490 }
  - { offset: 0x27AD80, size: 0x8, addend: 0x0, symName: __Z38_UnserializePathsAndExpectedKeys_0_9_0RKN5iplug10IByteChunkEiRN8nlohmann16json_abi_v3_11_210basic_jsonINSt3__13mapENS6_6vectorENS6_12basic_stringIcNS6_11char_traitsIcEENS6_9allocatorIcEEEEbxydSC_NS4_14adl_serializerENS8_IhNSC_IhEEEEEERNS8_ISE_NSC_ISE_EEEE, symObjAddr: 0xFF60, symBinAddr: 0x2B634, symSize: 0x890 }
  - { offset: 0x27D66C, size: 0x8, addend: 0x0, symName: __Z20_GetConfigFrom_0_9_0RKN5iplug10IByteChunkEiRN8nlohmann16json_abi_v3_11_210basic_jsonINSt3__13mapENS6_6vectorENS6_12basic_stringIcNS6_11char_traitsIcEENS6_9allocatorIcEEEEbxydSC_NS4_14adl_serializerENS8_IhNSC_IhEEEEEE, symObjAddr: 0x107F0, symBinAddr: 0x2BEC4, symSize: 0x27C }
  - { offset: 0x27DC15, size: 0x8, addend: 0x0, symName: __Z21_GetConfigFrom_0_7_12RKN5iplug10IByteChunkEiRN8nlohmann16json_abi_v3_11_210basic_jsonINSt3__13mapENS6_6vectorENS6_12basic_stringIcNS6_11char_traitsIcEENS6_9allocatorIcEEEEbxydSC_NS4_14adl_serializerENS8_IhNSC_IhEEEEEE, symObjAddr: 0x118C4, symBinAddr: 0x2CF98, symSize: 0x248 }
  - { offset: 0x27E1CE, size: 0x8, addend: 0x0, symName: __Z20_GetConfigFrom_0_8_0RKN5iplug10IByteChunkEiRN8nlohmann16json_abi_v3_11_210basic_jsonINSt3__13mapENS6_6vectorENS6_12basic_stringIcNS6_11char_traitsIcEENS6_9allocatorIcEEEEbxydSC_NS4_14adl_serializerENS8_IhNSC_IhEEEEEE, symObjAddr: 0x10B48, symBinAddr: 0x2C21C, symSize: 0xA90 }
  - { offset: 0x28184E, size: 0x8, addend: 0x0, symName: __Z21_GetConfigFrom_0_7_10RKN5iplug10IByteChunkEiRN8nlohmann16json_abi_v3_11_210basic_jsonINSt3__13mapENS6_6vectorENS6_12basic_stringIcNS6_11char_traitsIcEENS6_9allocatorIcEEEEbxydSC_NS4_14adl_serializerENS8_IhNSC_IhEEEEEE, symObjAddr: 0x11E40, symBinAddr: 0x2D514, symSize: 0x1DC }
  - { offset: 0x281E0D, size: 0x8, addend: 0x0, symName: __ZNSt3__16vectorINS_12basic_stringIcNS_11char_traitsIcEENS_9allocatorIcEEEENS4_IS6_EEED1B9nqe210106Ev, symObjAddr: 0xDA6C, symBinAddr: 0x29140, symSize: 0x70 }
  - { offset: 0x282051, size: 0x8, addend: 0x0, symName: __ZNSt3__128__exception_guard_exceptionsINS_6vectorINS_12basic_stringIcNS_11char_traitsIcEENS_9allocatorIcEEEENS5_IS7_EEE16__destroy_vectorEED1B9nqe210106Ev, symObjAddr: 0x1A598, symBinAddr: 0x34A10, symSize: 0x80 }
  - { offset: 0x2822A7, size: 0x8, addend: 0x0, symName: __ZNSt3__128__exception_guard_exceptionsINS_29_AllocatorDestroyRangeReverseINS_9allocatorINS_12basic_stringIcNS_11char_traitsIcEENS2_IcEEEEEEPS7_EEED1B9nqe210106Ev, symObjAddr: 0x1A618, symBinAddr: 0x34A90, symSize: 0x5C }
  - { offset: 0x282467, size: 0x8, addend: 0x0, symName: __ZNSt3__119basic_istringstreamIcNS_11char_traitsIcEENS_9allocatorIcEEED1Ev, symObjAddr: 0x1A674, symBinAddr: 0x34AEC, symSize: 0x88 }
  - { offset: 0x282C72, size: 0x8, addend: 0x0, symName: __ZN7Phoenix8OnUIOpenEv, symObjAddr: 0x7FE4, symBinAddr: 0x236B8, symSize: 0xF70 }
  - { offset: 0x2877D7, size: 0x8, addend: 0x0, symName: __ZNSt3__14__fs10filesystem4pathdVB9nqe210106ERKS2_, symObjAddr: 0x14F04, symBinAddr: 0x30498, symSize: 0xE8 }
  - { offset: 0x287A24, size: 0x8, addend: 0x0, symName: __ZN10WDL_String12SetFormattedEiPKcz, symObjAddr: 0x8F54, symBinAddr: 0x24628, symSize: 0x84 }
  - { offset: 0x287B38, size: 0x8, addend: 0x0, symName: __ZN7Phoenix26_LoadCapturesFromDirectoryERK10WDL_String, symObjAddr: 0x8FD8, symBinAddr: 0x246AC, symSize: 0x208C }
  - { offset: 0x292A84, size: 0x8, addend: 0x0, symName: __ZN13ResamplingNAM21SetOversamplingFactorEid, symObjAddr: 0xD280, symBinAddr: 0x28954, symSize: 0x1C0 }
  - { offset: 0x2933DE, size: 0x8, addend: 0x0, symName: __ZNSt3__16vectorI10NAMCaptureNS_9allocatorIS1_EEE24__emplace_back_slow_pathIJS1_EEEPS1_DpOT_, symObjAddr: 0x151AC, symBinAddr: 0x30740, symSize: 0x174 }
  - { offset: 0x293B74, size: 0x8, addend: 0x0, symName: __ZNSt3__112basic_stringIcNS_11char_traitsIcEENS_9allocatorIcEEE26__erase_external_with_moveEmm, symObjAddr: 0x163E4, symBinAddr: 0x318E0, symSize: 0x98 }
  - { offset: 0x293D94, size: 0x8, addend: 0x0, symName: __ZNSt3__112basic_stringIcNS_11char_traitsIcEENS_9allocatorIcEEE20__throw_out_of_rangeB9nqe210106Ev, symObjAddr: 0x14FEC, symBinAddr: 0x30580, symSize: 0x14 }
  - { offset: 0x293DA8, size: 0x8, addend: 0x0, symName: __ZNSt3__16vectorINS_12basic_stringIcNS_11char_traitsIcEENS_9allocatorIcEEEENS4_IS6_EEE9push_backB9nqe210106EOS6_, symObjAddr: 0xD8D8, symBinAddr: 0x28FAC, symSize: 0x138 }
  - { offset: 0x294276, size: 0x8, addend: 0x0, symName: __ZNSt3__14__fs10filesystem18directory_iteratorD1B9nqe210106Ev, symObjAddr: 0xD87C, symBinAddr: 0x28F50, symSize: 0x5C }
  - { offset: 0x2945AD, size: 0x8, addend: 0x0, symName: __ZNK7Phoenix21ConstrainEditorResizeERiS0_, symObjAddr: 0xB220, symBinAddr: 0x268F4, symSize: 0x98 }
  - { offset: 0x29478C, size: 0x8, addend: 0x0, symName: __ZN7Phoenix13OnParamChangeEi, symObjAddr: 0xB2B8, symBinAddr: 0x2698C, symSize: 0x794 }
  - { offset: 0x296539, size: 0x8, addend: 0x0, symName: __ZN7Phoenix15OnParamChangeUIEiN5iplug12EParamSourceE, symObjAddr: 0xBD00, symBinAddr: 0x273D4, symSize: 0x498 }
  - { offset: 0x29786E, size: 0x8, addend: 0x0, symName: __ZNSt3__16vectorI10NAMCaptureNS_9allocatorIS1_EEE5clearB9nqe210106Ev, symObjAddr: 0xC494, symBinAddr: 0x27B68, symSize: 0x6C }
  - { offset: 0x297B6E, size: 0x8, addend: 0x0, symName: __ZN10WDL_StringaSERKS_, symObjAddr: 0xC77C, symBinAddr: 0x27E50, symSize: 0xD4 }
  - { offset: 0x297DF2, size: 0x8, addend: 0x0, symName: __ZN7Phoenix8_StageIRERK10WDL_String, symObjAddr: 0xC8E0, symBinAddr: 0x27FB4, symSize: 0x588 }
  - { offset: 0x29904E, size: 0x8, addend: 0x0, symName: __ZN7Phoenix9_StageIR2ERK10WDL_String, symObjAddr: 0xCE68, symBinAddr: 0x2853C, symSize: 0x418 }
  - { offset: 0x29A303, size: 0x8, addend: 0x0, symName: __ZN3dsp19ResamplingContainerIdLi1ELm6EE5ResetEdi, symObjAddr: 0x154C4, symBinAddr: 0x30A30, symSize: 0x60C }
  - { offset: 0x29BE64, size: 0x8, addend: 0x0, symName: __ZNK8nlohmann16json_abi_v3_11_26detail9iter_implINS0_10basic_jsonINSt3__13mapENS4_6vectorENS4_12basic_stringIcNS4_11char_traitsIcEENS4_9allocatorIcEEEEbxydSA_NS0_14adl_serializerENS6_IhNSA_IhEEEEEEEdeEv, symObjAddr: 0xEF6C, symBinAddr: 0x2A640, symSize: 0x178 }
  - { offset: 0x29C2B9, size: 0x8, addend: 0x0, symName: __ZNK8nlohmann16json_abi_v3_11_210basic_jsonINSt3__13mapENS2_6vectorENS2_12basic_stringIcNS2_11char_traitsIcEENS2_9allocatorIcEEEEbxydS8_NS0_14adl_serializerENS4_IhNS8_IhEEEEE5valueIRA1_KcRA7_SG_SA_Li0EEET1_OT0_OT_, symObjAddr: 0xF4B4, symBinAddr: 0x2AB88, symSize: 0x228 }
  - { offset: 0x29CB5F, size: 0x8, addend: 0x0, symName: __ZN8nlohmann16json_abi_v3_11_210basic_jsonINSt3__13mapENS2_6vectorENS2_12basic_stringIcNS2_11char_traitsIcEENS2_9allocatorIcEEEEbxydS8_NS0_14adl_serializerENS4_IhNS8_IhEEEEEixIKcEERSE_PT_, symObjAddr: 0xF6DC, symBinAddr: 0x2ADB0, symSize: 0x108 }
  - { offset: 0x29D006, size: 0x8, addend: 0x0, symName: __ZNSt3__112basic_stringIcNS_11char_traitsIcEENS_9allocatorIcEEE17__assign_externalEPKc, symObjAddr: 0x15000, symBinAddr: 0x30594, symSize: 0x34 }
  - { offset: 0x29D7B9, size: 0x8, addend: 0x0, symName: __ZN8nlohmann16json_abi_v3_11_26detail10serializerINS0_10basic_jsonINSt3__13mapENS4_6vectorENS4_12basic_stringIcNS4_11char_traitsIcEENS4_9allocatorIcEEEEbxydSA_NS0_14adl_serializerENS6_IhNSA_IhEEEEEEE4dumpERKSG_bbjj, symObjAddr: 0x2F618, symBinAddr: 0x499B0, symSize: 0x1804 }
  - { offset: 0x29FC5F, size: 0x8, addend: 0x0, symName: __ZN8nlohmann16json_abi_v3_11_26detail10serializerINS0_10basic_jsonINSt3__13mapENS4_6vectorENS4_12basic_stringIcNS4_11char_traitsIcEENS4_9allocatorIcEEEEbxydSA_NS0_14adl_serializerENS6_IhNSA_IhEEEEEEED1Ev, symObjAddr: 0x30E1C, symBinAddr: 0x4B1B4, symSize: 0x78 }
  - { offset: 0x29FE2D, size: 0x8, addend: 0x0, symName: __ZN5iplug15IEditorDelegate12OnParamResetENS_12EParamSourceE, symObjAddr: 0xF438, symBinAddr: 0x2AB0C, symSize: 0x7C }
  - { offset: 0x29FE59, size: 0x8, addend: 0x0, symName: __ZN5iplug15IEditorDelegate12OnParamResetENS_12EParamSourceE, symObjAddr: 0xF438, symBinAddr: 0x2AB0C, symSize: 0x7C }
  - { offset: 0x2A05B9, size: 0x8, addend: 0x0, symName: __Z32_UnserializePathsAndExpectedKeysRKN5iplug10IByteChunkEiRN8nlohmann16json_abi_v3_11_210basic_jsonINSt3__13mapENS6_6vectorENS6_12basic_stringIcNS6_11char_traitsIcEENS6_9allocatorIcEEEEbxydSC_NS4_14adl_serializerENS8_IhNSC_IhEEEEEERNS8_ISE_NSC_ISE_EEEE, symObjAddr: 0xF7E4, symBinAddr: 0x2AEB8, symSize: 0x520 }
  - { offset: 0x2A1FD6, size: 0x8, addend: 0x0, symName: __Z11_RenameKeysRN8nlohmann16json_abi_v3_11_210basic_jsonINSt3__13mapENS2_6vectorENS2_12basic_stringIcNS2_11char_traitsIcEENS2_9allocatorIcEEEEbxydS8_NS0_14adl_serializerENS4_IhNS8_IhEEEEEENS2_13unordered_mapISA_SA_NS2_4hashISA_EENS2_8equal_toISA_EENS8_INS2_4pairIKSA_SA_EEEEEE, symObjAddr: 0xFD04, symBinAddr: 0x2B3D8, symSize: 0x25C }
  - { offset: 0x2A2870, size: 0x8, addend: 0x0, symName: __ZNSt3__14pairIKNS_12basic_stringIcNS_11char_traitsIcEENS_9allocatorIcEEEES6_ED1Ev, symObjAddr: 0x10A6C, symBinAddr: 0x2C140, symSize: 0x58 }
  - { offset: 0x2A2E6D, size: 0x8, addend: 0x0, symName: __ZNSt3__113unordered_mapINS_12basic_stringIcNS_11char_traitsIcEENS_9allocatorIcEEEES6_NS_4hashIS6_EENS_8equal_toIS6_EENS4_INS_4pairIKS6_S6_EEEEED1B9nqe210106Ev, symObjAddr: 0x10AC4, symBinAddr: 0x2C198, symSize: 0x84 }
  - { offset: 0x2A35FE, size: 0x8, addend: 0x0, symName: __ZNSt3__112__hash_tableINS_17__hash_value_typeINS_12basic_stringIcNS_11char_traitsIcEENS_9allocatorIcEEEES7_EENS_22__unordered_map_hasherIS7_NS_4pairIKS7_S7_EENS_4hashIS7_EENS_8equal_toIS7_EELb1EEENS_21__unordered_map_equalIS7_SC_SG_SE_Lb1EEENS5_ISC_EEE25__emplace_unique_key_argsIS7_JRKSC_EEENSA_INS_15__hash_iteratorIPNS_11__hash_nodeIS8_PvEEEEbEERKT_DpOT0_, symObjAddr: 0x31AB8, symBinAddr: 0x4BBC4, symSize: 0x414 }
  - { offset: 0x2A3FCE, size: 0x8, addend: 0x0, symName: __ZNSt3__113unordered_mapINS_12basic_stringIcNS_11char_traitsIcEENS_9allocatorIcEEEES6_NS_4hashIS6_EENS_8equal_toIS6_EENS4_INS_4pairIKS6_S6_EEEEEC2ERKSF_, symObjAddr: 0x320C4, symBinAddr: 0x4C1D0, symSize: 0x134 }
  - { offset: 0x2A4822, size: 0x8, addend: 0x0, symName: __Z24_UpdateConfigFrom_0_7_12RN8nlohmann16json_abi_v3_11_210basic_jsonINSt3__13mapENS2_6vectorENS2_12basic_stringIcNS2_11char_traitsIcEENS2_9allocatorIcEEEEbxydS8_NS0_14adl_serializerENS4_IhNS8_IhEEEEEE, symObjAddr: 0x115D8, symBinAddr: 0x2CCAC, symSize: 0x2EC }
  - { offset: 0x2A5ED0, size: 0x8, addend: 0x0, symName: __Z24_UpdateConfigFrom_0_7_10RN8nlohmann16json_abi_v3_11_210basic_jsonINSt3__13mapENS2_6vectorENS2_12basic_stringIcNS2_11char_traitsIcEENS2_9allocatorIcEEEEbxydS8_NS0_14adl_serializerENS4_IhNS8_IhEEEEEE, symObjAddr: 0x11B0C, symBinAddr: 0x2D1E0, symSize: 0x334 }
  - { offset: 0x2A77E3, size: 0x8, addend: 0x0, symName: __ZN5iplug15IEditorDelegate9OnUICloseEv, symObjAddr: 0x123CC, symBinAddr: 0x2DAA0, symSize: 0x4 }
  - { offset: 0x2A7808, size: 0x8, addend: 0x0, symName: __ZN5iplug15IEditorDelegate13OnParamChangeEiNS_12EParamSourceEi, symObjAddr: 0x123D0, symBinAddr: 0x2DAA4, symSize: 0xC }
  - { offset: 0x2A7865, size: 0x8, addend: 0x0, symName: __ZN5iplug15IEditorDelegate11OnMidiMsgUIERKNS_8IMidiMsgE, symObjAddr: 0x123DC, symBinAddr: 0x2DAB0, symSize: 0x4 }
  - { offset: 0x2A7898, size: 0x8, addend: 0x0, symName: __ZN5iplug15IEditorDelegate12OnSysexMsgUIERKNS_6ISysExE, symObjAddr: 0x123E0, symBinAddr: 0x2DAB4, symSize: 0x4 }
  - { offset: 0x2A78CB, size: 0x8, addend: 0x0, symName: __ZN5iplug15IEditorDelegate14OnRestoreStateEv, symObjAddr: 0x123E4, symBinAddr: 0x2DAB8, symSize: 0xD4 }
  - { offset: 0x2A78F5, size: 0x8, addend: 0x0, symName: __ZN5iplug15IEditorDelegate14OnRestoreStateEv, symObjAddr: 0x123E4, symBinAddr: 0x2DAB8, symSize: 0xD4 }
  - { offset: 0x2A7910, size: 0x8, addend: 0x0, symName: __ZN5iplug15IEditorDelegate14OnRestoreStateEv, symObjAddr: 0x123E4, symBinAddr: 0x2DAB8, symSize: 0xD4 }
  - { offset: 0x2A7BA0, size: 0x8, addend: 0x0, symName: __ZN5iplug15IEditorDelegate28SendArbitraryMsgFromDelegateEiiPKv, symObjAddr: 0x124B8, symBinAddr: 0x2DB8C, symSize: 0x18 }
  - { offset: 0x2A7BFF, size: 0x8, addend: 0x0, symName: __ZN5iplug15IEditorDelegate24SendSysexMsgFromDelegateERKNS_6ISysExE, symObjAddr: 0x124D0, symBinAddr: 0x2DBA4, symSize: 0xC }
  - { offset: 0x2A7C3E, size: 0x8, addend: 0x0, symName: __ZN5iplug12IPlugAPIBase34BeginInformHostOfParamChangeFromUIEi, symObjAddr: 0x124DC, symBinAddr: 0x2DBB0, symSize: 0xC }
  - { offset: 0x2A7C7D, size: 0x8, addend: 0x0, symName: __ZN5iplug12IPlugAPIBase32EndInformHostOfParamChangeFromUIEi, symObjAddr: 0x124E8, symBinAddr: 0x2DBBC, symSize: 0xC }
  - { offset: 0x2A7D56, size: 0x8, addend: 0x0, symName: __ZN5iplug12IPlugAPIBase12DeferMidiMsgERKNS_8IMidiMsgE, symObjAddr: 0x124F4, symBinAddr: 0x2DBC8, symSize: 0x4C }
  - { offset: 0x2A7D8C, size: 0x8, addend: 0x0, symName: __ZN5iplug12IPlugAPIBase12DeferMidiMsgERKNS_8IMidiMsgE, symObjAddr: 0x124F4, symBinAddr: 0x2DBC8, symSize: 0x4C }
  - { offset: 0x2A7DC8, size: 0x8, addend: 0x0, symName: __ZN5iplug12IPlugAPIBase12DeferMidiMsgERKNS_8IMidiMsgE, symObjAddr: 0x124F4, symBinAddr: 0x2DBC8, symSize: 0x4C }
  - { offset: 0x2A7DEF, size: 0x8, addend: 0x0, symName: __ZN5iplug12IPlugAPIBase12DeferMidiMsgERKNS_8IMidiMsgE, symObjAddr: 0x124F4, symBinAddr: 0x2DBC8, symSize: 0x4C }
  - { offset: 0x2A80B6, size: 0x8, addend: 0x0, symName: __ZN5iplug12IPlugAPIBase13DeferSysexMsgERKNS_6ISysExE, symObjAddr: 0x12540, symBinAddr: 0x2DC14, symSize: 0x118 }
  - { offset: 0x2A837A, size: 0x8, addend: 0x0, symName: __ZN5iplug9igraphics16IGEditorDelegate14CreateGraphicsEv, symObjAddr: 0x12658, symBinAddr: 0x2DD2C, symSize: 0x18 }
  - { offset: 0x2A83A4, size: 0x8, addend: 0x0, symName: __ZN5iplug9igraphics16IGEditorDelegate14CreateGraphicsEv, symObjAddr: 0x12658, symBinAddr: 0x2DD2C, symSize: 0x18 }
  - { offset: 0x2A83C3, size: 0x8, addend: 0x0, symName: __ZN5iplug9igraphics16IGEditorDelegate14CreateGraphicsEv, symObjAddr: 0x12658, symBinAddr: 0x2DD2C, symSize: 0x18 }
  - { offset: 0x2A849A, size: 0x8, addend: 0x0, symName: __ZN5iplug9igraphics16IGEditorDelegate8LayoutUIEPNS0_9IGraphicsE, symObjAddr: 0x12670, symBinAddr: 0x2DD44, symSize: 0x34 }
  - { offset: 0x2A84D4, size: 0x8, addend: 0x0, symName: __ZN5iplug9igraphics16IGEditorDelegate8LayoutUIEPNS0_9IGraphicsE, symObjAddr: 0x12670, symBinAddr: 0x2DD44, symSize: 0x34 }
  - { offset: 0x2A84F4, size: 0x8, addend: 0x0, symName: __ZN5iplug9igraphics16IGEditorDelegate8LayoutUIEPNS0_9IGraphicsE, symObjAddr: 0x12670, symBinAddr: 0x2DD44, symSize: 0x34 }
  - { offset: 0x2A8560, size: 0x8, addend: 0x0, symName: __ZNK5iplug11IPluginBase23SerializeVST3CtrlrStateERNS_10IByteChunkE, symObjAddr: 0x126A4, symBinAddr: 0x2DD78, symSize: 0x8 }
  - { offset: 0x2A8595, size: 0x8, addend: 0x0, symName: __ZN5iplug11IPluginBase25UnserializeVST3CtrlrStateERKNS_10IByteChunkEi, symObjAddr: 0x126AC, symBinAddr: 0x2DD80, symSize: 0x8 }
  - { offset: 0x2A85DA, size: 0x8, addend: 0x0, symName: __ZN5iplug9IPlugVST324InformHostOfPresetChangeEv, symObjAddr: 0x126B4, symBinAddr: 0x2DD88, symSize: 0x4 }
  - { offset: 0x2A85FF, size: 0x8, addend: 0x0, symName: __ZN5iplug11IPluginBase17OnPresetsModifiedEv, symObjAddr: 0x126B8, symBinAddr: 0x2DD8C, symSize: 0x4 }
  - { offset: 0x2A8624, size: 0x8, addend: 0x0, symName: __ZN5iplug12IPlugAPIBase24OnHostRequestingAboutBoxEv, symObjAddr: 0x126BC, symBinAddr: 0x2DD90, symSize: 0x8 }
  - { offset: 0x2A864B, size: 0x8, addend: 0x0, symName: __ZN5iplug12IPlugAPIBase27OnHostRequestingProductHelpEv, symObjAddr: 0x126C4, symBinAddr: 0x2DD98, symSize: 0x8 }
  - { offset: 0x2A8672, size: 0x8, addend: 0x0, symName: __ZN5iplug12IPlugAPIBase16OnHostIdentifiedEv, symObjAddr: 0x126CC, symBinAddr: 0x2DDA0, symSize: 0x4 }
  - { offset: 0x2A8697, size: 0x8, addend: 0x0, symName: __ZN7Phoenix42OnHostRequestingSupportedViewConfigurationEii, symObjAddr: 0x126D0, symBinAddr: 0x2DDA4, symSize: 0x8 }
  - { offset: 0x2A86D4, size: 0x8, addend: 0x0, symName: __ZN5iplug12IPlugAPIBase31OnHostSelectedViewConfigurationEii, symObjAddr: 0x126D8, symBinAddr: 0x2DDAC, symSize: 0x4 }
  - { offset: 0x2A8715, size: 0x8, addend: 0x0, symName: __ZNK5iplug12IPlugAPIBase15GetMidiNoteTextEiPc, symObjAddr: 0x126DC, symBinAddr: 0x2DDB0, symSize: 0xC }
  - { offset: 0x2A8758, size: 0x8, addend: 0x0, symName: __ZN5iplug12IPlugAPIBase19GetAAXViewInterfaceEv, symObjAddr: 0x126E8, symBinAddr: 0x2DDBC, symSize: 0x8 }
  - { offset: 0x2A8782, size: 0x8, addend: 0x0, symName: __ZN5iplug12IPlugAPIBase19GetAAXViewInterfaceEv, symObjAddr: 0x126E8, symBinAddr: 0x2DDBC, symSize: 0x8 }
  - { offset: 0x2A879F, size: 0x8, addend: 0x0, symName: __ZN5iplug12IPlugAPIBase19GetAAXViewInterfaceEv, symObjAddr: 0x126E8, symBinAddr: 0x2DDBC, symSize: 0x8 }
  - { offset: 0x2A87BE, size: 0x8, addend: 0x0, symName: __ZN5iplug9IPlugVST313GetTrackColorERiS1_S1_, symObjAddr: 0x126F0, symBinAddr: 0x2DDC4, symSize: 0x1C }
  - { offset: 0x2A880D, size: 0x8, addend: 0x0, symName: __ZN5iplug9IPlugVST312GetTrackNameER10WDL_String, symObjAddr: 0x1270C, symBinAddr: 0x2DDE0, symSize: 0xD0 }
  - { offset: 0x2A89AB, size: 0x8, addend: 0x0, symName: __ZN5iplug9IPlugVST313GetTrackIndexEv, symObjAddr: 0x127DC, symBinAddr: 0x2DEB0, symSize: 0x8 }
  - { offset: 0x2A89D2, size: 0x8, addend: 0x0, symName: __ZN5iplug9IPlugVST317GetTrackNamespaceER10WDL_String, symObjAddr: 0x127E4, symBinAddr: 0x2DEB8, symSize: 0xD0 }
  - { offset: 0x2A8B70, size: 0x8, addend: 0x0, symName: __ZN5iplug9IPlugVST322GetTrackNamespaceIndexEv, symObjAddr: 0x128B4, symBinAddr: 0x2DF88, symSize: 0x8 }
  - { offset: 0x2A8B97, size: 0x8, addend: 0x0, symName: __ZN5iplug12IPlugAPIBase16HostSpecificInitEv, symObjAddr: 0x128BC, symBinAddr: 0x2DF90, symSize: 0x4 }
  - { offset: 0x2A8BBC, size: 0x8, addend: 0x0, symName: __ZN5iplug12IPlugAPIBase28TransmitMidiMsgFromProcessorERKNS_8IMidiMsgE, symObjAddr: 0x128C0, symBinAddr: 0x2DF94, symSize: 0x4 }
  - { offset: 0x2A8BEF, size: 0x8, addend: 0x0, symName: __ZN5iplug12IPlugAPIBase30TransmitSysExDataFromProcessorERKNS_9SysExDataE, symObjAddr: 0x128C4, symBinAddr: 0x2DF98, symSize: 0x4 }
  - { offset: 0x2A8C22, size: 0x8, addend: 0x0, symName: __ZN5iplug9IPlugVST317getLatencySamplesEv, symObjAddr: 0x128C8, symBinAddr: 0x2DF9C, symSize: 0x8 }
  - { offset: 0x2A8C48, size: 0x8, addend: 0x0, symName: __ZN5iplug9IPlugVST317getLatencySamplesEv, symObjAddr: 0x128C8, symBinAddr: 0x2DF9C, symSize: 0x8 }
  - { offset: 0x2A8CAC, size: 0x8, addend: 0x0, symName: __ZN5iplug9IPlugVST314getProgramNameEiiPDs, symObjAddr: 0x128D0, symBinAddr: 0x2DFA4, symSize: 0x88 }
  - { offset: 0x2A8E07, size: 0x8, addend: 0x0, symName: __ZN5iplug9IPlugVST319getProgramListCountEv, symObjAddr: 0x12958, symBinAddr: 0x2E02C, symSize: 0x8 }
  - { offset: 0x2A8E2E, size: 0x8, addend: 0x0, symName: __ZN5iplug9IPlugVST318getProgramListInfoEiRN9Steinberg3Vst15ProgramListInfoE, symObjAddr: 0x12960, symBinAddr: 0x2E034, symSize: 0x8 }
  - { offset: 0x2A8E71, size: 0x8, addend: 0x0, symName: __ZNK5iplug9IPlugVST33isAEv, symObjAddr: 0x12968, symBinAddr: 0x2E03C, symSize: 0xC }
  - { offset: 0x2A8E98, size: 0x8, addend: 0x0, symName: __ZNK5iplug9IPlugVST33isAEPKc, symObjAddr: 0x12974, symBinAddr: 0x2E048, symSize: 0x10 }
  - { offset: 0x2A8FF0, size: 0x8, addend: 0x0, symName: __ZNK5iplug9IPlugVST38isTypeOfEPKcb, symObjAddr: 0x12984, symBinAddr: 0x2E058, symSize: 0xC8 }
  - { offset: 0x2A903A, size: 0x8, addend: 0x0, symName: __ZNK5iplug9IPlugVST38isTypeOfEPKcb, symObjAddr: 0x12984, symBinAddr: 0x2E058, symSize: 0xC8 }
  - { offset: 0x2A9238, size: 0x8, addend: 0x0, symName: __ZN5iplug9IPlugVST314queryInterfaceEPKcPPv, symObjAddr: 0x12A4C, symBinAddr: 0x2E120, symSize: 0x1DC }
  - { offset: 0x2A93F8, size: 0x8, addend: 0x0, symName: __ZN5iplug9IPlugVST36addRefEv, symObjAddr: 0x12C28, symBinAddr: 0x2E2FC, symSize: 0x14 }
  - { offset: 0x2A941E, size: 0x8, addend: 0x0, symName: __ZN5iplug9IPlugVST36addRefEv, symObjAddr: 0x12C28, symBinAddr: 0x2E2FC, symSize: 0x14 }
  - { offset: 0x2A943E, size: 0x8, addend: 0x0, symName: __ZN5iplug9IPlugVST36addRefEv, symObjAddr: 0x12C28, symBinAddr: 0x2E2FC, symSize: 0x14 }
  - { offset: 0x2A945E, size: 0x8, addend: 0x0, symName: __ZN5iplug9IPlugVST36addRefEv, symObjAddr: 0x12C28, symBinAddr: 0x2E2FC, symSize: 0x14 }
  - { offset: 0x2A947F, size: 0x8, addend: 0x0, symName: __ZN5iplug9IPlugVST36addRefEv, symObjAddr: 0x12C28, symBinAddr: 0x2E2FC, symSize: 0x14 }
  - { offset: 0x2A949F, size: 0x8, addend: 0x0, symName: __ZN5iplug9IPlugVST36addRefEv, symObjAddr: 0x12C28, symBinAddr: 0x2E2FC, symSize: 0x14 }
  - { offset: 0x2A9541, size: 0x8, addend: 0x0, symName: __ZN5iplug9IPlugVST37releaseEv, symObjAddr: 0x12C3C, symBinAddr: 0x2E310, symSize: 0x58 }
  - { offset: 0x2A9649, size: 0x8, addend: 0x0, symName: __ZThn1640_N5iplug9IPlugVST314queryInterfaceEPKcPPv, symObjAddr: 0x12C94, symBinAddr: 0x2E368, symSize: 0x19C }
  - { offset: 0x2A97A8, size: 0x8, addend: 0x0, symName: __ZThn1640_N5iplug9IPlugVST36addRefEv, symObjAddr: 0x12E30, symBinAddr: 0x2E504, symSize: 0x14 }
  - { offset: 0x2A97C2, size: 0x8, addend: 0x0, symName: __ZThn1640_N5iplug9IPlugVST36addRefEv, symObjAddr: 0x12E30, symBinAddr: 0x2E504, symSize: 0x14 }
  - { offset: 0x2A97E1, size: 0x8, addend: 0x0, symName: __ZThn1640_N5iplug9IPlugVST36addRefEv, symObjAddr: 0x12E30, symBinAddr: 0x2E504, symSize: 0x14 }
  - { offset: 0x2A97FE, size: 0x8, addend: 0x0, symName: __ZThn1640_N5iplug9IPlugVST36addRefEv, symObjAddr: 0x12E30, symBinAddr: 0x2E504, symSize: 0x14 }
  - { offset: 0x2A981B, size: 0x8, addend: 0x0, symName: __ZThn1640_N5iplug9IPlugVST36addRefEv, symObjAddr: 0x12E30, symBinAddr: 0x2E504, symSize: 0x14 }
  - { offset: 0x2A9839, size: 0x8, addend: 0x0, symName: __ZThn1640_N5iplug9IPlugVST36addRefEv, symObjAddr: 0x12E30, symBinAddr: 0x2E504, symSize: 0x14 }
  - { offset: 0x2A9856, size: 0x8, addend: 0x0, symName: __ZThn1640_N5iplug9IPlugVST36addRefEv, symObjAddr: 0x12E30, symBinAddr: 0x2E504, symSize: 0x14 }
  - { offset: 0x2A98B4, size: 0x8, addend: 0x0, symName: __ZThn1640_N5iplug9IPlugVST37releaseEv, symObjAddr: 0x12E44, symBinAddr: 0x2E518, symSize: 0x54 }
  - { offset: 0x2A9999, size: 0x8, addend: 0x0, symName: __ZThn1640_NK5iplug9IPlugVST33isAEv, symObjAddr: 0x12E98, symBinAddr: 0x2E56C, symSize: 0xC }
  - { offset: 0x2A99D7, size: 0x8, addend: 0x0, symName: __ZThn1640_NK5iplug9IPlugVST33isAEPKc, symObjAddr: 0x12EA4, symBinAddr: 0x2E578, symSize: 0x14 }
  - { offset: 0x2A9A1F, size: 0x8, addend: 0x0, symName: __ZThn1640_NK5iplug9IPlugVST38isTypeOfEPKcb, symObjAddr: 0x12EB8, symBinAddr: 0x2E58C, symSize: 0x8 }
  - { offset: 0x2A9A44, size: 0x8, addend: 0x0, symName: __ZN9Steinberg3Vst14EditController11setKnobModeEi, symObjAddr: 0x12EC0, symBinAddr: 0x2E594, symSize: 0x10 }
  - { offset: 0x2A9A6F, size: 0x8, addend: 0x0, symName: __ZN9Steinberg3Vst14EditController8openHelpEh, symObjAddr: 0x12ED0, symBinAddr: 0x2E5A4, symSize: 0x8 }
  - { offset: 0x2A9AA0, size: 0x8, addend: 0x0, symName: __ZN9Steinberg3Vst14EditController12openAboutBoxEh, symObjAddr: 0x12ED8, symBinAddr: 0x2E5AC, symSize: 0x8 }
  - { offset: 0x2A9AD1, size: 0x8, addend: 0x0, symName: __ZN9Steinberg3Vst14EditController15editorDestroyedEPNS0_10EditorViewE, symObjAddr: 0x12EE0, symBinAddr: 0x2E5B4, symSize: 0x4 }
  - { offset: 0x2A9B00, size: 0x8, addend: 0x0, symName: __ZN9Steinberg3Vst14EditController14editorAttachedEPNS0_10EditorViewE, symObjAddr: 0x12EE4, symBinAddr: 0x2E5B8, symSize: 0x4 }
  - { offset: 0x2A9B2F, size: 0x8, addend: 0x0, symName: __ZN9Steinberg3Vst14EditController13editorRemovedEPNS0_10EditorViewE, symObjAddr: 0x12EE8, symBinAddr: 0x2E5BC, symSize: 0x4 }
  - { offset: 0x2A9B5E, size: 0x8, addend: 0x0, symName: __ZN9Steinberg3Vst14EditController18getParameterObjectEj, symObjAddr: 0x12EEC, symBinAddr: 0x2E5C0, symSize: 0x7C }
  - { offset: 0x2A9D58, size: 0x8, addend: 0x0, symName: __ZN9Steinberg3Vst17EditControllerEx112getUnitCountEv, symObjAddr: 0x12F68, symBinAddr: 0x2E63C, symSize: 0x10 }
  - { offset: 0x2A9D7E, size: 0x8, addend: 0x0, symName: __ZN9Steinberg3Vst17EditControllerEx112getUnitCountEv, symObjAddr: 0x12F68, symBinAddr: 0x2E63C, symSize: 0x10 }
  - { offset: 0x2A9D9D, size: 0x8, addend: 0x0, symName: __ZThn1640_N5iplug9IPlugVST319getProgramListCountEv, symObjAddr: 0x12F78, symBinAddr: 0x2E64C, symSize: 0x8 }
  - { offset: 0x2A9DB3, size: 0x8, addend: 0x0, symName: __ZThn1640_N5iplug9IPlugVST318getProgramListInfoEiRN9Steinberg3Vst15ProgramListInfoE, symObjAddr: 0x12F80, symBinAddr: 0x2E654, symSize: 0x8 }
  - { offset: 0x2A9E03, size: 0x8, addend: 0x0, symName: __ZThn1640_N5iplug9IPlugVST314getProgramNameEiiPDs, symObjAddr: 0x12F88, symBinAddr: 0x2E65C, symSize: 0x94 }
  - { offset: 0x2A9F9A, size: 0x8, addend: 0x0, symName: __ZN9Steinberg3Vst17EditControllerEx115getSelectedUnitEv, symObjAddr: 0x1301C, symBinAddr: 0x2E6F0, symSize: 0x8 }
  - { offset: 0x2A9FBD, size: 0x8, addend: 0x0, symName: __ZN9Steinberg3Vst17EditControllerEx110selectUnitEi, symObjAddr: 0x13024, symBinAddr: 0x2E6F8, symSize: 0xC }
  - { offset: 0x2A9FE8, size: 0x8, addend: 0x0, symName: __ZN9Steinberg3Vst17EditControllerEx112getUnitByBusEiiiiRi, symObjAddr: 0x13030, symBinAddr: 0x2E704, symSize: 0x8 }
  - { offset: 0x2AA046, size: 0x8, addend: 0x0, symName: __ZN9Steinberg3Vst17EditControllerEx118setUnitProgramDataEiiPNS_8IBStreamE, symObjAddr: 0x13038, symBinAddr: 0x2E70C, symSize: 0x8 }
  - { offset: 0x2AA08E, size: 0x8, addend: 0x0, symName: __ZN9Steinberg3Vst21SingleComponentEffect20getControllerClassIdEPc, symObjAddr: 0x13040, symBinAddr: 0x2E714, symSize: 0x8 }
  - { offset: 0x2AA0BF, size: 0x8, addend: 0x0, symName: __ZN9Steinberg3Vst21SingleComponentEffect9setIoModeEi, symObjAddr: 0x13048, symBinAddr: 0x2E71C, symSize: 0x8 }
  - { offset: 0x2AA0F0, size: 0x8, addend: 0x0, symName: __ZN9Steinberg3Vst21SingleComponentEffect14getRoutingInfoERNS0_11RoutingInfoES3_, symObjAddr: 0x13050, symBinAddr: 0x2E724, symSize: 0x8 }
  - { offset: 0x2AA141, size: 0x8, addend: 0x0, symName: __ZThn1640_N5iplug9IPlugVST317getLatencySamplesEv, symObjAddr: 0x13058, symBinAddr: 0x2E72C, symSize: 0xC }
  - { offset: 0x2AA15B, size: 0x8, addend: 0x0, symName: __ZThn1640_N5iplug9IPlugVST317getLatencySamplesEv, symObjAddr: 0x13058, symBinAddr: 0x2E72C, symSize: 0xC }
  - { offset: 0x2AA17A, size: 0x8, addend: 0x0, symName: __ZThn1640_N5iplug9IPlugVST317getLatencySamplesEv, symObjAddr: 0x13058, symBinAddr: 0x2E72C, symSize: 0xC }
  - { offset: 0x2AA19C, size: 0x8, addend: 0x0, symName: __ZN9Steinberg3Vst21SingleComponentEffect29getProcessContextRequirementsEv, symObjAddr: 0x13064, symBinAddr: 0x2E738, symSize: 0x8 }
  - { offset: 0x2AA1BF, size: 0x8, addend: 0x0, symName: __ZThn1656_N5iplug9IPlugVST314queryInterfaceEPKcPPv, symObjAddr: 0x1306C, symBinAddr: 0x2E740, symSize: 0x1C4 }
  - { offset: 0x2AA320, size: 0x8, addend: 0x0, symName: __ZThn1656_N5iplug9IPlugVST36addRefEv, symObjAddr: 0x13230, symBinAddr: 0x2E904, symSize: 0x14 }
  - { offset: 0x2AA33A, size: 0x8, addend: 0x0, symName: __ZThn1656_N5iplug9IPlugVST36addRefEv, symObjAddr: 0x13230, symBinAddr: 0x2E904, symSize: 0x14 }
  - { offset: 0x2AA359, size: 0x8, addend: 0x0, symName: __ZThn1656_N5iplug9IPlugVST36addRefEv, symObjAddr: 0x13230, symBinAddr: 0x2E904, symSize: 0x14 }
  - { offset: 0x2AA378, size: 0x8, addend: 0x0, symName: __ZThn1656_N5iplug9IPlugVST36addRefEv, symObjAddr: 0x13230, symBinAddr: 0x2E904, symSize: 0x14 }
  - { offset: 0x2AA397, size: 0x8, addend: 0x0, symName: __ZThn1656_N5iplug9IPlugVST36addRefEv, symObjAddr: 0x13230, symBinAddr: 0x2E904, symSize: 0x14 }
  - { offset: 0x2AA3B7, size: 0x8, addend: 0x0, symName: __ZThn1656_N5iplug9IPlugVST36addRefEv, symObjAddr: 0x13230, symBinAddr: 0x2E904, symSize: 0x14 }
  - { offset: 0x2AA3D6, size: 0x8, addend: 0x0, symName: __ZThn1656_N5iplug9IPlugVST36addRefEv, symObjAddr: 0x13230, symBinAddr: 0x2E904, symSize: 0x14 }
  - { offset: 0x2AA420, size: 0x8, addend: 0x0, symName: __ZThn1656_N5iplug9IPlugVST37releaseEv, symObjAddr: 0x13244, symBinAddr: 0x2E918, symSize: 0x54 }
  - { offset: 0x2AA505, size: 0x8, addend: 0x0, symName: __ZThn1664_N5iplug9IPlugVST314queryInterfaceEPKcPPv, symObjAddr: 0x13298, symBinAddr: 0x2E96C, symSize: 0x1C4 }
  - { offset: 0x2AA666, size: 0x8, addend: 0x0, symName: __ZThn1664_N5iplug9IPlugVST36addRefEv, symObjAddr: 0x1345C, symBinAddr: 0x2EB30, symSize: 0x14 }
  - { offset: 0x2AA680, size: 0x8, addend: 0x0, symName: __ZThn1664_N5iplug9IPlugVST36addRefEv, symObjAddr: 0x1345C, symBinAddr: 0x2EB30, symSize: 0x14 }
  - { offset: 0x2AA69F, size: 0x8, addend: 0x0, symName: __ZThn1664_N5iplug9IPlugVST36addRefEv, symObjAddr: 0x1345C, symBinAddr: 0x2EB30, symSize: 0x14 }
  - { offset: 0x2AA6BE, size: 0x8, addend: 0x0, symName: __ZThn1664_N5iplug9IPlugVST36addRefEv, symObjAddr: 0x1345C, symBinAddr: 0x2EB30, symSize: 0x14 }
  - { offset: 0x2AA6DD, size: 0x8, addend: 0x0, symName: __ZThn1664_N5iplug9IPlugVST36addRefEv, symObjAddr: 0x1345C, symBinAddr: 0x2EB30, symSize: 0x14 }
  - { offset: 0x2AA6FD, size: 0x8, addend: 0x0, symName: __ZThn1664_N5iplug9IPlugVST36addRefEv, symObjAddr: 0x1345C, symBinAddr: 0x2EB30, symSize: 0x14 }
  - { offset: 0x2AA71C, size: 0x8, addend: 0x0, symName: __ZThn1664_N5iplug9IPlugVST36addRefEv, symObjAddr: 0x1345C, symBinAddr: 0x2EB30, symSize: 0x14 }
  - { offset: 0x2AA766, size: 0x8, addend: 0x0, symName: __ZThn1664_N5iplug9IPlugVST37releaseEv, symObjAddr: 0x13470, symBinAddr: 0x2EB44, symSize: 0x54 }
  - { offset: 0x2AA84B, size: 0x8, addend: 0x0, symName: __ZThn1688_N5iplug9IPlugVST314queryInterfaceEPKcPPv, symObjAddr: 0x134C4, symBinAddr: 0x2EB98, symSize: 0x1C4 }
  - { offset: 0x2AA9AC, size: 0x8, addend: 0x0, symName: __ZThn1688_N5iplug9IPlugVST36addRefEv, symObjAddr: 0x13688, symBinAddr: 0x2ED5C, symSize: 0x14 }
  - { offset: 0x2AA9C6, size: 0x8, addend: 0x0, symName: __ZThn1688_N5iplug9IPlugVST36addRefEv, symObjAddr: 0x13688, symBinAddr: 0x2ED5C, symSize: 0x14 }
  - { offset: 0x2AA9E5, size: 0x8, addend: 0x0, symName: __ZThn1688_N5iplug9IPlugVST36addRefEv, symObjAddr: 0x13688, symBinAddr: 0x2ED5C, symSize: 0x14 }
  - { offset: 0x2AAA04, size: 0x8, addend: 0x0, symName: __ZThn1688_N5iplug9IPlugVST36addRefEv, symObjAddr: 0x13688, symBinAddr: 0x2ED5C, symSize: 0x14 }
  - { offset: 0x2AAA23, size: 0x8, addend: 0x0, symName: __ZThn1688_N5iplug9IPlugVST36addRefEv, symObjAddr: 0x13688, symBinAddr: 0x2ED5C, symSize: 0x14 }
  - { offset: 0x2AAA43, size: 0x8, addend: 0x0, symName: __ZThn1688_N5iplug9IPlugVST36addRefEv, symObjAddr: 0x13688, symBinAddr: 0x2ED5C, symSize: 0x14 }
  - { offset: 0x2AAA62, size: 0x8, addend: 0x0, symName: __ZThn1688_N5iplug9IPlugVST36addRefEv, symObjAddr: 0x13688, symBinAddr: 0x2ED5C, symSize: 0x14 }
  - { offset: 0x2AAAAC, size: 0x8, addend: 0x0, symName: __ZThn1688_N5iplug9IPlugVST37releaseEv, symObjAddr: 0x1369C, symBinAddr: 0x2ED70, symSize: 0x54 }
  - { offset: 0x2AAB91, size: 0x8, addend: 0x0, symName: __ZThn1696_N5iplug9IPlugVST314queryInterfaceEPKcPPv, symObjAddr: 0x136F0, symBinAddr: 0x2EDC4, symSize: 0x1C4 }
  - { offset: 0x2AACF2, size: 0x8, addend: 0x0, symName: __ZThn1696_N5iplug9IPlugVST36addRefEv, symObjAddr: 0x138B4, symBinAddr: 0x2EF88, symSize: 0x14 }
  - { offset: 0x2AAD0C, size: 0x8, addend: 0x0, symName: __ZThn1696_N5iplug9IPlugVST36addRefEv, symObjAddr: 0x138B4, symBinAddr: 0x2EF88, symSize: 0x14 }
  - { offset: 0x2AAD2B, size: 0x8, addend: 0x0, symName: __ZThn1696_N5iplug9IPlugVST36addRefEv, symObjAddr: 0x138B4, symBinAddr: 0x2EF88, symSize: 0x14 }
  - { offset: 0x2AAD4A, size: 0x8, addend: 0x0, symName: __ZThn1696_N5iplug9IPlugVST36addRefEv, symObjAddr: 0x138B4, symBinAddr: 0x2EF88, symSize: 0x14 }
  - { offset: 0x2AAD69, size: 0x8, addend: 0x0, symName: __ZThn1696_N5iplug9IPlugVST36addRefEv, symObjAddr: 0x138B4, symBinAddr: 0x2EF88, symSize: 0x14 }
  - { offset: 0x2AAD89, size: 0x8, addend: 0x0, symName: __ZThn1696_N5iplug9IPlugVST36addRefEv, symObjAddr: 0x138B4, symBinAddr: 0x2EF88, symSize: 0x14 }
  - { offset: 0x2AADA8, size: 0x8, addend: 0x0, symName: __ZThn1696_N5iplug9IPlugVST36addRefEv, symObjAddr: 0x138B4, symBinAddr: 0x2EF88, symSize: 0x14 }
  - { offset: 0x2AADF2, size: 0x8, addend: 0x0, symName: __ZThn1696_N5iplug9IPlugVST37releaseEv, symObjAddr: 0x138C8, symBinAddr: 0x2EF9C, symSize: 0x54 }
  - { offset: 0x2AAEF9, size: 0x8, addend: 0x0, symName: __ZThn56_N9Steinberg3Vst14EditController11setKnobModeEi, symObjAddr: 0x1391C, symBinAddr: 0x2EFF0, symSize: 0x10 }
  - { offset: 0x2AAF13, size: 0x8, addend: 0x0, symName: __ZThn56_N9Steinberg3Vst14EditController11setKnobModeEi, symObjAddr: 0x1391C, symBinAddr: 0x2EFF0, symSize: 0x10 }
  - { offset: 0x2AAF37, size: 0x8, addend: 0x0, symName: __ZThn56_N9Steinberg3Vst14EditController8openHelpEh, symObjAddr: 0x1392C, symBinAddr: 0x2F000, symSize: 0x8 }
  - { offset: 0x2AAF4D, size: 0x8, addend: 0x0, symName: __ZThn56_N9Steinberg3Vst14EditController12openAboutBoxEh, symObjAddr: 0x13934, symBinAddr: 0x2F008, symSize: 0x8 }
  - { offset: 0x2AAF63, size: 0x8, addend: 0x0, symName: __ZThn1752_N5iplug9IPlugVST314queryInterfaceEPKcPPv, symObjAddr: 0x1393C, symBinAddr: 0x2F010, symSize: 0x1C4 }
  - { offset: 0x2AB0C4, size: 0x8, addend: 0x0, symName: __ZThn1752_N5iplug9IPlugVST36addRefEv, symObjAddr: 0x13B00, symBinAddr: 0x2F1D4, symSize: 0x14 }
  - { offset: 0x2AB0DE, size: 0x8, addend: 0x0, symName: __ZThn1752_N5iplug9IPlugVST36addRefEv, symObjAddr: 0x13B00, symBinAddr: 0x2F1D4, symSize: 0x14 }
  - { offset: 0x2AB0FD, size: 0x8, addend: 0x0, symName: __ZThn1752_N5iplug9IPlugVST36addRefEv, symObjAddr: 0x13B00, symBinAddr: 0x2F1D4, symSize: 0x14 }
  - { offset: 0x2AB11D, size: 0x8, addend: 0x0, symName: __ZThn1752_N5iplug9IPlugVST36addRefEv, symObjAddr: 0x13B00, symBinAddr: 0x2F1D4, symSize: 0x14 }
  - { offset: 0x2AB13D, size: 0x8, addend: 0x0, symName: __ZThn1752_N5iplug9IPlugVST36addRefEv, symObjAddr: 0x13B00, symBinAddr: 0x2F1D4, symSize: 0x14 }
  - { offset: 0x2AB15E, size: 0x8, addend: 0x0, symName: __ZThn1752_N5iplug9IPlugVST36addRefEv, symObjAddr: 0x13B00, symBinAddr: 0x2F1D4, symSize: 0x14 }
  - { offset: 0x2AB17E, size: 0x8, addend: 0x0, symName: __ZThn1752_N5iplug9IPlugVST36addRefEv, symObjAddr: 0x13B00, symBinAddr: 0x2F1D4, symSize: 0x14 }
  - { offset: 0x2AB1C9, size: 0x8, addend: 0x0, symName: __ZThn1752_N5iplug9IPlugVST37releaseEv, symObjAddr: 0x13B14, symBinAddr: 0x2F1E8, symSize: 0x54 }
  - { offset: 0x2AB2C4, size: 0x8, addend: 0x0, symName: __ZThn112_N9Steinberg3Vst17EditControllerEx112getUnitCountEv, symObjAddr: 0x13B68, symBinAddr: 0x2F23C, symSize: 0x10 }
  - { offset: 0x2AB2DF, size: 0x8, addend: 0x0, symName: __ZThn112_N9Steinberg3Vst17EditControllerEx112getUnitCountEv, symObjAddr: 0x13B68, symBinAddr: 0x2F23C, symSize: 0x10 }
  - { offset: 0x2AB2FE, size: 0x8, addend: 0x0, symName: __ZThn112_N9Steinberg3Vst17EditControllerEx112getUnitCountEv, symObjAddr: 0x13B68, symBinAddr: 0x2F23C, symSize: 0x10 }
  - { offset: 0x2AB31D, size: 0x8, addend: 0x0, symName: __ZThn1752_N5iplug9IPlugVST319getProgramListCountEv, symObjAddr: 0x13B78, symBinAddr: 0x2F24C, symSize: 0x8 }
  - { offset: 0x2AB333, size: 0x8, addend: 0x0, symName: __ZThn1752_N5iplug9IPlugVST318getProgramListInfoEiRN9Steinberg3Vst15ProgramListInfoE, symObjAddr: 0x13B80, symBinAddr: 0x2F254, symSize: 0x8 }
  - { offset: 0x2AB349, size: 0x8, addend: 0x0, symName: __ZThn1752_N5iplug9IPlugVST314getProgramNameEiiPDs, symObjAddr: 0x13B88, symBinAddr: 0x2F25C, symSize: 0x94 }
  - { offset: 0x2AB4F6, size: 0x8, addend: 0x0, symName: __ZThn112_N9Steinberg3Vst17EditControllerEx115getSelectedUnitEv, symObjAddr: 0x13C1C, symBinAddr: 0x2F2F0, symSize: 0x8 }
  - { offset: 0x2AB511, size: 0x8, addend: 0x0, symName: __ZThn112_N9Steinberg3Vst17EditControllerEx115getSelectedUnitEv, symObjAddr: 0x13C1C, symBinAddr: 0x2F2F0, symSize: 0x8 }
  - { offset: 0x2AB551, size: 0x8, addend: 0x0, symName: __ZThn112_N9Steinberg3Vst17EditControllerEx110selectUnitEi, symObjAddr: 0x13C24, symBinAddr: 0x2F2F8, symSize: 0xC }
  - { offset: 0x2AB56C, size: 0x8, addend: 0x0, symName: __ZThn112_N9Steinberg3Vst17EditControllerEx110selectUnitEi, symObjAddr: 0x13C24, symBinAddr: 0x2F2F8, symSize: 0xC }
  - { offset: 0x2AB591, size: 0x8, addend: 0x0, symName: __ZThn112_N9Steinberg3Vst17EditControllerEx112getUnitByBusEiiiiRi, symObjAddr: 0x13C30, symBinAddr: 0x2F304, symSize: 0x8 }
  - { offset: 0x2AB5A8, size: 0x8, addend: 0x0, symName: __ZThn112_N9Steinberg3Vst17EditControllerEx118setUnitProgramDataEiiPNS_8IBStreamE, symObjAddr: 0x13C38, symBinAddr: 0x2F30C, symSize: 0x8 }
  - { offset: 0x2AB5BF, size: 0x8, addend: 0x0, symName: __ZThn1840_N5iplug9IPlugVST314queryInterfaceEPKcPPv, symObjAddr: 0x13C40, symBinAddr: 0x2F314, symSize: 0x1C0 }
  - { offset: 0x2AB720, size: 0x8, addend: 0x0, symName: __ZThn1840_N5iplug9IPlugVST36addRefEv, symObjAddr: 0x13E00, symBinAddr: 0x2F4D4, symSize: 0x14 }
  - { offset: 0x2AB73A, size: 0x8, addend: 0x0, symName: __ZThn1840_N5iplug9IPlugVST36addRefEv, symObjAddr: 0x13E00, symBinAddr: 0x2F4D4, symSize: 0x14 }
  - { offset: 0x2AB759, size: 0x8, addend: 0x0, symName: __ZThn1840_N5iplug9IPlugVST36addRefEv, symObjAddr: 0x13E00, symBinAddr: 0x2F4D4, symSize: 0x14 }
  - { offset: 0x2AB779, size: 0x8, addend: 0x0, symName: __ZThn1840_N5iplug9IPlugVST36addRefEv, symObjAddr: 0x13E00, symBinAddr: 0x2F4D4, symSize: 0x14 }
  - { offset: 0x2AB799, size: 0x8, addend: 0x0, symName: __ZThn1840_N5iplug9IPlugVST36addRefEv, symObjAddr: 0x13E00, symBinAddr: 0x2F4D4, symSize: 0x14 }
  - { offset: 0x2AB7BA, size: 0x8, addend: 0x0, symName: __ZThn1840_N5iplug9IPlugVST36addRefEv, symObjAddr: 0x13E00, symBinAddr: 0x2F4D4, symSize: 0x14 }
  - { offset: 0x2AB7DA, size: 0x8, addend: 0x0, symName: __ZThn1840_N5iplug9IPlugVST36addRefEv, symObjAddr: 0x13E00, symBinAddr: 0x2F4D4, symSize: 0x14 }
  - { offset: 0x2AB825, size: 0x8, addend: 0x0, symName: __ZThn1840_N5iplug9IPlugVST37releaseEv, symObjAddr: 0x13E14, symBinAddr: 0x2F4E8, symSize: 0x54 }
  - { offset: 0x2AB90A, size: 0x8, addend: 0x0, symName: __ZThn200_N9Steinberg3Vst21SingleComponentEffect20getControllerClassIdEPc, symObjAddr: 0x13E68, symBinAddr: 0x2F53C, symSize: 0x8 }
  - { offset: 0x2AB920, size: 0x8, addend: 0x0, symName: __ZThn200_N9Steinberg3Vst21SingleComponentEffect9setIoModeEi, symObjAddr: 0x13E70, symBinAddr: 0x2F544, symSize: 0x8 }
  - { offset: 0x2AB936, size: 0x8, addend: 0x0, symName: __ZThn200_N9Steinberg3Vst21SingleComponentEffect14getRoutingInfoERNS0_11RoutingInfoES3_, symObjAddr: 0x13E78, symBinAddr: 0x2F54C, symSize: 0x8 }
  - { offset: 0x2AB94C, size: 0x8, addend: 0x0, symName: __ZThn1848_N5iplug9IPlugVST314queryInterfaceEPKcPPv, symObjAddr: 0x13E80, symBinAddr: 0x2F554, symSize: 0x1C0 }
  - { offset: 0x2ABAAD, size: 0x8, addend: 0x0, symName: __ZThn1848_N5iplug9IPlugVST36addRefEv, symObjAddr: 0x14040, symBinAddr: 0x2F714, symSize: 0x14 }
  - { offset: 0x2ABAC7, size: 0x8, addend: 0x0, symName: __ZThn1848_N5iplug9IPlugVST36addRefEv, symObjAddr: 0x14040, symBinAddr: 0x2F714, symSize: 0x14 }
  - { offset: 0x2ABAE6, size: 0x8, addend: 0x0, symName: __ZThn1848_N5iplug9IPlugVST36addRefEv, symObjAddr: 0x14040, symBinAddr: 0x2F714, symSize: 0x14 }
  - { offset: 0x2ABB06, size: 0x8, addend: 0x0, symName: __ZThn1848_N5iplug9IPlugVST36addRefEv, symObjAddr: 0x14040, symBinAddr: 0x2F714, symSize: 0x14 }
  - { offset: 0x2ABB26, size: 0x8, addend: 0x0, symName: __ZThn1848_N5iplug9IPlugVST36addRefEv, symObjAddr: 0x14040, symBinAddr: 0x2F714, symSize: 0x14 }
  - { offset: 0x2ABB47, size: 0x8, addend: 0x0, symName: __ZThn1848_N5iplug9IPlugVST36addRefEv, symObjAddr: 0x14040, symBinAddr: 0x2F714, symSize: 0x14 }
  - { offset: 0x2ABB67, size: 0x8, addend: 0x0, symName: __ZThn1848_N5iplug9IPlugVST36addRefEv, symObjAddr: 0x14040, symBinAddr: 0x2F714, symSize: 0x14 }
  - { offset: 0x2ABBB2, size: 0x8, addend: 0x0, symName: __ZThn1848_N5iplug9IPlugVST37releaseEv, symObjAddr: 0x14054, symBinAddr: 0x2F728, symSize: 0x54 }
  - { offset: 0x2ABC97, size: 0x8, addend: 0x0, symName: __ZThn1848_N5iplug9IPlugVST317getLatencySamplesEv, symObjAddr: 0x140A8, symBinAddr: 0x2F77C, symSize: 0xC }
  - { offset: 0x2ABCB1, size: 0x8, addend: 0x0, symName: __ZThn1848_N5iplug9IPlugVST317getLatencySamplesEv, symObjAddr: 0x140A8, symBinAddr: 0x2F77C, symSize: 0xC }
  - { offset: 0x2ABCD0, size: 0x8, addend: 0x0, symName: __ZThn1848_N5iplug9IPlugVST317getLatencySamplesEv, symObjAddr: 0x140A8, symBinAddr: 0x2F77C, symSize: 0xC }
  - { offset: 0x2ABCF2, size: 0x8, addend: 0x0, symName: __ZThn1856_N5iplug9IPlugVST314queryInterfaceEPKcPPv, symObjAddr: 0x140B4, symBinAddr: 0x2F788, symSize: 0x1C0 }
  - { offset: 0x2ABE53, size: 0x8, addend: 0x0, symName: __ZThn1856_N5iplug9IPlugVST36addRefEv, symObjAddr: 0x14274, symBinAddr: 0x2F948, symSize: 0x14 }
  - { offset: 0x2ABE6D, size: 0x8, addend: 0x0, symName: __ZThn1856_N5iplug9IPlugVST36addRefEv, symObjAddr: 0x14274, symBinAddr: 0x2F948, symSize: 0x14 }
  - { offset: 0x2ABE8C, size: 0x8, addend: 0x0, symName: __ZThn1856_N5iplug9IPlugVST36addRefEv, symObjAddr: 0x14274, symBinAddr: 0x2F948, symSize: 0x14 }
  - { offset: 0x2ABEAC, size: 0x8, addend: 0x0, symName: __ZThn1856_N5iplug9IPlugVST36addRefEv, symObjAddr: 0x14274, symBinAddr: 0x2F948, symSize: 0x14 }
  - { offset: 0x2ABECC, size: 0x8, addend: 0x0, symName: __ZThn1856_N5iplug9IPlugVST36addRefEv, symObjAddr: 0x14274, symBinAddr: 0x2F948, symSize: 0x14 }
  - { offset: 0x2ABEED, size: 0x8, addend: 0x0, symName: __ZThn1856_N5iplug9IPlugVST36addRefEv, symObjAddr: 0x14274, symBinAddr: 0x2F948, symSize: 0x14 }
  - { offset: 0x2ABF0D, size: 0x8, addend: 0x0, symName: __ZThn1856_N5iplug9IPlugVST36addRefEv, symObjAddr: 0x14274, symBinAddr: 0x2F948, symSize: 0x14 }
  - { offset: 0x2ABF58, size: 0x8, addend: 0x0, symName: __ZThn1856_N5iplug9IPlugVST37releaseEv, symObjAddr: 0x14288, symBinAddr: 0x2F95C, symSize: 0x54 }
  - { offset: 0x2AC053, size: 0x8, addend: 0x0, symName: __ZThn216_N9Steinberg3Vst21SingleComponentEffect29getProcessContextRequirementsEv, symObjAddr: 0x142DC, symBinAddr: 0x2F9B0, symSize: 0x8 }
  - { offset: 0x2AC06D, size: 0x8, addend: 0x0, symName: __ZThn216_N9Steinberg3Vst21SingleComponentEffect29getProcessContextRequirementsEv, symObjAddr: 0x142DC, symBinAddr: 0x2F9B0, symSize: 0x8 }
  - { offset: 0x2AC08A, size: 0x8, addend: 0x0, symName: __ZThn2088_N5iplug9IPlugVST314queryInterfaceEPKcPPv, symObjAddr: 0x142E4, symBinAddr: 0x2F9B8, symSize: 0x1C0 }
  - { offset: 0x2AC1EB, size: 0x8, addend: 0x0, symName: __ZThn2088_N5iplug9IPlugVST36addRefEv, symObjAddr: 0x144A4, symBinAddr: 0x2FB78, symSize: 0x14 }
  - { offset: 0x2AC205, size: 0x8, addend: 0x0, symName: __ZThn2088_N5iplug9IPlugVST36addRefEv, symObjAddr: 0x144A4, symBinAddr: 0x2FB78, symSize: 0x14 }
  - { offset: 0x2AC224, size: 0x8, addend: 0x0, symName: __ZThn2088_N5iplug9IPlugVST36addRefEv, symObjAddr: 0x144A4, symBinAddr: 0x2FB78, symSize: 0x14 }
  - { offset: 0x2AC244, size: 0x8, addend: 0x0, symName: __ZThn2088_N5iplug9IPlugVST36addRefEv, symObjAddr: 0x144A4, symBinAddr: 0x2FB78, symSize: 0x14 }
  - { offset: 0x2AC264, size: 0x8, addend: 0x0, symName: __ZThn2088_N5iplug9IPlugVST36addRefEv, symObjAddr: 0x144A4, symBinAddr: 0x2FB78, symSize: 0x14 }
  - { offset: 0x2AC285, size: 0x8, addend: 0x0, symName: __ZThn2088_N5iplug9IPlugVST36addRefEv, symObjAddr: 0x144A4, symBinAddr: 0x2FB78, symSize: 0x14 }
  - { offset: 0x2AC2A5, size: 0x8, addend: 0x0, symName: __ZThn2088_N5iplug9IPlugVST36addRefEv, symObjAddr: 0x144A4, symBinAddr: 0x2FB78, symSize: 0x14 }
  - { offset: 0x2AC2F0, size: 0x8, addend: 0x0, symName: __ZThn2088_N5iplug9IPlugVST37releaseEv, symObjAddr: 0x144B8, symBinAddr: 0x2FB8C, symSize: 0x58 }
  - { offset: 0x2AC3D3, size: 0x8, addend: 0x0, symName: __ZThn2096_N5iplug9IPlugVST314queryInterfaceEPKcPPv, symObjAddr: 0x14510, symBinAddr: 0x2FBE4, symSize: 0x1C0 }
  - { offset: 0x2AC534, size: 0x8, addend: 0x0, symName: __ZThn2096_N5iplug9IPlugVST36addRefEv, symObjAddr: 0x146D0, symBinAddr: 0x2FDA4, symSize: 0x14 }
  - { offset: 0x2AC54E, size: 0x8, addend: 0x0, symName: __ZThn2096_N5iplug9IPlugVST36addRefEv, symObjAddr: 0x146D0, symBinAddr: 0x2FDA4, symSize: 0x14 }
  - { offset: 0x2AC56D, size: 0x8, addend: 0x0, symName: __ZThn2096_N5iplug9IPlugVST36addRefEv, symObjAddr: 0x146D0, symBinAddr: 0x2FDA4, symSize: 0x14 }
  - { offset: 0x2AC58D, size: 0x8, addend: 0x0, symName: __ZThn2096_N5iplug9IPlugVST36addRefEv, symObjAddr: 0x146D0, symBinAddr: 0x2FDA4, symSize: 0x14 }
  - { offset: 0x2AC5AD, size: 0x8, addend: 0x0, symName: __ZThn2096_N5iplug9IPlugVST36addRefEv, symObjAddr: 0x146D0, symBinAddr: 0x2FDA4, symSize: 0x14 }
  - { offset: 0x2AC5CE, size: 0x8, addend: 0x0, symName: __ZThn2096_N5iplug9IPlugVST36addRefEv, symObjAddr: 0x146D0, symBinAddr: 0x2FDA4, symSize: 0x14 }
  - { offset: 0x2AC5EE, size: 0x8, addend: 0x0, symName: __ZThn2096_N5iplug9IPlugVST36addRefEv, symObjAddr: 0x146D0, symBinAddr: 0x2FDA4, symSize: 0x14 }
  - { offset: 0x2AC639, size: 0x8, addend: 0x0, symName: __ZThn2096_N5iplug9IPlugVST37releaseEv, symObjAddr: 0x146E4, symBinAddr: 0x2FDB8, symSize: 0x58 }
  - { offset: 0x2AC71C, size: 0x8, addend: 0x0, symName: __ZN23recursive_linear_filter8HighPassD0Ev, symObjAddr: 0x14858, symBinAddr: 0x2FF2C, symSize: 0x14 }
  - { offset: 0x2ACA97, size: 0x8, addend: 0x0, symName: __ZN5iplug7ISenderILi1ELi64ENSt3__14pairIffEEE16PrepareDataForUIERNS_11ISenderDataILi1ES3_EE, symObjAddr: 0x149FC, symBinAddr: 0x300D0, symSize: 0x4 }
  - { offset: 0x2ACFFA, size: 0x8, addend: 0x0, symName: __ZNSt3__112basic_stringIcNS_11char_traitsIcEENS_9allocatorIcEEE17__assign_externalEPKcm, symObjAddr: 0x15034, symBinAddr: 0x305C8, symSize: 0x178 }
  - { offset: 0x2ADC6A, size: 0x8, addend: 0x0, symName: __ZN3dsp16LanczosResamplerIdLi1ELm6EEC2Eff, symObjAddr: 0x15BC8, symBinAddr: 0x310D8, symSize: 0x660 }
  - { offset: 0x2ADE80, size: 0x8, addend: 0x0, symName: __ZNK3dsp16LanczosResamplerIdLi1ELm6EE11ReadSamplesEdPPdi, symObjAddr: 0x16300, symBinAddr: 0x31810, symSize: 0xD0 }
  - { offset: 0x2ADFAA, size: 0x8, addend: 0x0, symName: __ZNSt3__120__shared_ptr_emplaceIN3dsp19ResamplingContainerIdLi1ELm6EEENS_9allocatorIS3_EEED1Ev, symObjAddr: 0x15B2C, symBinAddr: 0x3103C, symSize: 0x10 }
  - { offset: 0x2ADFCE, size: 0x8, addend: 0x0, symName: __ZNSt3__120__shared_ptr_emplaceIN3dsp19ResamplingContainerIdLi1ELm6EEENS_9allocatorIS3_EEED1Ev, symObjAddr: 0x15B2C, symBinAddr: 0x3103C, symSize: 0x10 }
  - { offset: 0x2AE009, size: 0x8, addend: 0x0, symName: __ZNSt3__120__shared_ptr_emplaceIN3dsp19ResamplingContainerIdLi1ELm6EEENS_9allocatorIS3_EEED0Ev, symObjAddr: 0x15B3C, symBinAddr: 0x3104C, symSize: 0x20 }
  - { offset: 0x2AE1CF, size: 0x8, addend: 0x0, symName: __ZNSt3__120__shared_ptr_emplaceIN3dsp19ResamplingContainerIdLi1ELm6EEENS_9allocatorIS3_EEE16__on_zero_sharedEv, symObjAddr: 0x15B5C, symBinAddr: 0x3106C, symSize: 0x68 }
  - { offset: 0x2AE7A4, size: 0x8, addend: 0x0, symName: __ZNSt3__120__shared_ptr_emplaceIN3dsp19ResamplingContainerIdLi1ELm6EEENS_9allocatorIS3_EEE21__on_zero_shared_weakEv, symObjAddr: 0x15BC4, symBinAddr: 0x310D4, symSize: 0x4 }
  - { offset: 0x2AE7D8, size: 0x8, addend: 0x0, symName: __ZNSt3__120__shared_ptr_emplaceIN3dsp19ResamplingContainerIdLi1ELm6EEENS_9allocatorIS3_EEE21__on_zero_shared_weakEv, symObjAddr: 0x15BC4, symBinAddr: 0x310D4, symSize: 0x4 }
  - { offset: 0x2AE7FC, size: 0x8, addend: 0x0, symName: __ZNSt3__120__shared_ptr_emplaceIN3dsp19ResamplingContainerIdLi1ELm6EEENS_9allocatorIS3_EEE21__on_zero_shared_weakEv, symObjAddr: 0x15BC4, symBinAddr: 0x310D4, symSize: 0x4 }
  - { offset: 0x2AE821, size: 0x8, addend: 0x0, symName: __ZNSt3__120__shared_ptr_emplaceIN3dsp19ResamplingContainerIdLi1ELm6EEENS_9allocatorIS3_EEE21__on_zero_shared_weakEv, symObjAddr: 0x15BC4, symBinAddr: 0x310D4, symSize: 0x4 }
  - { offset: 0x2AE9AE, size: 0x8, addend: 0x0, symName: __ZZN3dsp16LanczosResamplerIdLi1ELm6EE9SetPhasesEvENKUldE_clEd, symObjAddr: 0x16228, symBinAddr: 0x31738, symSize: 0xD8 }
  - { offset: 0x2AED55, size: 0x8, addend: 0x0, symName: __ZNSt3__119basic_istringstreamIcNS_11char_traitsIcEENS_9allocatorIcEEED0Ev, symObjAddr: 0x1A6FC, symBinAddr: 0x34B74, symSize: 0x88 }
  - { offset: 0x2AEF13, size: 0x8, addend: 0x0, symName: __ZTv0_n24_NSt3__119basic_istringstreamIcNS_11char_traitsIcEENS_9allocatorIcEEED1Ev, symObjAddr: 0x1A784, symBinAddr: 0x34BFC, symSize: 0x88 }
  - { offset: 0x2AF0E2, size: 0x8, addend: 0x0, symName: __ZTv0_n24_NSt3__119basic_istringstreamIcNS_11char_traitsIcEENS_9allocatorIcEEED0Ev, symObjAddr: 0x1A80C, symBinAddr: 0x34C84, symSize: 0x90 }
  - { offset: 0x2AF2B3, size: 0x8, addend: 0x0, symName: '__ZNSt3__110__function6__funcIZN7PhoenixC1ERKN5iplug12InstanceInfoEE3$_0FPNS3_9igraphics9IGraphicsEvEED1Ev', symObjAddr: 0x1A8B0, symBinAddr: 0x34D14, symSize: 0x4 }
  - { offset: 0x2AF2E2, size: 0x8, addend: 0x0, symName: '__ZNSt3__110__function6__funcIZN7PhoenixC1ERKN5iplug12InstanceInfoEE3$_0FPNS3_9igraphics9IGraphicsEvEED0Ev', symObjAddr: 0x1A8B4, symBinAddr: 0x34D18, symSize: 0x4 }
  - { offset: 0x2AF30D, size: 0x8, addend: 0x0, symName: '__ZNKSt3__110__function6__funcIZN7PhoenixC1ERKN5iplug12InstanceInfoEE3$_0FPNS3_9igraphics9IGraphicsEvEE7__cloneEv', symObjAddr: 0x1A8B8, symBinAddr: 0x34D1C, symSize: 0x34 }
  - { offset: 0x2AF370, size: 0x8, addend: 0x0, symName: '__ZNKSt3__110__function6__funcIZN7PhoenixC1ERKN5iplug12InstanceInfoEE3$_0FPNS3_9igraphics9IGraphicsEvEE7__cloneEPNS0_6__baseISB_EE', symObjAddr: 0x1A8EC, symBinAddr: 0x34D50, symSize: 0x14 }
  - { offset: 0x2AF3D5, size: 0x8, addend: 0x0, symName: '__ZNSt3__110__function6__funcIZN7PhoenixC1ERKN5iplug12InstanceInfoEE3$_0FPNS3_9igraphics9IGraphicsEvEE7destroyEv', symObjAddr: 0x1A900, symBinAddr: 0x34D64, symSize: 0x4 }
  - { offset: 0x2AF3F8, size: 0x8, addend: 0x0, symName: '__ZNSt3__110__function6__funcIZN7PhoenixC1ERKN5iplug12InstanceInfoEE3$_0FPNS3_9igraphics9IGraphicsEvEE18destroy_deallocateEv', symObjAddr: 0x1A904, symBinAddr: 0x34D68, symSize: 0x14 }
  - { offset: 0x2AF913, size: 0x8, addend: 0x0, symName: '__ZNSt3__110__function6__funcIZN7PhoenixC1ERKN5iplug12InstanceInfoEE3$_0FPNS3_9igraphics9IGraphicsEvEEclEv', symObjAddr: 0x1A918, symBinAddr: 0x34D7C, symSize: 0x2CC }
  - { offset: 0x2AFEDC, size: 0x8, addend: 0x0, symName: '__ZNKSt3__110__function6__funcIZN7PhoenixC1ERKN5iplug12InstanceInfoEE3$_0FPNS3_9igraphics9IGraphicsEvEE6targetERKSt9type_info', symObjAddr: 0x1ABE4, symBinAddr: 0x35048, symSize: 0x60 }
  - { offset: 0x2AFF98, size: 0x8, addend: 0x0, symName: '__ZNKSt3__110__function6__funcIZN7PhoenixC1ERKN5iplug12InstanceInfoEE3$_0FPNS3_9igraphics9IGraphicsEvEE11target_typeEv', symObjAddr: 0x1AC44, symBinAddr: 0x350A8, symSize: 0xC }
  - { offset: 0x2AFFBB, size: 0x8, addend: 0x0, symName: '__ZNSt3__110__function6__funcIZN7PhoenixC1ERKN5iplug12InstanceInfoEE3$_1FvPNS3_9igraphics9IGraphicsEEED1Ev', symObjAddr: 0x1AC50, symBinAddr: 0x350B4, symSize: 0x4 }
  - { offset: 0x2AFFEA, size: 0x8, addend: 0x0, symName: '__ZNSt3__110__function6__funcIZN7PhoenixC1ERKN5iplug12InstanceInfoEE3$_1FvPNS3_9igraphics9IGraphicsEEED0Ev', symObjAddr: 0x1AC54, symBinAddr: 0x350B8, symSize: 0x4 }
  - { offset: 0x2B0015, size: 0x8, addend: 0x0, symName: '__ZNKSt3__110__function6__funcIZN7PhoenixC1ERKN5iplug12InstanceInfoEE3$_1FvPNS3_9igraphics9IGraphicsEEE7__cloneEv', symObjAddr: 0x1AC58, symBinAddr: 0x350BC, symSize: 0x34 }
  - { offset: 0x2B0078, size: 0x8, addend: 0x0, symName: '__ZNKSt3__110__function6__funcIZN7PhoenixC1ERKN5iplug12InstanceInfoEE3$_1FvPNS3_9igraphics9IGraphicsEEE7__cloneEPNS0_6__baseISB_EE', symObjAddr: 0x1AC8C, symBinAddr: 0x350F0, symSize: 0x14 }
  - { offset: 0x2B00DD, size: 0x8, addend: 0x0, symName: '__ZNSt3__110__function6__funcIZN7PhoenixC1ERKN5iplug12InstanceInfoEE3$_1FvPNS3_9igraphics9IGraphicsEEE7destroyEv', symObjAddr: 0x1ACA0, symBinAddr: 0x35104, symSize: 0x4 }
  - { offset: 0x2B0100, size: 0x8, addend: 0x0, symName: '__ZNSt3__110__function6__funcIZN7PhoenixC1ERKN5iplug12InstanceInfoEE3$_1FvPNS3_9igraphics9IGraphicsEEE18destroy_deallocateEv', symObjAddr: 0x1ACA4, symBinAddr: 0x35108, symSize: 0x14 }
  - { offset: 0x2B016E, size: 0x8, addend: 0x0, symName: '__ZNSt3__110__function6__funcIZN7PhoenixC1ERKN5iplug12InstanceInfoEE3$_1FvPNS3_9igraphics9IGraphicsEEEclEOSA_', symObjAddr: 0x1ACB8, symBinAddr: 0x3511C, symSize: 0xC }
  - { offset: 0x2B01F8, size: 0x8, addend: 0x0, symName: '__ZNKSt3__110__function6__funcIZN7PhoenixC1ERKN5iplug12InstanceInfoEE3$_1FvPNS3_9igraphics9IGraphicsEEE6targetERKSt9type_info', symObjAddr: 0x1ACC4, symBinAddr: 0x35128, symSize: 0x60 }
  - { offset: 0x2B02B4, size: 0x8, addend: 0x0, symName: '__ZNKSt3__110__function6__funcIZN7PhoenixC1ERKN5iplug12InstanceInfoEE3$_1FvPNS3_9igraphics9IGraphicsEEE11target_typeEv', symObjAddr: 0x1AD24, symBinAddr: 0x35188, symSize: 0xC }
  - { offset: 0x2B18D7, size: 0x8, addend: 0x0, symName: __ZN18NAMAmpImageControlC2ERKN5iplug9igraphics5IRECTERKNS1_7IBitmapEb, symObjAddr: 0x1EC20, symBinAddr: 0x39084, symSize: 0x18C }
  - { offset: 0x2B1CE1, size: 0x8, addend: 0x0, symName: __ZN15NAMMeterControlC2ERKN5iplug9igraphics5IRECTERKNS1_7IBitmapERKNS1_7IVStyleE, symObjAddr: 0x1F1DC, symBinAddr: 0x39640, symSize: 0x420 }
  - { offset: 0x2B28DE, size: 0x8, addend: 0x0, symName: __ZN14NAMKnobControlC2ERKN5iplug9igraphics5IRECTEiPKcRKNS1_7IVStyleENS1_7IBitmapE, symObjAddr: 0x236D8, symBinAddr: 0x3DB28, symSize: 0x110 }
  - { offset: 0x2B2B32, size: 0x8, addend: 0x0, symName: __ZN21NAMFileBrowserControlC2ERKN5iplug9igraphics5IRECTEiPKcS6_NSt3__18functionIFvRK10WDL_StringSB_EEERKNS1_7IVStyleERKNS1_4ISVGESJ_SJ_SJ_RKNS1_7IBitmapESJ_S6_S6_, symObjAddr: 0x2525C, symBinAddr: 0x3F6AC, symSize: 0x448 }
  - { offset: 0x2B3C4F, size: 0x8, addend: 0x0, symName: __ZN31IContainerBaseWithNamedChildrenD2Ev, symObjAddr: 0x2A420, symBinAddr: 0x44870, symSize: 0x124 }
  - { offset: 0x2B4290, size: 0x8, addend: 0x0, symName: __ZN20NAMBackgroundControlD1Ev, symObjAddr: 0x1EBB8, symBinAddr: 0x3901C, symSize: 0x4 }
  - { offset: 0x2B42B4, size: 0x8, addend: 0x0, symName: __ZN20NAMBackgroundControlD1Ev, symObjAddr: 0x1EBB8, symBinAddr: 0x3901C, symSize: 0x4 }
  - { offset: 0x2B42EF, size: 0x8, addend: 0x0, symName: __ZN20NAMBackgroundControlD0Ev, symObjAddr: 0x1EBBC, symBinAddr: 0x39020, symSize: 0x14 }
  - { offset: 0x2B434C, size: 0x8, addend: 0x0, symName: __ZN5iplug9igraphics8IControl9OnMouseUpEffRKNS0_9IMouseModE, symObjAddr: 0x1EBD0, symBinAddr: 0x39034, symSize: 0x4 }
  - { offset: 0x2B439D, size: 0x8, addend: 0x0, symName: __ZN5iplug9igraphics8IControl11OnMouseDragEffffRKNS0_9IMouseModE, symObjAddr: 0x1EBD4, symBinAddr: 0x39038, symSize: 0x4 }
  - { offset: 0x2B440C, size: 0x8, addend: 0x0, symName: __ZN5iplug9igraphics8IControl9OnKeyDownEffRKNS_9IKeyPressE, symObjAddr: 0x1EBD8, symBinAddr: 0x3903C, symSize: 0x8 }
  - { offset: 0x2B445F, size: 0x8, addend: 0x0, symName: __ZN20NAMBackgroundControl4DrawERN5iplug9igraphics9IGraphicsE, symObjAddr: 0x1EBE0, symBinAddr: 0x39044, symSize: 0x20 }
  - { offset: 0x2B44A2, size: 0x8, addend: 0x0, symName: __ZThn8_N20NAMBackgroundControlD1Ev, symObjAddr: 0x1EC00, symBinAddr: 0x39064, symSize: 0x8 }
  - { offset: 0x2B4510, size: 0x8, addend: 0x0, symName: __ZThn8_N20NAMBackgroundControlD0Ev, symObjAddr: 0x1EC08, symBinAddr: 0x3906C, symSize: 0x18 }
  - { offset: 0x2B45EB, size: 0x8, addend: 0x0, symName: __ZN18NAMAmpImageControlD1Ev, symObjAddr: 0x1EDAC, symBinAddr: 0x39210, symSize: 0x34 }
  - { offset: 0x2B4748, size: 0x8, addend: 0x0, symName: __ZN18NAMAmpImageControlD0Ev, symObjAddr: 0x1EDE0, symBinAddr: 0x39244, symSize: 0x38 }
  - { offset: 0x2B48DA, size: 0x8, addend: 0x0, symName: __ZN18NAMAmpImageControl9OnRescaleEv, symObjAddr: 0x1EE18, symBinAddr: 0x3927C, symSize: 0x128 }
  - { offset: 0x2B4D79, size: 0x8, addend: 0x0, symName: __ZN18NAMAmpImageControl4DrawERN5iplug9igraphics9IGraphicsE, symObjAddr: 0x1EF40, symBinAddr: 0x393A4, symSize: 0xFC }
  - { offset: 0x2B4F76, size: 0x8, addend: 0x0, symName: __ZThn8_N18NAMAmpImageControlD1Ev, symObjAddr: 0x1F03C, symBinAddr: 0x394A0, symSize: 0x34 }
  - { offset: 0x2B50D7, size: 0x8, addend: 0x0, symName: __ZThn8_N18NAMAmpImageControlD0Ev, symObjAddr: 0x1F070, symBinAddr: 0x394D4, symSize: 0x38 }
  - { offset: 0x2B5238, size: 0x8, addend: 0x0, symName: __ZThn488_N18NAMAmpImageControlD1Ev, symObjAddr: 0x1F0A8, symBinAddr: 0x3950C, symSize: 0x34 }
  - { offset: 0x2B537D, size: 0x8, addend: 0x0, symName: __ZThn488_N18NAMAmpImageControlD0Ev, symObjAddr: 0x1F0DC, symBinAddr: 0x39540, symSize: 0x38 }
  - { offset: 0x2B54DE, size: 0x8, addend: 0x0, symName: __ZN5iplug9igraphics11IBitmapBaseD1Ev, symObjAddr: 0x1F114, symBinAddr: 0x39578, symSize: 0x34 }
  - { offset: 0x2B560D, size: 0x8, addend: 0x0, symName: __ZN5iplug9igraphics11IBitmapBaseD0Ev, symObjAddr: 0x1F148, symBinAddr: 0x395AC, symSize: 0x34 }
  - { offset: 0x2B5765, size: 0x8, addend: 0x0, symName: __ZN14NAMLineControlD1Ev, symObjAddr: 0x1F17C, symBinAddr: 0x395E0, symSize: 0x4 }
  - { offset: 0x2B5789, size: 0x8, addend: 0x0, symName: __ZN14NAMLineControlD1Ev, symObjAddr: 0x1F17C, symBinAddr: 0x395E0, symSize: 0x4 }
  - { offset: 0x2B57C4, size: 0x8, addend: 0x0, symName: __ZN14NAMLineControlD0Ev, symObjAddr: 0x1F180, symBinAddr: 0x395E4, symSize: 0x14 }
  - { offset: 0x2B5821, size: 0x8, addend: 0x0, symName: __ZN14NAMLineControl4DrawERN5iplug9igraphics9IGraphicsE, symObjAddr: 0x1F194, symBinAddr: 0x395F8, symSize: 0x28 }
  - { offset: 0x2B5864, size: 0x8, addend: 0x0, symName: __ZThn8_N14NAMLineControlD1Ev, symObjAddr: 0x1F1BC, symBinAddr: 0x39620, symSize: 0x8 }
  - { offset: 0x2B58D2, size: 0x8, addend: 0x0, symName: __ZThn8_N14NAMLineControlD0Ev, symObjAddr: 0x1F1C4, symBinAddr: 0x39628, symSize: 0x18 }
  - { offset: 0x2B5E85, size: 0x8, addend: 0x0, symName: __ZN5iplug9igraphics11IVectorBaseC2ERKNS0_7IVStyleEbb, symObjAddr: 0x21928, symBinAddr: 0x3BD8C, symSize: 0x20C }
  - { offset: 0x2B62BE, size: 0x8, addend: 0x0, symName: __ZNSt3__16vectorIN5iplug10ParamTupleENS_9allocatorIS2_EEE8__appendEm, symObjAddr: 0x21C60, symBinAddr: 0x3C0C4, symSize: 0x1F4 }
  - { offset: 0x2B67AB, size: 0x8, addend: 0x0, symName: __ZN5iplug9igraphics11IVectorBase9MakeRectsERKNS0_5IRECTEb, symObjAddr: 0x21F98, symBinAddr: 0x3C3E8, symSize: 0x690 }
  - { offset: 0x2B7295, size: 0x8, addend: 0x0, symName: __ZN5iplug9igraphics21IVPeakAvgMeterControlILi1EED2Ev, symObjAddr: 0x1F5FC, symBinAddr: 0x39A60, symSize: 0x4C }
  - { offset: 0x2B72BB, size: 0x8, addend: 0x0, symName: __ZN5iplug9igraphics21IVPeakAvgMeterControlILi1EED2Ev, symObjAddr: 0x1F5FC, symBinAddr: 0x39A60, symSize: 0x4C }
  - { offset: 0x2B7405, size: 0x8, addend: 0x0, symName: __ZN5iplug9igraphics11IVectorBaseD2Ev, symObjAddr: 0x21B34, symBinAddr: 0x3BF98, symSize: 0x3C }
  - { offset: 0x2B75C1, size: 0x8, addend: 0x0, symName: __ZN5iplug9igraphics18IVTrackControlBaseD2Ev, symObjAddr: 0x2151C, symBinAddr: 0x3B980, symSize: 0x80 }
  - { offset: 0x2B7944, size: 0x8, addend: 0x0, symName: __ZN15NAMMeterControlD1Ev, symObjAddr: 0x1F648, symBinAddr: 0x39AAC, symSize: 0x5C }
  - { offset: 0x2B7C14, size: 0x8, addend: 0x0, symName: __ZN15NAMMeterControlD0Ev, symObjAddr: 0x1F6A4, symBinAddr: 0x39B08, symSize: 0x60 }
  - { offset: 0x2B7EDC, size: 0x8, addend: 0x0, symName: __ZN5iplug9igraphics18IVTrackControlBase11OnMouseOverEffRKNS0_9IMouseModE, symObjAddr: 0x1F704, symBinAddr: 0x39B68, symSize: 0x40 }
  - { offset: 0x2B7F4E, size: 0x8, addend: 0x0, symName: __ZN5iplug9igraphics18IVTrackControlBase10OnMouseOutEv, symObjAddr: 0x1F744, symBinAddr: 0x39BA8, symSize: 0x1C }
  - { offset: 0x2B7F7F, size: 0x8, addend: 0x0, symName: __ZN15NAMMeterControl9OnRescaleEv, symObjAddr: 0x1F760, symBinAddr: 0x39BC4, symSize: 0x128 }
  - { offset: 0x2B840D, size: 0x8, addend: 0x0, symName: __ZN15NAMMeterControl8OnResizeEv, symObjAddr: 0x1F888, symBinAddr: 0x39CEC, symSize: 0xB8 }
  - { offset: 0x2B855E, size: 0x8, addend: 0x0, symName: __ZN5iplug9igraphics21IVPeakAvgMeterControlILi1EE17OnMsgFromDelegateEiiPKv, symObjAddr: 0x1F940, symBinAddr: 0x39DA4, symSize: 0x3BC }
  - { offset: 0x2B8A5C, size: 0x8, addend: 0x0, symName: __ZN5iplug9igraphics14IVMeterControlILi1EE4DrawERNS0_9IGraphicsE, symObjAddr: 0x1FCFC, symBinAddr: 0x3A160, symSize: 0x28C }
  - { offset: 0x2B9011, size: 0x8, addend: 0x0, symName: __ZNK5iplug9igraphics18IVTrackControlBase15GetValIdxForPosEff, symObjAddr: 0x1FF88, symBinAddr: 0x3A3EC, symSize: 0xB4 }
  - { offset: 0x2B906C, size: 0x8, addend: 0x0, symName: __ZNK5iplug9igraphics18IVTrackControlBase15GetValIdxForPosEff, symObjAddr: 0x1FF88, symBinAddr: 0x3A3EC, symSize: 0xB4 }
  - { offset: 0x2B908A, size: 0x8, addend: 0x0, symName: __ZNK5iplug9igraphics18IVTrackControlBase15GetValIdxForPosEff, symObjAddr: 0x1FF88, symBinAddr: 0x3A3EC, symSize: 0xB4 }
  - { offset: 0x2B9124, size: 0x8, addend: 0x0, symName: __ZN5iplug9igraphics18IVTrackControlBase10DrawWidgetERNS0_9IGraphicsE, symObjAddr: 0x2003C, symBinAddr: 0x3A4A0, symSize: 0x80 }
  - { offset: 0x2B915E, size: 0x8, addend: 0x0, symName: __ZN5iplug9igraphics18IVTrackControlBase10DrawWidgetERNS0_9IGraphicsE, symObjAddr: 0x2003C, symBinAddr: 0x3A4A0, symSize: 0x80 }
  - { offset: 0x2B917C, size: 0x8, addend: 0x0, symName: __ZN5iplug9igraphics18IVTrackControlBase10DrawWidgetERNS0_9IGraphicsE, symObjAddr: 0x2003C, symBinAddr: 0x3A4A0, symSize: 0x80 }
  - { offset: 0x2B9208, size: 0x8, addend: 0x0, symName: __ZN15NAMMeterControl14DrawBackgroundERN5iplug9igraphics9IGraphicsERKNS1_5IRECTE, symObjAddr: 0x200BC, symBinAddr: 0x3A520, symSize: 0x1C }
  - { offset: 0x2B935E, size: 0x8, addend: 0x0, symName: __ZN5iplug9igraphics18IVTrackControlBase9DrawTrackERNS0_9IGraphicsERKNS0_5IRECTEi, symObjAddr: 0x200D8, symBinAddr: 0x3A53C, symSize: 0x35C }
  - { offset: 0x2B9845, size: 0x8, addend: 0x0, symName: __ZN5iplug9igraphics18IVTrackControlBase19DrawTrackBackgroundERNS0_9IGraphicsERKNS0_5IRECTEi, symObjAddr: 0x20434, symBinAddr: 0x3A898, symSize: 0x30 }
  - { offset: 0x2B9907, size: 0x8, addend: 0x0, symName: __ZN5iplug9igraphics18IVTrackControlBase13DrawTrackNameERNS0_9IGraphicsERKNS0_5IRECTEi, symObjAddr: 0x20464, symBinAddr: 0x3A8C8, symSize: 0x80 }
  - { offset: 0x2B9A77, size: 0x8, addend: 0x0, symName: __ZN15NAMMeterControl15DrawTrackHandleERN5iplug9igraphics9IGraphicsERKNS1_5IRECTEib, symObjAddr: 0x204E4, symBinAddr: 0x3A948, symSize: 0x38 }
  - { offset: 0x2B9ADB, size: 0x8, addend: 0x0, symName: __ZN15NAMMeterControl15DrawTrackHandleERN5iplug9igraphics9IGraphicsERKNS1_5IRECTEib, symObjAddr: 0x204E4, symBinAddr: 0x3A948, symSize: 0x38 }
  - { offset: 0x2B9B55, size: 0x8, addend: 0x0, symName: __ZN15NAMMeterControl8DrawPeakERN5iplug9igraphics9IGraphicsERKNS1_5IRECTEib, symObjAddr: 0x2051C, symBinAddr: 0x3A980, symSize: 0x1C }
  - { offset: 0x2B9C9B, size: 0x8, addend: 0x0, symName: __ZN5iplug9igraphics18IVTrackControlBase14MakeTrackRectsERKNS0_5IRECTE, symObjAddr: 0x20538, symBinAddr: 0x3A99C, symSize: 0x22C }
  - { offset: 0x2B9CF4, size: 0x8, addend: 0x0, symName: __ZN5iplug9igraphics18IVTrackControlBase14MakeTrackRectsERKNS0_5IRECTE, symObjAddr: 0x20538, symBinAddr: 0x3A99C, symSize: 0x22C }
  - { offset: 0x2B9D12, size: 0x8, addend: 0x0, symName: __ZN5iplug9igraphics18IVTrackControlBase14MakeTrackRectsERKNS0_5IRECTE, symObjAddr: 0x20538, symBinAddr: 0x3A99C, symSize: 0x22C }
  - { offset: 0x2B9E11, size: 0x8, addend: 0x0, symName: __ZN5iplug9igraphics18IVTrackControlBase13MakeStepRectsERKNS0_5IRECTEi, symObjAddr: 0x20764, symBinAddr: 0x3ABC8, symSize: 0x298 }
  - { offset: 0x2B9FDD, size: 0x8, addend: 0x0, symName: __ZThn8_N15NAMMeterControlD1Ev, symObjAddr: 0x209FC, symBinAddr: 0x3AE60, symSize: 0x64 }
  - { offset: 0x2BA2A3, size: 0x8, addend: 0x0, symName: __ZThn8_N15NAMMeterControlD0Ev, symObjAddr: 0x20A60, symBinAddr: 0x3AEC4, symSize: 0x68 }
  - { offset: 0x2BA56D, size: 0x8, addend: 0x0, symName: __ZThn488_N15NAMMeterControlD1Ev, symObjAddr: 0x20AC8, symBinAddr: 0x3AF2C, symSize: 0x68 }
  - { offset: 0x2BA816, size: 0x8, addend: 0x0, symName: __ZThn488_N15NAMMeterControlD0Ev, symObjAddr: 0x20B30, symBinAddr: 0x3AF94, symSize: 0x6C }
  - { offset: 0x2BAAD8, size: 0x8, addend: 0x0, symName: __ZN5iplug9igraphics11IVectorBase14OnStyleChangedEv, symObjAddr: 0x20B9C, symBinAddr: 0x3B000, symSize: 0x4 }
  - { offset: 0x2BAB20, size: 0x8, addend: 0x0, symName: __ZN5iplug9igraphics11IVectorBase8SetStyleERKNS0_7IVStyleE, symObjAddr: 0x20BA0, symBinAddr: 0x3B004, symSize: 0x80 }
  - { offset: 0x2BABBD, size: 0x8, addend: 0x0, symName: __ZThn488_N15NAMMeterControl14DrawBackgroundERN5iplug9igraphics9IGraphicsERKNS1_5IRECTE, symObjAddr: 0x20C20, symBinAddr: 0x3B084, symSize: 0x1C }
  - { offset: 0x2BAC50, size: 0x8, addend: 0x0, symName: __ZThn488_N5iplug9igraphics18IVTrackControlBase10DrawWidgetERNS0_9IGraphicsE, symObjAddr: 0x20C3C, symBinAddr: 0x3B0A0, symSize: 0x84 }
  - { offset: 0x2BAC8B, size: 0x8, addend: 0x0, symName: __ZThn488_N5iplug9igraphics18IVTrackControlBase10DrawWidgetERNS0_9IGraphicsE, symObjAddr: 0x20C3C, symBinAddr: 0x3B0A0, symSize: 0x84 }
  - { offset: 0x2BACA1, size: 0x8, addend: 0x0, symName: __ZThn488_N5iplug9igraphics18IVTrackControlBase10DrawWidgetERNS0_9IGraphicsE, symObjAddr: 0x20C3C, symBinAddr: 0x3B0A0, symSize: 0x84 }
  - { offset: 0x2BAD3C, size: 0x8, addend: 0x0, symName: __ZN5iplug9igraphics11IVectorBase9DrawLabelERNS0_9IGraphicsE, symObjAddr: 0x20CC0, symBinAddr: 0x3B124, symSize: 0x84 }
  - { offset: 0x2BAD77, size: 0x8, addend: 0x0, symName: __ZN5iplug9igraphics11IVectorBase9DrawLabelERNS0_9IGraphicsE, symObjAddr: 0x20CC0, symBinAddr: 0x3B124, symSize: 0x84 }
  - { offset: 0x2BAE54, size: 0x8, addend: 0x0, symName: __ZN5iplug9igraphics11IVectorBase9DrawValueERNS0_9IGraphicsEb, symObjAddr: 0x20D44, symBinAddr: 0x3B1A8, symSize: 0xB0 }
  - { offset: 0x2BAF6F, size: 0x8, addend: 0x0, symName: __ZN5iplug9igraphics11IVectorBase18DrawPressableShapeERNS0_9IGraphicsENS0_7EVShapeERKNS0_5IRECTEbbb, symObjAddr: 0x20DF4, symBinAddr: 0x3B258, symSize: 0xB8 }
  - { offset: 0x2BB026, size: 0x8, addend: 0x0, symName: __ZN5iplug9igraphics11IVectorBase20DrawPressableEllipseERNS0_9IGraphicsERKNS0_5IRECTEbbb, symObjAddr: 0x22628, symBinAddr: 0x3CA78, symSize: 0x59C }
  - { offset: 0x2BBD9C, size: 0x8, addend: 0x0, symName: __ZN5iplug9igraphics11IVectorBase21DrawPressableTriangleERNS0_9IGraphicsERKNS0_5IRECTEbbfb, symObjAddr: 0x23268, symBinAddr: 0x3D6B8, symSize: 0x470 }
  - { offset: 0x2BC563, size: 0x8, addend: 0x0, symName: __ZN5iplug9igraphics11IVectorBase22DrawPressableRectangleERNS0_9IGraphicsERKNS0_5IRECTEbbbbbbb, symObjAddr: 0x22BC4, symBinAddr: 0x3D014, symSize: 0x6A4 }
  - { offset: 0x2BD315, size: 0x8, addend: 0x0, symName: __ZThn1224_N15NAMMeterControlD1Ev, symObjAddr: 0x20EAC, symBinAddr: 0x3B310, symSize: 0x6C }
  - { offset: 0x2BD5AD, size: 0x8, addend: 0x0, symName: __ZThn1224_N15NAMMeterControlD0Ev, symObjAddr: 0x20F18, symBinAddr: 0x3B37C, symSize: 0x70 }
  - { offset: 0x2BD85E, size: 0x8, addend: 0x0, symName: __ZN5iplug9igraphics21IVPeakAvgMeterControlILi1EED1Ev, symObjAddr: 0x20F88, symBinAddr: 0x3B3EC, symSize: 0x4C }
  - { offset: 0x2BD884, size: 0x8, addend: 0x0, symName: __ZN5iplug9igraphics21IVPeakAvgMeterControlILi1EED1Ev, symObjAddr: 0x20F88, symBinAddr: 0x3B3EC, symSize: 0x4C }
  - { offset: 0x2BD8A3, size: 0x8, addend: 0x0, symName: __ZN5iplug9igraphics21IVPeakAvgMeterControlILi1EED1Ev, symObjAddr: 0x20F88, symBinAddr: 0x3B3EC, symSize: 0x4C }
  - { offset: 0x2BDA0E, size: 0x8, addend: 0x0, symName: __ZN5iplug9igraphics21IVPeakAvgMeterControlILi1EED0Ev, symObjAddr: 0x20FD4, symBinAddr: 0x3B438, symSize: 0x4C }
  - { offset: 0x2BDBBA, size: 0x8, addend: 0x0, symName: __ZN5iplug9igraphics18IVTrackControlBase8OnResizeEv, symObjAddr: 0x21020, symBinAddr: 0x3B484, symSize: 0x78 }
  - { offset: 0x2BDC32, size: 0x8, addend: 0x0, symName: __ZN5iplug9igraphics18IVTrackControlBase14DrawBackgroundERNS0_9IGraphicsERKNS0_5IRECTE, symObjAddr: 0x21098, symBinAddr: 0x3B4FC, symSize: 0xE8 }
  - { offset: 0x2BDDD1, size: 0x8, addend: 0x0, symName: __ZN5iplug9igraphics18IVTrackControlBase15DrawTrackHandleERNS0_9IGraphicsERKNS0_5IRECTEib, symObjAddr: 0x21180, symBinAddr: 0x3B5E4, symSize: 0x90 }
  - { offset: 0x2BDEC9, size: 0x8, addend: 0x0, symName: __ZN5iplug9igraphics21IVPeakAvgMeterControlILi1EE8DrawPeakERNS0_9IGraphicsERKNS0_5IRECTEib, symObjAddr: 0x21210, symBinAddr: 0x3B674, symSize: 0xD4 }
  - { offset: 0x2BE0DB, size: 0x8, addend: 0x0, symName: __ZThn8_N5iplug9igraphics21IVPeakAvgMeterControlILi1EED1Ev, symObjAddr: 0x212E4, symBinAddr: 0x3B748, symSize: 0x50 }
  - { offset: 0x2BE280, size: 0x8, addend: 0x0, symName: __ZThn8_N5iplug9igraphics21IVPeakAvgMeterControlILi1EED0Ev, symObjAddr: 0x21334, symBinAddr: 0x3B798, symSize: 0x54 }
  - { offset: 0x2BE429, size: 0x8, addend: 0x0, symName: __ZThn488_N5iplug9igraphics21IVPeakAvgMeterControlILi1EED1Ev, symObjAddr: 0x21388, symBinAddr: 0x3B7EC, symSize: 0x54 }
  - { offset: 0x2BE5B2, size: 0x8, addend: 0x0, symName: __ZThn488_N5iplug9igraphics21IVPeakAvgMeterControlILi1EED0Ev, symObjAddr: 0x213DC, symBinAddr: 0x3B840, symSize: 0x58 }
  - { offset: 0x2BE785, size: 0x8, addend: 0x0, symName: __ZThn488_N5iplug9igraphics18IVTrackControlBase14DrawBackgroundERNS0_9IGraphicsERKNS0_5IRECTE, symObjAddr: 0x21434, symBinAddr: 0x3B898, symSize: 0xE8 }
  - { offset: 0x2BE951, size: 0x8, addend: 0x0, symName: __ZN11WDL_PtrListI10WDL_StringE5EmptyEbPFvPvE, symObjAddr: 0x21E68, symBinAddr: 0x3C2B8, symSize: 0x130 }
  - { offset: 0x2BEB3B, size: 0x8, addend: 0x0, symName: __ZN5iplug9igraphics14IVMeterControlILi1EED1Ev, symObjAddr: 0x2159C, symBinAddr: 0x3BA00, symSize: 0x4C }
  - { offset: 0x2BEB61, size: 0x8, addend: 0x0, symName: __ZN5iplug9igraphics14IVMeterControlILi1EED1Ev, symObjAddr: 0x2159C, symBinAddr: 0x3BA00, symSize: 0x4C }
  - { offset: 0x2BECCB, size: 0x8, addend: 0x0, symName: __ZN5iplug9igraphics14IVMeterControlILi1EED0Ev, symObjAddr: 0x215E8, symBinAddr: 0x3BA4C, symSize: 0x4C }
  - { offset: 0x2BEEC6, size: 0x8, addend: 0x0, symName: __ZN5iplug9igraphics14IVMeterControlILi1EE17OnMsgFromDelegateEiiPKv, symObjAddr: 0x21634, symBinAddr: 0x3BA98, symSize: 0x188 }
  - { offset: 0x2BF21D, size: 0x8, addend: 0x0, symName: __ZN5iplug9igraphics14IVMeterControlILi1EE8DrawPeakERNS0_9IGraphicsERKNS0_5IRECTEib, symObjAddr: 0x217BC, symBinAddr: 0x3BC20, symSize: 0x1C }
  - { offset: 0x2BF2D7, size: 0x8, addend: 0x0, symName: __ZThn8_N5iplug9igraphics14IVMeterControlILi1EED1Ev, symObjAddr: 0x217D8, symBinAddr: 0x3BC3C, symSize: 0x50 }
  - { offset: 0x2BF45C, size: 0x8, addend: 0x0, symName: __ZThn8_N5iplug9igraphics14IVMeterControlILi1EED0Ev, symObjAddr: 0x21828, symBinAddr: 0x3BC8C, symSize: 0x54 }
  - { offset: 0x2BF5E5, size: 0x8, addend: 0x0, symName: __ZThn488_N5iplug9igraphics14IVMeterControlILi1EED1Ev, symObjAddr: 0x2187C, symBinAddr: 0x3BCE0, symSize: 0x54 }
  - { offset: 0x2BF74E, size: 0x8, addend: 0x0, symName: __ZThn488_N5iplug9igraphics14IVMeterControlILi1EED0Ev, symObjAddr: 0x218D0, symBinAddr: 0x3BD34, symSize: 0x58 }
  - { offset: 0x2BFAC0, size: 0x8, addend: 0x0, symName: __ZN5iplug9igraphics18IVTrackControlBaseD1Ev, symObjAddr: 0x21B70, symBinAddr: 0x3BFD4, symSize: 0x4 }
  - { offset: 0x2BFAE1, size: 0x8, addend: 0x0, symName: __ZN5iplug9igraphics18IVTrackControlBaseD0Ev, symObjAddr: 0x21B74, symBinAddr: 0x3BFD8, symSize: 0x4 }
  - { offset: 0x2BFB02, size: 0x8, addend: 0x0, symName: __ZN5iplug9igraphics18IVTrackControlBase8DrawPeakERNS0_9IGraphicsERKNS0_5IRECTEib, symObjAddr: 0x21B78, symBinAddr: 0x3BFDC, symSize: 0x1C }
  - { offset: 0x2BFBE7, size: 0x8, addend: 0x0, symName: __ZThn8_N5iplug9igraphics18IVTrackControlBaseD1Ev, symObjAddr: 0x21B94, symBinAddr: 0x3BFF8, symSize: 0x4 }
  - { offset: 0x2BFC02, size: 0x8, addend: 0x0, symName: __ZThn8_N5iplug9igraphics18IVTrackControlBaseD1Ev, symObjAddr: 0x21B94, symBinAddr: 0x3BFF8, symSize: 0x4 }
  - { offset: 0x2BFC38, size: 0x8, addend: 0x0, symName: __ZThn8_N5iplug9igraphics18IVTrackControlBaseD0Ev, symObjAddr: 0x21B98, symBinAddr: 0x3BFFC, symSize: 0x4 }
  - { offset: 0x2BFC53, size: 0x8, addend: 0x0, symName: __ZThn8_N5iplug9igraphics18IVTrackControlBaseD0Ev, symObjAddr: 0x21B98, symBinAddr: 0x3BFFC, symSize: 0x4 }
  - { offset: 0x2BFC6F, size: 0x8, addend: 0x0, symName: __ZThn488_N5iplug9igraphics18IVTrackControlBaseD1Ev, symObjAddr: 0x21B9C, symBinAddr: 0x3C000, symSize: 0x4 }
  - { offset: 0x2BFC8A, size: 0x8, addend: 0x0, symName: __ZThn488_N5iplug9igraphics18IVTrackControlBaseD1Ev, symObjAddr: 0x21B9C, symBinAddr: 0x3C000, symSize: 0x4 }
  - { offset: 0x2BFCA7, size: 0x8, addend: 0x0, symName: __ZThn488_N5iplug9igraphics18IVTrackControlBaseD0Ev, symObjAddr: 0x21BA0, symBinAddr: 0x3C004, symSize: 0x4 }
  - { offset: 0x2BFCC2, size: 0x8, addend: 0x0, symName: __ZThn488_N5iplug9igraphics18IVTrackControlBaseD0Ev, symObjAddr: 0x21BA0, symBinAddr: 0x3C004, symSize: 0x4 }
  - { offset: 0x2BFCDF, size: 0x8, addend: 0x0, symName: __ZN5iplug9igraphics11IVectorBaseD1Ev, symObjAddr: 0x21BA4, symBinAddr: 0x3C008, symSize: 0x3C }
  - { offset: 0x2BFE65, size: 0x8, addend: 0x0, symName: __ZN5iplug9igraphics11IVectorBaseD0Ev, symObjAddr: 0x21BE0, symBinAddr: 0x3C044, symSize: 0x3C }
  - { offset: 0x2BFFF4, size: 0x8, addend: 0x0, symName: __ZN5iplug9igraphics11IVectorBase14DrawBackgroundERNS0_9IGraphicsERKNS0_5IRECTE, symObjAddr: 0x21C1C, symBinAddr: 0x3C080, symSize: 0x40 }
  - { offset: 0x2C009E, size: 0x8, addend: 0x0, symName: __ZN5iplug9igraphics11IVectorBase10DrawWidgetERNS0_9IGraphicsE, symObjAddr: 0x21C5C, symBinAddr: 0x3C0C0, symSize: 0x4 }
  - { offset: 0x2C0713, size: 0x8, addend: 0x0, symName: __ZN5iplug9igraphics13IVKnobControlD2Ev, symObjAddr: 0x245A8, symBinAddr: 0x3E9F8, symSize: 0x3C }
  - { offset: 0x2C092C, size: 0x8, addend: 0x0, symName: __ZN18NAMGateKnobControlD1Ev, symObjAddr: 0x237E8, symBinAddr: 0x3DC38, symSize: 0x50 }
  - { offset: 0x2C0C37, size: 0x8, addend: 0x0, symName: __ZN18NAMGateKnobControlD0Ev, symObjAddr: 0x23838, symBinAddr: 0x3DC88, symSize: 0x54 }
  - { offset: 0x2C106C, size: 0x8, addend: 0x0, symName: __ZN18NAMGateKnobControl15OnMouseDblClickEffRKN5iplug9igraphics9IMouseModE, symObjAddr: 0x23D14, symBinAddr: 0x3E164, symSize: 0xDC }
  - { offset: 0x2C10E9, size: 0x8, addend: 0x0, symName: __ZN18NAMGateKnobControl15OnMouseDblClickEffRKN5iplug9igraphics9IMouseModE, symObjAddr: 0x23D14, symBinAddr: 0x3E164, symSize: 0xDC }
  - { offset: 0x2C110E, size: 0x8, addend: 0x0, symName: __ZN18NAMGateKnobControl15OnMouseDblClickEffRKN5iplug9igraphics9IMouseModE, symObjAddr: 0x23D14, symBinAddr: 0x3E164, symSize: 0xDC }
  - { offset: 0x2C1132, size: 0x8, addend: 0x0, symName: __ZN18NAMGateKnobControl15OnMouseDblClickEffRKN5iplug9igraphics9IMouseModE, symObjAddr: 0x23D14, symBinAddr: 0x3E164, symSize: 0xDC }
  - { offset: 0x2C13EA, size: 0x8, addend: 0x0, symName: __ZN5iplug9igraphics13IVKnobControl10OnMouseOutEv, symObjAddr: 0x23DF0, symBinAddr: 0x3E240, symSize: 0x2C }
  - { offset: 0x2C1444, size: 0x8, addend: 0x0, symName: __ZN14NAMKnobControl9OnRescaleEv, symObjAddr: 0x23E1C, symBinAddr: 0x3E26C, symSize: 0x128 }
  - { offset: 0x2C18D2, size: 0x8, addend: 0x0, symName: __ZNK18NAMGateKnobControl5IsHitEff, symObjAddr: 0x23F44, symBinAddr: 0x3E394, symSize: 0x178 }
  - { offset: 0x2C191D, size: 0x8, addend: 0x0, symName: __ZNK18NAMGateKnobControl5IsHitEff, symObjAddr: 0x23F44, symBinAddr: 0x3E394, symSize: 0x178 }
  - { offset: 0x2C1950, size: 0x8, addend: 0x0, symName: __ZNK18NAMGateKnobControl5IsHitEff, symObjAddr: 0x23F44, symBinAddr: 0x3E394, symSize: 0x178 }
  - { offset: 0x2C1C99, size: 0x8, addend: 0x0, symName: __ZN14NAMKnobControl10DrawWidgetERN5iplug9igraphics9IGraphicsE, symObjAddr: 0x240BC, symBinAddr: 0x3E50C, symSize: 0x2D8 }
  - { offset: 0x2C2290, size: 0x8, addend: 0x0, symName: __ZThn8_N18NAMGateKnobControlD1Ev, symObjAddr: 0x24394, symBinAddr: 0x3E7E4, symSize: 0x54 }
  - { offset: 0x2C25AB, size: 0x8, addend: 0x0, symName: __ZThn8_N18NAMGateKnobControlD0Ev, symObjAddr: 0x243E8, symBinAddr: 0x3E838, symSize: 0x58 }
  - { offset: 0x2C28C0, size: 0x8, addend: 0x0, symName: __ZThn520_N18NAMGateKnobControlD1Ev, symObjAddr: 0x24440, symBinAddr: 0x3E890, symSize: 0x54 }
  - { offset: 0x2C2BBB, size: 0x8, addend: 0x0, symName: __ZThn520_N18NAMGateKnobControlD0Ev, symObjAddr: 0x24494, symBinAddr: 0x3E8E4, symSize: 0x58 }
  - { offset: 0x2C2ECD, size: 0x8, addend: 0x0, symName: __ZThn520_N14NAMKnobControl10DrawWidgetERN5iplug9igraphics9IGraphicsE, symObjAddr: 0x244EC, symBinAddr: 0x3E93C, symSize: 0x8 }
  - { offset: 0x2C2EF3, size: 0x8, addend: 0x0, symName: __ZThn1136_N18NAMGateKnobControlD1Ev, symObjAddr: 0x244F4, symBinAddr: 0x3E944, symSize: 0x58 }
  - { offset: 0x2C31DF, size: 0x8, addend: 0x0, symName: __ZThn1136_N18NAMGateKnobControlD0Ev, symObjAddr: 0x2454C, symBinAddr: 0x3E99C, symSize: 0x5C }
  - { offset: 0x2C34E2, size: 0x8, addend: 0x0, symName: __ZN14NAMKnobControlD1Ev, symObjAddr: 0x245E4, symBinAddr: 0x3EA34, symSize: 0x50 }
  - { offset: 0x2C37CC, size: 0x8, addend: 0x0, symName: __ZN14NAMKnobControlD0Ev, symObjAddr: 0x24634, symBinAddr: 0x3EA84, symSize: 0x54 }
  - { offset: 0x2C3AAE, size: 0x8, addend: 0x0, symName: __ZN14NAMKnobControl15OnMouseDblClickEffRKN5iplug9igraphics9IMouseModE, symObjAddr: 0x24988, symBinAddr: 0x3EDD8, symSize: 0xDC }
  - { offset: 0x2C3AFA, size: 0x8, addend: 0x0, symName: __ZN14NAMKnobControl15OnMouseDblClickEffRKN5iplug9igraphics9IMouseModE, symObjAddr: 0x24988, symBinAddr: 0x3EDD8, symSize: 0xDC }
  - { offset: 0x2C3B1F, size: 0x8, addend: 0x0, symName: __ZN14NAMKnobControl15OnMouseDblClickEffRKN5iplug9igraphics9IMouseModE, symObjAddr: 0x24988, symBinAddr: 0x3EDD8, symSize: 0xDC }
  - { offset: 0x2C3B43, size: 0x8, addend: 0x0, symName: __ZN14NAMKnobControl15OnMouseDblClickEffRKN5iplug9igraphics9IMouseModE, symObjAddr: 0x24988, symBinAddr: 0x3EDD8, symSize: 0xDC }
  - { offset: 0x2C3DFA, size: 0x8, addend: 0x0, symName: __ZNK14NAMKnobControl5IsHitEff, symObjAddr: 0x24A64, symBinAddr: 0x3EEB4, symSize: 0xEC }
  - { offset: 0x2C3E45, size: 0x8, addend: 0x0, symName: __ZNK14NAMKnobControl5IsHitEff, symObjAddr: 0x24A64, symBinAddr: 0x3EEB4, symSize: 0xEC }
  - { offset: 0x2C3E77, size: 0x8, addend: 0x0, symName: __ZNK14NAMKnobControl5IsHitEff, symObjAddr: 0x24A64, symBinAddr: 0x3EEB4, symSize: 0xEC }
  - { offset: 0x2C3EE5, size: 0x8, addend: 0x0, symName: __ZThn8_N14NAMKnobControlD1Ev, symObjAddr: 0x24B50, symBinAddr: 0x3EFA0, symSize: 0x54 }
  - { offset: 0x2C41DF, size: 0x8, addend: 0x0, symName: __ZThn8_N14NAMKnobControlD0Ev, symObjAddr: 0x24BA4, symBinAddr: 0x3EFF4, symSize: 0x58 }
  - { offset: 0x2C44D5, size: 0x8, addend: 0x0, symName: __ZThn520_N14NAMKnobControlD1Ev, symObjAddr: 0x24BFC, symBinAddr: 0x3F04C, symSize: 0x54 }
  - { offset: 0x2C47AF, size: 0x8, addend: 0x0, symName: __ZThn520_N14NAMKnobControlD0Ev, symObjAddr: 0x24C50, symBinAddr: 0x3F0A0, symSize: 0x58 }
  - { offset: 0x2C4AA2, size: 0x8, addend: 0x0, symName: __ZThn1136_N14NAMKnobControlD1Ev, symObjAddr: 0x24CA8, symBinAddr: 0x3F0F8, symSize: 0x58 }
  - { offset: 0x2C4D6D, size: 0x8, addend: 0x0, symName: __ZThn1136_N14NAMKnobControlD0Ev, symObjAddr: 0x24D00, symBinAddr: 0x3F150, symSize: 0x5C }
  - { offset: 0x2C5051, size: 0x8, addend: 0x0, symName: '__ZNSt3__110__function6__funcIZZN7PhoenixC1ERKN5iplug12InstanceInfoEENK3$_1clEPNS3_9igraphics9IGraphicsEEUlRK10WDL_StringSD_E_FvSD_SD_EED1Ev', symObjAddr: 0x24D5C, symBinAddr: 0x3F1AC, symSize: 0x4 }
  - { offset: 0x2C5080, size: 0x8, addend: 0x0, symName: '__ZNSt3__110__function6__funcIZZN7PhoenixC1ERKN5iplug12InstanceInfoEENK3$_1clEPNS3_9igraphics9IGraphicsEEUlRK10WDL_StringSD_E_FvSD_SD_EED0Ev', symObjAddr: 0x24D60, symBinAddr: 0x3F1B0, symSize: 0x4 }
  - { offset: 0x2C50F7, size: 0x8, addend: 0x0, symName: '__ZNKSt3__110__function6__funcIZZN7PhoenixC1ERKN5iplug12InstanceInfoEENK3$_1clEPNS3_9igraphics9IGraphicsEEUlRK10WDL_StringSD_E_FvSD_SD_EE7__cloneEv', symObjAddr: 0x24D64, symBinAddr: 0x3F1B4, symSize: 0x34 }
  - { offset: 0x2C515A, size: 0x8, addend: 0x0, symName: '__ZNKSt3__110__function6__funcIZZN7PhoenixC1ERKN5iplug12InstanceInfoEENK3$_1clEPNS3_9igraphics9IGraphicsEEUlRK10WDL_StringSD_E_FvSD_SD_EE7__cloneEPNS0_6__baseISF_EE', symObjAddr: 0x24D98, symBinAddr: 0x3F1E8, symSize: 0x14 }
  - { offset: 0x2C51C9, size: 0x8, addend: 0x0, symName: '__ZNSt3__110__function6__funcIZZN7PhoenixC1ERKN5iplug12InstanceInfoEENK3$_1clEPNS3_9igraphics9IGraphicsEEUlRK10WDL_StringSD_E_FvSD_SD_EE7destroyEv', symObjAddr: 0x24DAC, symBinAddr: 0x3F1FC, symSize: 0x4 }
  - { offset: 0x2C51EC, size: 0x8, addend: 0x0, symName: '__ZNSt3__110__function6__funcIZZN7PhoenixC1ERKN5iplug12InstanceInfoEENK3$_1clEPNS3_9igraphics9IGraphicsEEUlRK10WDL_StringSD_E_FvSD_SD_EE18destroy_deallocateEv', symObjAddr: 0x24DB0, symBinAddr: 0x3F200, symSize: 0x14 }
  - { offset: 0x2C5656, size: 0x8, addend: 0x0, symName: '__ZNSt3__110__function6__funcIZZN7PhoenixC1ERKN5iplug12InstanceInfoEENK3$_1clEPNS3_9igraphics9IGraphicsEEUlRK10WDL_StringSD_E_FvSD_SD_EEclESD_SD_', symObjAddr: 0x24DC4, symBinAddr: 0x3F214, symSize: 0x42C }
  - { offset: 0x2C658B, size: 0x8, addend: 0x0, symName: '__ZNKSt3__110__function6__funcIZZN7PhoenixC1ERKN5iplug12InstanceInfoEENK3$_1clEPNS3_9igraphics9IGraphicsEEUlRK10WDL_StringSD_E_FvSD_SD_EE6targetERKSt9type_info', symObjAddr: 0x251F0, symBinAddr: 0x3F640, symSize: 0x60 }
  - { offset: 0x2C6647, size: 0x8, addend: 0x0, symName: '__ZNKSt3__110__function6__funcIZZN7PhoenixC1ERKN5iplug12InstanceInfoEENK3$_1clEPNS3_9igraphics9IGraphicsEEUlRK10WDL_StringSD_E_FvSD_SD_EE11target_typeEv', symObjAddr: 0x25250, symBinAddr: 0x3F6A0, symSize: 0xC }
  - { offset: 0x2C68AB, size: 0x8, addend: 0x0, symName: __ZN5iplug9igraphics10IPopupMenuC2EPKcibRKSt16initializer_listIS3_E, symObjAddr: 0x27340, symBinAddr: 0x41790, symSize: 0x114 }
  - { offset: 0x2C6C37, size: 0x8, addend: 0x0, symName: __ZN5iplug9igraphics14IContainerBaseD2Ev, symObjAddr: 0x26F98, symBinAddr: 0x413E8, symSize: 0xCC }
  - { offset: 0x2C6E63, size: 0x8, addend: 0x0, symName: __ZN21NAMFileBrowserControlD1Ev, symObjAddr: 0x256A4, symBinAddr: 0x3FAF4, symSize: 0x6C }
  - { offset: 0x2C70BF, size: 0x8, addend: 0x0, symName: __ZN21NAMFileBrowserControlD0Ev, symObjAddr: 0x25710, symBinAddr: 0x3FB60, symSize: 0x70 }
  - { offset: 0x2C73C5, size: 0x8, addend: 0x0, symName: __ZN5iplug9igraphics14IContainerBase8OnResizeEv, symObjAddr: 0x25780, symBinAddr: 0x3FBD0, symSize: 0x48 }
  - { offset: 0x2C83DD, size: 0x8, addend: 0x0, symName: __ZN21NAMFileBrowserControl17OnMsgFromDelegateEiiPKv, symObjAddr: 0x265F0, symBinAddr: 0x40A40, symSize: 0x50C }
  - { offset: 0x2C9853, size: 0x8, addend: 0x0, symName: __ZN18NAMFileNameControl29SetLabelAndTooltipEllipsizingERK10WDL_String, symObjAddr: 0x27BBC, symBinAddr: 0x4200C, symSize: 0x57C }
  - { offset: 0x2CB2DF, size: 0x8, addend: 0x0, symName: __ZN21NAMFileBrowserControl20OnPopupMenuSelectionEPN5iplug9igraphics10IPopupMenuEi, symObjAddr: 0x26AFC, symBinAddr: 0x40F4C, symSize: 0x7C }
  - { offset: 0x2CB48F, size: 0x8, addend: 0x0, symName: __ZN21NAMFileBrowserControl22LoadFileAtCurrentIndexEv, symObjAddr: 0x27B08, symBinAddr: 0x41F58, symSize: 0xB4 }
  - { offset: 0x2CB931, size: 0x8, addend: 0x0, symName: __ZN21NAMFileBrowserControl4DrawERN5iplug9igraphics9IGraphicsE, symObjAddr: 0x26B78, symBinAddr: 0x40FC8, symSize: 0x20 }
  - { offset: 0x2CBD0A, size: 0x8, addend: 0x0, symName: __ZThn8_N21NAMFileBrowserControlD1Ev, symObjAddr: 0x26EAC, symBinAddr: 0x412FC, symSize: 0x74 }
  - { offset: 0x2CBF76, size: 0x8, addend: 0x0, symName: __ZThn8_N21NAMFileBrowserControlD0Ev, symObjAddr: 0x26F20, symBinAddr: 0x41370, symSize: 0x78 }
  - { offset: 0x2CC304, size: 0x8, addend: 0x0, symName: __ZN5iplug9igraphics14IContainerBaseD1Ev, symObjAddr: 0x27064, symBinAddr: 0x414B4, symSize: 0xCC }
  - { offset: 0x2CC54E, size: 0x8, addend: 0x0, symName: __ZN5iplug9igraphics14IContainerBaseD0Ev, symObjAddr: 0x27130, symBinAddr: 0x41580, symSize: 0xD0 }
  - { offset: 0x2CC79F, size: 0x8, addend: 0x0, symName: __ZN5iplug9igraphics14IContainerBase10OnAttachedEv, symObjAddr: 0x27200, symBinAddr: 0x41650, symSize: 0x58 }
  - { offset: 0x2CC867, size: 0x8, addend: 0x0, symName: __ZN5iplug9igraphics14IContainerBase4DrawERNS0_9IGraphicsE, symObjAddr: 0x27258, symBinAddr: 0x416A8, symSize: 0x4 }
  - { offset: 0x2CC89B, size: 0x8, addend: 0x0, symName: __ZThn8_N5iplug9igraphics14IContainerBaseD1Ev, symObjAddr: 0x2725C, symBinAddr: 0x416AC, symSize: 0xDC }
  - { offset: 0x2CCADB, size: 0x8, addend: 0x0, symName: __ZThn8_N5iplug9igraphics14IContainerBaseD0Ev, symObjAddr: 0x27338, symBinAddr: 0x41788, symSize: 0x8 }
  - { offset: 0x2CCBA5, size: 0x8, addend: 0x0, symName: __ZNSt3__110__function6__funcIPFvPN5iplug9igraphics8IControlEES6_ED1Ev, symObjAddr: 0x27454, symBinAddr: 0x418A4, symSize: 0x4 }
  - { offset: 0x2CCBD4, size: 0x8, addend: 0x0, symName: __ZNSt3__110__function6__funcIPFvPN5iplug9igraphics8IControlEES6_ED0Ev, symObjAddr: 0x27458, symBinAddr: 0x418A8, symSize: 0x4 }
  - { offset: 0x2CCBFF, size: 0x8, addend: 0x0, symName: __ZNKSt3__110__function6__funcIPFvPN5iplug9igraphics8IControlEES6_E7__cloneEv, symObjAddr: 0x2745C, symBinAddr: 0x418AC, symSize: 0x34 }
  - { offset: 0x2CCC76, size: 0x8, addend: 0x0, symName: __ZNKSt3__110__function6__funcIPFvPN5iplug9igraphics8IControlEES6_E7__cloneEPNS0_6__baseIS6_EE, symObjAddr: 0x27490, symBinAddr: 0x418E0, symSize: 0x14 }
  - { offset: 0x2CCCA2, size: 0x8, addend: 0x0, symName: __ZNKSt3__110__function6__funcIPFvPN5iplug9igraphics8IControlEES6_E7__cloneEPNS0_6__baseIS6_EE, symObjAddr: 0x27490, symBinAddr: 0x418E0, symSize: 0x14 }
  - { offset: 0x2CCCC9, size: 0x8, addend: 0x0, symName: __ZNKSt3__110__function6__funcIPFvPN5iplug9igraphics8IControlEES6_E7__cloneEPNS0_6__baseIS6_EE, symObjAddr: 0x27490, symBinAddr: 0x418E0, symSize: 0x14 }
  - { offset: 0x2CCCEF, size: 0x8, addend: 0x0, symName: __ZNSt3__110__function6__funcIPFvPN5iplug9igraphics8IControlEES6_E7destroyEv, symObjAddr: 0x274A4, symBinAddr: 0x418F4, symSize: 0x4 }
  - { offset: 0x2CCD14, size: 0x8, addend: 0x0, symName: __ZNSt3__110__function6__funcIPFvPN5iplug9igraphics8IControlEES6_E18destroy_deallocateEv, symObjAddr: 0x274A8, symBinAddr: 0x418F8, symSize: 0x14 }
  - { offset: 0x2CCD82, size: 0x8, addend: 0x0, symName: __ZNSt3__110__function6__funcIPFvPN5iplug9igraphics8IControlEES6_EclEOS5_, symObjAddr: 0x274BC, symBinAddr: 0x4190C, symSize: 0xC }
  - { offset: 0x2CCDBA, size: 0x8, addend: 0x0, symName: __ZNSt3__110__function6__funcIPFvPN5iplug9igraphics8IControlEES6_EclEOS5_, symObjAddr: 0x274BC, symBinAddr: 0x4190C, symSize: 0xC }
  - { offset: 0x2CCDE1, size: 0x8, addend: 0x0, symName: __ZNSt3__110__function6__funcIPFvPN5iplug9igraphics8IControlEES6_EclEOS5_, symObjAddr: 0x274BC, symBinAddr: 0x4190C, symSize: 0xC }
  - { offset: 0x2CCE0A, size: 0x8, addend: 0x0, symName: __ZNSt3__110__function6__funcIPFvPN5iplug9igraphics8IControlEES6_EclEOS5_, symObjAddr: 0x274BC, symBinAddr: 0x4190C, symSize: 0xC }
  - { offset: 0x2CCE3F, size: 0x8, addend: 0x0, symName: __ZNKSt3__110__function6__funcIPFvPN5iplug9igraphics8IControlEES6_E6targetERKSt9type_info, symObjAddr: 0x274C8, symBinAddr: 0x41918, symSize: 0x60 }
  - { offset: 0x2CCEFB, size: 0x8, addend: 0x0, symName: __ZNKSt3__110__function6__funcIPFvPN5iplug9igraphics8IControlEES6_E11target_typeEv, symObjAddr: 0x27528, symBinAddr: 0x41978, symSize: 0xC }
  - { offset: 0x2CCF22, size: 0x8, addend: 0x0, symName: __ZN22NAMSquareButtonControlD1Ev, symObjAddr: 0x27534, symBinAddr: 0x41984, symSize: 0x4 }
  - { offset: 0x2CCF46, size: 0x8, addend: 0x0, symName: __ZN22NAMSquareButtonControlD1Ev, symObjAddr: 0x27534, symBinAddr: 0x41984, symSize: 0x4 }
  - { offset: 0x2CCF63, size: 0x8, addend: 0x0, symName: __ZN22NAMSquareButtonControlD1Ev, symObjAddr: 0x27534, symBinAddr: 0x41984, symSize: 0x4 }
  - { offset: 0x2CCF80, size: 0x8, addend: 0x0, symName: __ZN22NAMSquareButtonControlD1Ev, symObjAddr: 0x27534, symBinAddr: 0x41984, symSize: 0x4 }
  - { offset: 0x2CCFBE, size: 0x8, addend: 0x0, symName: __ZN22NAMSquareButtonControlD0Ev, symObjAddr: 0x27538, symBinAddr: 0x41988, symSize: 0x14 }
  - { offset: 0x2CD058, size: 0x8, addend: 0x0, symName: __ZN22NAMSquareButtonControl4DrawERN5iplug9igraphics9IGraphicsE, symObjAddr: 0x2754C, symBinAddr: 0x4199C, symSize: 0x11C }
  - { offset: 0x2CD250, size: 0x8, addend: 0x0, symName: __ZThn8_N22NAMSquareButtonControlD1Ev, symObjAddr: 0x27668, symBinAddr: 0x41AB8, symSize: 0x8 }
  - { offset: 0x2CD2FB, size: 0x8, addend: 0x0, symName: __ZThn8_N22NAMSquareButtonControlD0Ev, symObjAddr: 0x27670, symBinAddr: 0x41AC0, symSize: 0x18 }
  - { offset: 0x2CD3A8, size: 0x8, addend: 0x0, symName: __ZNSt3__110__function6__funcIZN21NAMFileBrowserControl10OnAttachedEvEUlPN5iplug9igraphics8IControlEE1_FvS6_EED1Ev, symObjAddr: 0x27688, symBinAddr: 0x41AD8, symSize: 0x4 }
  - { offset: 0x2CD3D7, size: 0x8, addend: 0x0, symName: __ZNSt3__110__function6__funcIZN21NAMFileBrowserControl10OnAttachedEvEUlPN5iplug9igraphics8IControlEE1_FvS6_EED0Ev, symObjAddr: 0x2768C, symBinAddr: 0x41ADC, symSize: 0x4 }
  - { offset: 0x2CD402, size: 0x8, addend: 0x0, symName: __ZNKSt3__110__function6__funcIZN21NAMFileBrowserControl10OnAttachedEvEUlPN5iplug9igraphics8IControlEE1_FvS6_EE7__cloneEv, symObjAddr: 0x27690, symBinAddr: 0x41AE0, symSize: 0x34 }
  - { offset: 0x2CD479, size: 0x8, addend: 0x0, symName: __ZNKSt3__110__function6__funcIZN21NAMFileBrowserControl10OnAttachedEvEUlPN5iplug9igraphics8IControlEE1_FvS6_EE7__cloneEPNS0_6__baseIS8_EE, symObjAddr: 0x276C4, symBinAddr: 0x41B14, symSize: 0x14 }
  - { offset: 0x2CD4A5, size: 0x8, addend: 0x0, symName: __ZNKSt3__110__function6__funcIZN21NAMFileBrowserControl10OnAttachedEvEUlPN5iplug9igraphics8IControlEE1_FvS6_EE7__cloneEPNS0_6__baseIS8_EE, symObjAddr: 0x276C4, symBinAddr: 0x41B14, symSize: 0x14 }
  - { offset: 0x2CD4CC, size: 0x8, addend: 0x0, symName: __ZNKSt3__110__function6__funcIZN21NAMFileBrowserControl10OnAttachedEvEUlPN5iplug9igraphics8IControlEE1_FvS6_EE7__cloneEPNS0_6__baseIS8_EE, symObjAddr: 0x276C4, symBinAddr: 0x41B14, symSize: 0x14 }
  - { offset: 0x2CD4F2, size: 0x8, addend: 0x0, symName: __ZNSt3__110__function6__funcIZN21NAMFileBrowserControl10OnAttachedEvEUlPN5iplug9igraphics8IControlEE1_FvS6_EE7destroyEv, symObjAddr: 0x276D8, symBinAddr: 0x41B28, symSize: 0x4 }
  - { offset: 0x2CD515, size: 0x8, addend: 0x0, symName: __ZNSt3__110__function6__funcIZN21NAMFileBrowserControl10OnAttachedEvEUlPN5iplug9igraphics8IControlEE1_FvS6_EE18destroy_deallocateEv, symObjAddr: 0x276DC, symBinAddr: 0x41B2C, symSize: 0x14 }
  - { offset: 0x2CD583, size: 0x8, addend: 0x0, symName: __ZNSt3__110__function6__funcIZN21NAMFileBrowserControl10OnAttachedEvEUlPN5iplug9igraphics8IControlEE1_FvS6_EEclEOS6_, symObjAddr: 0x276F0, symBinAddr: 0x41B40, symSize: 0xC }
  - { offset: 0x2CD5BD, size: 0x8, addend: 0x0, symName: __ZNSt3__110__function6__funcIZN21NAMFileBrowserControl10OnAttachedEvEUlPN5iplug9igraphics8IControlEE1_FvS6_EEclEOS6_, symObjAddr: 0x276F0, symBinAddr: 0x41B40, symSize: 0xC }
  - { offset: 0x2CD5E6, size: 0x8, addend: 0x0, symName: __ZNSt3__110__function6__funcIZN21NAMFileBrowserControl10OnAttachedEvEUlPN5iplug9igraphics8IControlEE1_FvS6_EEclEOS6_, symObjAddr: 0x276F0, symBinAddr: 0x41B40, symSize: 0xC }
  - { offset: 0x2CD611, size: 0x8, addend: 0x0, symName: __ZNSt3__110__function6__funcIZN21NAMFileBrowserControl10OnAttachedEvEUlPN5iplug9igraphics8IControlEE1_FvS6_EEclEOS6_, symObjAddr: 0x276F0, symBinAddr: 0x41B40, symSize: 0xC }
  - { offset: 0x2CD64A, size: 0x8, addend: 0x0, symName: __ZNKSt3__110__function6__funcIZN21NAMFileBrowserControl10OnAttachedEvEUlPN5iplug9igraphics8IControlEE1_FvS6_EE6targetERKSt9type_info, symObjAddr: 0x276FC, symBinAddr: 0x41B4C, symSize: 0x60 }
  - { offset: 0x2CD706, size: 0x8, addend: 0x0, symName: __ZNKSt3__110__function6__funcIZN21NAMFileBrowserControl10OnAttachedEvEUlPN5iplug9igraphics8IControlEE1_FvS6_EE11target_typeEv, symObjAddr: 0x2775C, symBinAddr: 0x41BAC, symSize: 0xC }
  - { offset: 0x2CD86E, size: 0x8, addend: 0x0, symName: __ZNSt3__110__function6__funcIZZN21NAMFileBrowserControl10OnAttachedEvENKUlPN5iplug9igraphics8IControlEE1_clES6_EUlRK10WDL_StringSA_E_FvSA_SA_EED1Ev, symObjAddr: 0x27944, symBinAddr: 0x41D94, symSize: 0x4 }
  - { offset: 0x2CD89D, size: 0x8, addend: 0x0, symName: __ZNSt3__110__function6__funcIZZN21NAMFileBrowserControl10OnAttachedEvENKUlPN5iplug9igraphics8IControlEE1_clES6_EUlRK10WDL_StringSA_E_FvSA_SA_EED0Ev, symObjAddr: 0x27948, symBinAddr: 0x41D98, symSize: 0x4 }
  - { offset: 0x2CD914, size: 0x8, addend: 0x0, symName: __ZNKSt3__110__function6__funcIZZN21NAMFileBrowserControl10OnAttachedEvENKUlPN5iplug9igraphics8IControlEE1_clES6_EUlRK10WDL_StringSA_E_FvSA_SA_EE7__cloneEv, symObjAddr: 0x2794C, symBinAddr: 0x41D9C, symSize: 0x34 }
  - { offset: 0x2CD98B, size: 0x8, addend: 0x0, symName: __ZNKSt3__110__function6__funcIZZN21NAMFileBrowserControl10OnAttachedEvENKUlPN5iplug9igraphics8IControlEE1_clES6_EUlRK10WDL_StringSA_E_FvSA_SA_EE7__cloneEPNS0_6__baseISC_EE, symObjAddr: 0x27980, symBinAddr: 0x41DD0, symSize: 0x14 }
  - { offset: 0x2CD9C1, size: 0x8, addend: 0x0, symName: __ZNKSt3__110__function6__funcIZZN21NAMFileBrowserControl10OnAttachedEvENKUlPN5iplug9igraphics8IControlEE1_clES6_EUlRK10WDL_StringSA_E_FvSA_SA_EE7__cloneEPNS0_6__baseISC_EE, symObjAddr: 0x27980, symBinAddr: 0x41DD0, symSize: 0x14 }
  - { offset: 0x2CD9E8, size: 0x8, addend: 0x0, symName: __ZNKSt3__110__function6__funcIZZN21NAMFileBrowserControl10OnAttachedEvENKUlPN5iplug9igraphics8IControlEE1_clES6_EUlRK10WDL_StringSA_E_FvSA_SA_EE7__cloneEPNS0_6__baseISC_EE, symObjAddr: 0x27980, symBinAddr: 0x41DD0, symSize: 0x14 }
  - { offset: 0x2CDA0E, size: 0x8, addend: 0x0, symName: __ZNSt3__110__function6__funcIZZN21NAMFileBrowserControl10OnAttachedEvENKUlPN5iplug9igraphics8IControlEE1_clES6_EUlRK10WDL_StringSA_E_FvSA_SA_EE7destroyEv, symObjAddr: 0x27994, symBinAddr: 0x41DE4, symSize: 0x4 }
  - { offset: 0x2CDA31, size: 0x8, addend: 0x0, symName: __ZNSt3__110__function6__funcIZZN21NAMFileBrowserControl10OnAttachedEvENKUlPN5iplug9igraphics8IControlEE1_clES6_EUlRK10WDL_StringSA_E_FvSA_SA_EE18destroy_deallocateEv, symObjAddr: 0x27998, symBinAddr: 0x41DE8, symSize: 0x14 }
  - { offset: 0x2CDAF3, size: 0x8, addend: 0x0, symName: __ZNSt3__110__function6__funcIZZN21NAMFileBrowserControl10OnAttachedEvENKUlPN5iplug9igraphics8IControlEE1_clES6_EUlRK10WDL_StringSA_E_FvSA_SA_EEclESA_SA_, symObjAddr: 0x279AC, symBinAddr: 0x41DFC, symSize: 0xF0 }
  - { offset: 0x2CDD79, size: 0x8, addend: 0x0, symName: __ZNKSt3__110__function6__funcIZZN21NAMFileBrowserControl10OnAttachedEvENKUlPN5iplug9igraphics8IControlEE1_clES6_EUlRK10WDL_StringSA_E_FvSA_SA_EE6targetERKSt9type_info, symObjAddr: 0x27A9C, symBinAddr: 0x41EEC, symSize: 0x60 }
  - { offset: 0x2CDE35, size: 0x8, addend: 0x0, symName: __ZNKSt3__110__function6__funcIZZN21NAMFileBrowserControl10OnAttachedEvENKUlPN5iplug9igraphics8IControlEE1_clES6_EUlRK10WDL_StringSA_E_FvSA_SA_EE11target_typeEv, symObjAddr: 0x27AFC, symBinAddr: 0x41F4C, symSize: 0xC }
  - { offset: 0x2CDF86, size: 0x8, addend: 0x0, symName: __ZNSt3__110__function6__funcIZN21NAMFileBrowserControl10OnAttachedEvEUlPN5iplug9igraphics8IControlEE_FvS6_EED1Ev, symObjAddr: 0x28138, symBinAddr: 0x42588, symSize: 0x4 }
  - { offset: 0x2CDFB5, size: 0x8, addend: 0x0, symName: __ZNSt3__110__function6__funcIZN21NAMFileBrowserControl10OnAttachedEvEUlPN5iplug9igraphics8IControlEE_FvS6_EED0Ev, symObjAddr: 0x2813C, symBinAddr: 0x4258C, symSize: 0x4 }
  - { offset: 0x2CDFE0, size: 0x8, addend: 0x0, symName: __ZNKSt3__110__function6__funcIZN21NAMFileBrowserControl10OnAttachedEvEUlPN5iplug9igraphics8IControlEE_FvS6_EE7__cloneEv, symObjAddr: 0x28140, symBinAddr: 0x42590, symSize: 0x34 }
  - { offset: 0x2CE057, size: 0x8, addend: 0x0, symName: __ZNKSt3__110__function6__funcIZN21NAMFileBrowserControl10OnAttachedEvEUlPN5iplug9igraphics8IControlEE_FvS6_EE7__cloneEPNS0_6__baseIS8_EE, symObjAddr: 0x28174, symBinAddr: 0x425C4, symSize: 0x14 }
  - { offset: 0x2CE083, size: 0x8, addend: 0x0, symName: __ZNKSt3__110__function6__funcIZN21NAMFileBrowserControl10OnAttachedEvEUlPN5iplug9igraphics8IControlEE_FvS6_EE7__cloneEPNS0_6__baseIS8_EE, symObjAddr: 0x28174, symBinAddr: 0x425C4, symSize: 0x14 }
  - { offset: 0x2CE0AA, size: 0x8, addend: 0x0, symName: __ZNKSt3__110__function6__funcIZN21NAMFileBrowserControl10OnAttachedEvEUlPN5iplug9igraphics8IControlEE_FvS6_EE7__cloneEPNS0_6__baseIS8_EE, symObjAddr: 0x28174, symBinAddr: 0x425C4, symSize: 0x14 }
  - { offset: 0x2CE0D0, size: 0x8, addend: 0x0, symName: __ZNSt3__110__function6__funcIZN21NAMFileBrowserControl10OnAttachedEvEUlPN5iplug9igraphics8IControlEE_FvS6_EE7destroyEv, symObjAddr: 0x28188, symBinAddr: 0x425D8, symSize: 0x4 }
  - { offset: 0x2CE0F3, size: 0x8, addend: 0x0, symName: __ZNSt3__110__function6__funcIZN21NAMFileBrowserControl10OnAttachedEvEUlPN5iplug9igraphics8IControlEE_FvS6_EE18destroy_deallocateEv, symObjAddr: 0x2818C, symBinAddr: 0x425DC, symSize: 0x14 }
  - { offset: 0x2CE1A1, size: 0x8, addend: 0x0, symName: __ZNSt3__110__function6__funcIZN21NAMFileBrowserControl10OnAttachedEvEUlPN5iplug9igraphics8IControlEE_FvS6_EEclEOS6_, symObjAddr: 0x281A0, symBinAddr: 0x425F0, symSize: 0x30 }
  - { offset: 0x2CE27C, size: 0x8, addend: 0x0, symName: __ZNKSt3__110__function6__funcIZN21NAMFileBrowserControl10OnAttachedEvEUlPN5iplug9igraphics8IControlEE_FvS6_EE6targetERKSt9type_info, symObjAddr: 0x281D0, symBinAddr: 0x42620, symSize: 0x60 }
  - { offset: 0x2CE338, size: 0x8, addend: 0x0, symName: __ZNKSt3__110__function6__funcIZN21NAMFileBrowserControl10OnAttachedEvEUlPN5iplug9igraphics8IControlEE_FvS6_EE11target_typeEv, symObjAddr: 0x28230, symBinAddr: 0x42680, symSize: 0xC }
  - { offset: 0x2CE35B, size: 0x8, addend: 0x0, symName: __ZNSt3__110__function6__funcIZN21NAMFileBrowserControl10OnAttachedEvEUlPN5iplug9igraphics8IControlEE0_FvS6_EED1Ev, symObjAddr: 0x2823C, symBinAddr: 0x4268C, symSize: 0x4 }
  - { offset: 0x2CE38A, size: 0x8, addend: 0x0, symName: __ZNSt3__110__function6__funcIZN21NAMFileBrowserControl10OnAttachedEvEUlPN5iplug9igraphics8IControlEE0_FvS6_EED0Ev, symObjAddr: 0x28240, symBinAddr: 0x42690, symSize: 0x4 }
  - { offset: 0x2CE3B5, size: 0x8, addend: 0x0, symName: __ZNKSt3__110__function6__funcIZN21NAMFileBrowserControl10OnAttachedEvEUlPN5iplug9igraphics8IControlEE0_FvS6_EE7__cloneEv, symObjAddr: 0x28244, symBinAddr: 0x42694, symSize: 0x34 }
  - { offset: 0x2CE42C, size: 0x8, addend: 0x0, symName: __ZNKSt3__110__function6__funcIZN21NAMFileBrowserControl10OnAttachedEvEUlPN5iplug9igraphics8IControlEE0_FvS6_EE7__cloneEPNS0_6__baseIS8_EE, symObjAddr: 0x28278, symBinAddr: 0x426C8, symSize: 0x14 }
  - { offset: 0x2CE458, size: 0x8, addend: 0x0, symName: __ZNKSt3__110__function6__funcIZN21NAMFileBrowserControl10OnAttachedEvEUlPN5iplug9igraphics8IControlEE0_FvS6_EE7__cloneEPNS0_6__baseIS8_EE, symObjAddr: 0x28278, symBinAddr: 0x426C8, symSize: 0x14 }
  - { offset: 0x2CE47F, size: 0x8, addend: 0x0, symName: __ZNKSt3__110__function6__funcIZN21NAMFileBrowserControl10OnAttachedEvEUlPN5iplug9igraphics8IControlEE0_FvS6_EE7__cloneEPNS0_6__baseIS8_EE, symObjAddr: 0x28278, symBinAddr: 0x426C8, symSize: 0x14 }
  - { offset: 0x2CE4A5, size: 0x8, addend: 0x0, symName: __ZNSt3__110__function6__funcIZN21NAMFileBrowserControl10OnAttachedEvEUlPN5iplug9igraphics8IControlEE0_FvS6_EE7destroyEv, symObjAddr: 0x2828C, symBinAddr: 0x426DC, symSize: 0x4 }
  - { offset: 0x2CE4C8, size: 0x8, addend: 0x0, symName: __ZNSt3__110__function6__funcIZN21NAMFileBrowserControl10OnAttachedEvEUlPN5iplug9igraphics8IControlEE0_FvS6_EE18destroy_deallocateEv, symObjAddr: 0x28290, symBinAddr: 0x426E0, symSize: 0x14 }
  - { offset: 0x2CE576, size: 0x8, addend: 0x0, symName: __ZNSt3__110__function6__funcIZN21NAMFileBrowserControl10OnAttachedEvEUlPN5iplug9igraphics8IControlEE0_FvS6_EEclEOS6_, symObjAddr: 0x282A4, symBinAddr: 0x426F4, symSize: 0x2C }
  - { offset: 0x2CE660, size: 0x8, addend: 0x0, symName: __ZNKSt3__110__function6__funcIZN21NAMFileBrowserControl10OnAttachedEvEUlPN5iplug9igraphics8IControlEE0_FvS6_EE6targetERKSt9type_info, symObjAddr: 0x282D0, symBinAddr: 0x42720, symSize: 0x60 }
  - { offset: 0x2CE71C, size: 0x8, addend: 0x0, symName: __ZNKSt3__110__function6__funcIZN21NAMFileBrowserControl10OnAttachedEvEUlPN5iplug9igraphics8IControlEE0_FvS6_EE11target_typeEv, symObjAddr: 0x28330, symBinAddr: 0x42780, symSize: 0xC }
  - { offset: 0x2CE780, size: 0x8, addend: 0x0, symName: __ZN18NAMFileNameControlD1Ev, symObjAddr: 0x2833C, symBinAddr: 0x4278C, symSize: 0x3C }
  - { offset: 0x2CE96D, size: 0x8, addend: 0x0, symName: __ZN18NAMFileNameControlD0Ev, symObjAddr: 0x28378, symBinAddr: 0x427C8, symSize: 0x40 }
  - { offset: 0x2CEB52, size: 0x8, addend: 0x0, symName: __ZThn8_N18NAMFileNameControlD1Ev, symObjAddr: 0x283B8, symBinAddr: 0x42808, symSize: 0x40 }
  - { offset: 0x2CED4F, size: 0x8, addend: 0x0, symName: __ZThn8_N18NAMFileNameControlD0Ev, symObjAddr: 0x283F8, symBinAddr: 0x42848, symSize: 0x44 }
  - { offset: 0x2CEF48, size: 0x8, addend: 0x0, symName: __ZThn488_N18NAMFileNameControlD1Ev, symObjAddr: 0x2843C, symBinAddr: 0x4288C, symSize: 0x40 }
  - { offset: 0x2CF125, size: 0x8, addend: 0x0, symName: __ZThn488_N18NAMFileNameControlD0Ev, symObjAddr: 0x2847C, symBinAddr: 0x428CC, symSize: 0x44 }
  - { offset: 0x2CF31B, size: 0x8, addend: 0x0, symName: __ZNSt3__110__function6__funcIZN21NAMFileBrowserControl10OnAttachedEvEUlPN5iplug9igraphics8IControlEE3_FvS6_EED1Ev, symObjAddr: 0x284C0, symBinAddr: 0x42910, symSize: 0x4 }
  - { offset: 0x2CF34A, size: 0x8, addend: 0x0, symName: __ZNSt3__110__function6__funcIZN21NAMFileBrowserControl10OnAttachedEvEUlPN5iplug9igraphics8IControlEE3_FvS6_EED0Ev, symObjAddr: 0x284C4, symBinAddr: 0x42914, symSize: 0x4 }
  - { offset: 0x2CF375, size: 0x8, addend: 0x0, symName: __ZNKSt3__110__function6__funcIZN21NAMFileBrowserControl10OnAttachedEvEUlPN5iplug9igraphics8IControlEE3_FvS6_EE7__cloneEv, symObjAddr: 0x284C8, symBinAddr: 0x42918, symSize: 0x38 }
  - { offset: 0x2CF3EC, size: 0x8, addend: 0x0, symName: __ZNKSt3__110__function6__funcIZN21NAMFileBrowserControl10OnAttachedEvEUlPN5iplug9igraphics8IControlEE3_FvS6_EE7__cloneEPNS0_6__baseIS8_EE, symObjAddr: 0x28500, symBinAddr: 0x42950, symSize: 0x18 }
  - { offset: 0x2CF418, size: 0x8, addend: 0x0, symName: __ZNKSt3__110__function6__funcIZN21NAMFileBrowserControl10OnAttachedEvEUlPN5iplug9igraphics8IControlEE3_FvS6_EE7__cloneEPNS0_6__baseIS8_EE, symObjAddr: 0x28500, symBinAddr: 0x42950, symSize: 0x18 }
  - { offset: 0x2CF43F, size: 0x8, addend: 0x0, symName: __ZNKSt3__110__function6__funcIZN21NAMFileBrowserControl10OnAttachedEvEUlPN5iplug9igraphics8IControlEE3_FvS6_EE7__cloneEPNS0_6__baseIS8_EE, symObjAddr: 0x28500, symBinAddr: 0x42950, symSize: 0x18 }
  - { offset: 0x2CF465, size: 0x8, addend: 0x0, symName: __ZNSt3__110__function6__funcIZN21NAMFileBrowserControl10OnAttachedEvEUlPN5iplug9igraphics8IControlEE3_FvS6_EE7destroyEv, symObjAddr: 0x28518, symBinAddr: 0x42968, symSize: 0x4 }
  - { offset: 0x2CF488, size: 0x8, addend: 0x0, symName: __ZNSt3__110__function6__funcIZN21NAMFileBrowserControl10OnAttachedEvEUlPN5iplug9igraphics8IControlEE3_FvS6_EE18destroy_deallocateEv, symObjAddr: 0x2851C, symBinAddr: 0x4296C, symSize: 0x14 }
  - { offset: 0x2CF68F, size: 0x8, addend: 0x0, symName: __ZNSt3__110__function6__funcIZN21NAMFileBrowserControl10OnAttachedEvEUlPN5iplug9igraphics8IControlEE3_FvS6_EEclEOS6_, symObjAddr: 0x28530, symBinAddr: 0x42980, symSize: 0x188 }
  - { offset: 0x2CFC46, size: 0x8, addend: 0x0, symName: __ZNKSt3__110__function6__funcIZN21NAMFileBrowserControl10OnAttachedEvEUlPN5iplug9igraphics8IControlEE3_FvS6_EE6targetERKSt9type_info, symObjAddr: 0x286B8, symBinAddr: 0x42B08, symSize: 0x60 }
  - { offset: 0x2CFD02, size: 0x8, addend: 0x0, symName: __ZNKSt3__110__function6__funcIZN21NAMFileBrowserControl10OnAttachedEvEUlPN5iplug9igraphics8IControlEE3_FvS6_EE11target_typeEv, symObjAddr: 0x28718, symBinAddr: 0x42B68, symSize: 0xC }
  - { offset: 0x2CFD25, size: 0x8, addend: 0x0, symName: __ZNSt3__110__function6__funcIZN21NAMFileBrowserControl10OnAttachedEvEUlPN5iplug9igraphics8IControlEE2_FvS6_EED1Ev, symObjAddr: 0x28724, symBinAddr: 0x42B74, symSize: 0x4 }
  - { offset: 0x2CFD54, size: 0x8, addend: 0x0, symName: __ZNSt3__110__function6__funcIZN21NAMFileBrowserControl10OnAttachedEvEUlPN5iplug9igraphics8IControlEE2_FvS6_EED0Ev, symObjAddr: 0x28728, symBinAddr: 0x42B78, symSize: 0x4 }
  - { offset: 0x2CFD7F, size: 0x8, addend: 0x0, symName: __ZNKSt3__110__function6__funcIZN21NAMFileBrowserControl10OnAttachedEvEUlPN5iplug9igraphics8IControlEE2_FvS6_EE7__cloneEv, symObjAddr: 0x2872C, symBinAddr: 0x42B7C, symSize: 0x34 }
  - { offset: 0x2CFDF6, size: 0x8, addend: 0x0, symName: __ZNKSt3__110__function6__funcIZN21NAMFileBrowserControl10OnAttachedEvEUlPN5iplug9igraphics8IControlEE2_FvS6_EE7__cloneEPNS0_6__baseIS8_EE, symObjAddr: 0x28760, symBinAddr: 0x42BB0, symSize: 0x14 }
  - { offset: 0x2CFE22, size: 0x8, addend: 0x0, symName: __ZNKSt3__110__function6__funcIZN21NAMFileBrowserControl10OnAttachedEvEUlPN5iplug9igraphics8IControlEE2_FvS6_EE7__cloneEPNS0_6__baseIS8_EE, symObjAddr: 0x28760, symBinAddr: 0x42BB0, symSize: 0x14 }
  - { offset: 0x2CFE49, size: 0x8, addend: 0x0, symName: __ZNKSt3__110__function6__funcIZN21NAMFileBrowserControl10OnAttachedEvEUlPN5iplug9igraphics8IControlEE2_FvS6_EE7__cloneEPNS0_6__baseIS8_EE, symObjAddr: 0x28760, symBinAddr: 0x42BB0, symSize: 0x14 }
  - { offset: 0x2CFE6F, size: 0x8, addend: 0x0, symName: __ZNSt3__110__function6__funcIZN21NAMFileBrowserControl10OnAttachedEvEUlPN5iplug9igraphics8IControlEE2_FvS6_EE7destroyEv, symObjAddr: 0x28774, symBinAddr: 0x42BC4, symSize: 0x4 }
  - { offset: 0x2CFE92, size: 0x8, addend: 0x0, symName: __ZNSt3__110__function6__funcIZN21NAMFileBrowserControl10OnAttachedEvEUlPN5iplug9igraphics8IControlEE2_FvS6_EE18destroy_deallocateEv, symObjAddr: 0x28778, symBinAddr: 0x42BC8, symSize: 0x14 }
  - { offset: 0x2CFF33, size: 0x8, addend: 0x0, symName: __ZNSt3__110__function6__funcIZN21NAMFileBrowserControl10OnAttachedEvEUlPN5iplug9igraphics8IControlEE2_FvS6_EEclEOS6_, symObjAddr: 0x2878C, symBinAddr: 0x42BDC, symSize: 0x120 }
  - { offset: 0x2D01A1, size: 0x8, addend: 0x0, symName: __ZNKSt3__110__function6__funcIZN21NAMFileBrowserControl10OnAttachedEvEUlPN5iplug9igraphics8IControlEE2_FvS6_EE6targetERKSt9type_info, symObjAddr: 0x288AC, symBinAddr: 0x42CFC, symSize: 0x60 }
  - { offset: 0x2D025D, size: 0x8, addend: 0x0, symName: __ZNKSt3__110__function6__funcIZN21NAMFileBrowserControl10OnAttachedEvEUlPN5iplug9igraphics8IControlEE2_FvS6_EE11target_typeEv, symObjAddr: 0x2890C, symBinAddr: 0x42D5C, symSize: 0xC }
  - { offset: 0x2D02A1, size: 0x8, addend: 0x0, symName: __ZN19NAMGetButtonControlD1Ev, symObjAddr: 0x28918, symBinAddr: 0x42D68, symSize: 0x4 }
  - { offset: 0x2D02C5, size: 0x8, addend: 0x0, symName: __ZN19NAMGetButtonControlD1Ev, symObjAddr: 0x28918, symBinAddr: 0x42D68, symSize: 0x4 }
  - { offset: 0x2D02E3, size: 0x8, addend: 0x0, symName: __ZN19NAMGetButtonControlD1Ev, symObjAddr: 0x28918, symBinAddr: 0x42D68, symSize: 0x4 }
  - { offset: 0x2D0301, size: 0x8, addend: 0x0, symName: __ZN19NAMGetButtonControlD1Ev, symObjAddr: 0x28918, symBinAddr: 0x42D68, symSize: 0x4 }
  - { offset: 0x2D031E, size: 0x8, addend: 0x0, symName: __ZN19NAMGetButtonControlD1Ev, symObjAddr: 0x28918, symBinAddr: 0x42D68, symSize: 0x4 }
  - { offset: 0x2D035E, size: 0x8, addend: 0x0, symName: __ZN19NAMGetButtonControlD0Ev, symObjAddr: 0x2891C, symBinAddr: 0x42D6C, symSize: 0x14 }
  - { offset: 0x2D0419, size: 0x8, addend: 0x0, symName: __ZThn8_N19NAMGetButtonControlD1Ev, symObjAddr: 0x28930, symBinAddr: 0x42D80, symSize: 0x8 }
  - { offset: 0x2D04E6, size: 0x8, addend: 0x0, symName: __ZThn8_N19NAMGetButtonControlD0Ev, symObjAddr: 0x28938, symBinAddr: 0x42D88, symSize: 0x18 }
  - { offset: 0x2D05B5, size: 0x8, addend: 0x0, symName: __ZNSt3__110__function6__funcIZN19NAMGetButtonControlC1ERKN5iplug9igraphics5IRECTEPKcS9_RKNS4_4ISVGEEUlPNS4_8IControlEE_FvSE_EED1Ev, symObjAddr: 0x28950, symBinAddr: 0x42DA0, symSize: 0x4 }
  - { offset: 0x2D05E4, size: 0x8, addend: 0x0, symName: __ZNSt3__110__function6__funcIZN19NAMGetButtonControlC1ERKN5iplug9igraphics5IRECTEPKcS9_RKNS4_4ISVGEEUlPNS4_8IControlEE_FvSE_EED0Ev, symObjAddr: 0x28954, symBinAddr: 0x42DA4, symSize: 0x4 }
  - { offset: 0x2D060F, size: 0x8, addend: 0x0, symName: __ZNKSt3__110__function6__funcIZN19NAMGetButtonControlC1ERKN5iplug9igraphics5IRECTEPKcS9_RKNS4_4ISVGEEUlPNS4_8IControlEE_FvSE_EE7__cloneEv, symObjAddr: 0x28958, symBinAddr: 0x42DA8, symSize: 0x34 }
  - { offset: 0x2D0686, size: 0x8, addend: 0x0, symName: __ZNKSt3__110__function6__funcIZN19NAMGetButtonControlC1ERKN5iplug9igraphics5IRECTEPKcS9_RKNS4_4ISVGEEUlPNS4_8IControlEE_FvSE_EE7__cloneEPNS0_6__baseISG_EE, symObjAddr: 0x2898C, symBinAddr: 0x42DDC, symSize: 0x14 }
  - { offset: 0x2D06B2, size: 0x8, addend: 0x0, symName: __ZNKSt3__110__function6__funcIZN19NAMGetButtonControlC1ERKN5iplug9igraphics5IRECTEPKcS9_RKNS4_4ISVGEEUlPNS4_8IControlEE_FvSE_EE7__cloneEPNS0_6__baseISG_EE, symObjAddr: 0x2898C, symBinAddr: 0x42DDC, symSize: 0x14 }
  - { offset: 0x2D06D9, size: 0x8, addend: 0x0, symName: __ZNKSt3__110__function6__funcIZN19NAMGetButtonControlC1ERKN5iplug9igraphics5IRECTEPKcS9_RKNS4_4ISVGEEUlPNS4_8IControlEE_FvSE_EE7__cloneEPNS0_6__baseISG_EE, symObjAddr: 0x2898C, symBinAddr: 0x42DDC, symSize: 0x14 }
  - { offset: 0x2D06FF, size: 0x8, addend: 0x0, symName: __ZNSt3__110__function6__funcIZN19NAMGetButtonControlC1ERKN5iplug9igraphics5IRECTEPKcS9_RKNS4_4ISVGEEUlPNS4_8IControlEE_FvSE_EE7destroyEv, symObjAddr: 0x289A0, symBinAddr: 0x42DF0, symSize: 0x4 }
  - { offset: 0x2D0722, size: 0x8, addend: 0x0, symName: __ZNSt3__110__function6__funcIZN19NAMGetButtonControlC1ERKN5iplug9igraphics5IRECTEPKcS9_RKNS4_4ISVGEEUlPNS4_8IControlEE_FvSE_EE18destroy_deallocateEv, symObjAddr: 0x289A4, symBinAddr: 0x42DF4, symSize: 0x14 }
  - { offset: 0x2D07D0, size: 0x8, addend: 0x0, symName: __ZNSt3__110__function6__funcIZN19NAMGetButtonControlC1ERKN5iplug9igraphics5IRECTEPKcS9_RKNS4_4ISVGEEUlPNS4_8IControlEE_FvSE_EEclEOSE_, symObjAddr: 0x289B8, symBinAddr: 0x42E08, symSize: 0xC4 }
  - { offset: 0x2D0A93, size: 0x8, addend: 0x0, symName: __ZNKSt3__110__function6__funcIZN19NAMGetButtonControlC1ERKN5iplug9igraphics5IRECTEPKcS9_RKNS4_4ISVGEEUlPNS4_8IControlEE_FvSE_EE6targetERKSt9type_info, symObjAddr: 0x28A7C, symBinAddr: 0x42ECC, symSize: 0x60 }
  - { offset: 0x2D0B4F, size: 0x8, addend: 0x0, symName: __ZNKSt3__110__function6__funcIZN19NAMGetButtonControlC1ERKN5iplug9igraphics5IRECTEPKcS9_RKNS4_4ISVGEEUlPNS4_8IControlEE_FvSE_EE11target_typeEv, symObjAddr: 0x28ADC, symBinAddr: 0x42F2C, symSize: 0xC }
  - { offset: 0x2D0B72, size: 0x8, addend: 0x0, symName: __ZNSt3__110__function6__funcIZN5iplug9igraphics14IContainerBase4HideEbEUliPNS3_8IControlEE_FviS6_EED1Ev, symObjAddr: 0x28AE8, symBinAddr: 0x42F38, symSize: 0x4 }
  - { offset: 0x2D0BA1, size: 0x8, addend: 0x0, symName: __ZNSt3__110__function6__funcIZN5iplug9igraphics14IContainerBase4HideEbEUliPNS3_8IControlEE_FviS6_EED0Ev, symObjAddr: 0x28AEC, symBinAddr: 0x42F3C, symSize: 0x4 }
  - { offset: 0x2D0C18, size: 0x8, addend: 0x0, symName: __ZNKSt3__110__function6__funcIZN5iplug9igraphics14IContainerBase4HideEbEUliPNS3_8IControlEE_FviS6_EE7__cloneEv, symObjAddr: 0x28AF0, symBinAddr: 0x42F40, symSize: 0x38 }
  - { offset: 0x2D0C8F, size: 0x8, addend: 0x0, symName: __ZNKSt3__110__function6__funcIZN5iplug9igraphics14IContainerBase4HideEbEUliPNS3_8IControlEE_FviS6_EE7__cloneEPNS0_6__baseIS8_EE, symObjAddr: 0x28B28, symBinAddr: 0x42F78, symSize: 0x18 }
  - { offset: 0x2D0CC5, size: 0x8, addend: 0x0, symName: __ZNKSt3__110__function6__funcIZN5iplug9igraphics14IContainerBase4HideEbEUliPNS3_8IControlEE_FviS6_EE7__cloneEPNS0_6__baseIS8_EE, symObjAddr: 0x28B28, symBinAddr: 0x42F78, symSize: 0x18 }
  - { offset: 0x2D0CEC, size: 0x8, addend: 0x0, symName: __ZNKSt3__110__function6__funcIZN5iplug9igraphics14IContainerBase4HideEbEUliPNS3_8IControlEE_FviS6_EE7__cloneEPNS0_6__baseIS8_EE, symObjAddr: 0x28B28, symBinAddr: 0x42F78, symSize: 0x18 }
  - { offset: 0x2D0D12, size: 0x8, addend: 0x0, symName: __ZNSt3__110__function6__funcIZN5iplug9igraphics14IContainerBase4HideEbEUliPNS3_8IControlEE_FviS6_EE7destroyEv, symObjAddr: 0x28B40, symBinAddr: 0x42F90, symSize: 0x4 }
  - { offset: 0x2D0D37, size: 0x8, addend: 0x0, symName: __ZNSt3__110__function6__funcIZN5iplug9igraphics14IContainerBase4HideEbEUliPNS3_8IControlEE_FviS6_EE18destroy_deallocateEv, symObjAddr: 0x28B44, symBinAddr: 0x42F94, symSize: 0x14 }
  - { offset: 0x2D0DF9, size: 0x8, addend: 0x0, symName: __ZNSt3__110__function6__funcIZN5iplug9igraphics14IContainerBase4HideEbEUliPNS3_8IControlEE_FviS6_EEclEOiOS6_, symObjAddr: 0x28B58, symBinAddr: 0x42FA8, symSize: 0x18 }
  - { offset: 0x2D0E43, size: 0x8, addend: 0x0, symName: __ZNSt3__110__function6__funcIZN5iplug9igraphics14IContainerBase4HideEbEUliPNS3_8IControlEE_FviS6_EEclEOiOS6_, symObjAddr: 0x28B58, symBinAddr: 0x42FA8, symSize: 0x18 }
  - { offset: 0x2D0E6C, size: 0x8, addend: 0x0, symName: __ZNSt3__110__function6__funcIZN5iplug9igraphics14IContainerBase4HideEbEUliPNS3_8IControlEE_FviS6_EEclEOiOS6_, symObjAddr: 0x28B58, symBinAddr: 0x42FA8, symSize: 0x18 }
  - { offset: 0x2D0E97, size: 0x8, addend: 0x0, symName: __ZNSt3__110__function6__funcIZN5iplug9igraphics14IContainerBase4HideEbEUliPNS3_8IControlEE_FviS6_EEclEOiOS6_, symObjAddr: 0x28B58, symBinAddr: 0x42FA8, symSize: 0x18 }
  - { offset: 0x2D0EF7, size: 0x8, addend: 0x0, symName: __ZNKSt3__110__function6__funcIZN5iplug9igraphics14IContainerBase4HideEbEUliPNS3_8IControlEE_FviS6_EE6targetERKSt9type_info, symObjAddr: 0x28B70, symBinAddr: 0x42FC0, symSize: 0x60 }
  - { offset: 0x2D0FB3, size: 0x8, addend: 0x0, symName: __ZNKSt3__110__function6__funcIZN5iplug9igraphics14IContainerBase4HideEbEUliPNS3_8IControlEE_FviS6_EE11target_typeEv, symObjAddr: 0x28BD0, symBinAddr: 0x43020, symSize: 0xC }
  - { offset: 0x2D0FDA, size: 0x8, addend: 0x0, symName: __ZNSt3__110__function6__funcIZN5iplug9igraphics14IContainerBase11SetDisabledEbEUliPNS3_8IControlEE_FviS6_EED1Ev, symObjAddr: 0x28BDC, symBinAddr: 0x4302C, symSize: 0x4 }
  - { offset: 0x2D1009, size: 0x8, addend: 0x0, symName: __ZNSt3__110__function6__funcIZN5iplug9igraphics14IContainerBase11SetDisabledEbEUliPNS3_8IControlEE_FviS6_EED0Ev, symObjAddr: 0x28BE0, symBinAddr: 0x43030, symSize: 0x4 }
  - { offset: 0x2D1080, size: 0x8, addend: 0x0, symName: __ZNKSt3__110__function6__funcIZN5iplug9igraphics14IContainerBase11SetDisabledEbEUliPNS3_8IControlEE_FviS6_EE7__cloneEv, symObjAddr: 0x28BE4, symBinAddr: 0x43034, symSize: 0x38 }
  - { offset: 0x2D10F7, size: 0x8, addend: 0x0, symName: __ZNKSt3__110__function6__funcIZN5iplug9igraphics14IContainerBase11SetDisabledEbEUliPNS3_8IControlEE_FviS6_EE7__cloneEPNS0_6__baseIS8_EE, symObjAddr: 0x28C1C, symBinAddr: 0x4306C, symSize: 0x18 }
  - { offset: 0x2D112D, size: 0x8, addend: 0x0, symName: __ZNKSt3__110__function6__funcIZN5iplug9igraphics14IContainerBase11SetDisabledEbEUliPNS3_8IControlEE_FviS6_EE7__cloneEPNS0_6__baseIS8_EE, symObjAddr: 0x28C1C, symBinAddr: 0x4306C, symSize: 0x18 }
  - { offset: 0x2D1154, size: 0x8, addend: 0x0, symName: __ZNKSt3__110__function6__funcIZN5iplug9igraphics14IContainerBase11SetDisabledEbEUliPNS3_8IControlEE_FviS6_EE7__cloneEPNS0_6__baseIS8_EE, symObjAddr: 0x28C1C, symBinAddr: 0x4306C, symSize: 0x18 }
  - { offset: 0x2D117A, size: 0x8, addend: 0x0, symName: __ZNSt3__110__function6__funcIZN5iplug9igraphics14IContainerBase11SetDisabledEbEUliPNS3_8IControlEE_FviS6_EE7destroyEv, symObjAddr: 0x28C34, symBinAddr: 0x43084, symSize: 0x4 }
  - { offset: 0x2D119F, size: 0x8, addend: 0x0, symName: __ZNSt3__110__function6__funcIZN5iplug9igraphics14IContainerBase11SetDisabledEbEUliPNS3_8IControlEE_FviS6_EE18destroy_deallocateEv, symObjAddr: 0x28C38, symBinAddr: 0x43088, symSize: 0x14 }
  - { offset: 0x2D1261, size: 0x8, addend: 0x0, symName: __ZNSt3__110__function6__funcIZN5iplug9igraphics14IContainerBase11SetDisabledEbEUliPNS3_8IControlEE_FviS6_EEclEOiOS6_, symObjAddr: 0x28C4C, symBinAddr: 0x4309C, symSize: 0x18 }
  - { offset: 0x2D12AB, size: 0x8, addend: 0x0, symName: __ZNSt3__110__function6__funcIZN5iplug9igraphics14IContainerBase11SetDisabledEbEUliPNS3_8IControlEE_FviS6_EEclEOiOS6_, symObjAddr: 0x28C4C, symBinAddr: 0x4309C, symSize: 0x18 }
  - { offset: 0x2D12D4, size: 0x8, addend: 0x0, symName: __ZNSt3__110__function6__funcIZN5iplug9igraphics14IContainerBase11SetDisabledEbEUliPNS3_8IControlEE_FviS6_EEclEOiOS6_, symObjAddr: 0x28C4C, symBinAddr: 0x4309C, symSize: 0x18 }
  - { offset: 0x2D12FF, size: 0x8, addend: 0x0, symName: __ZNSt3__110__function6__funcIZN5iplug9igraphics14IContainerBase11SetDisabledEbEUliPNS3_8IControlEE_FviS6_EEclEOiOS6_, symObjAddr: 0x28C4C, symBinAddr: 0x4309C, symSize: 0x18 }
  - { offset: 0x2D135F, size: 0x8, addend: 0x0, symName: __ZNKSt3__110__function6__funcIZN5iplug9igraphics14IContainerBase11SetDisabledEbEUliPNS3_8IControlEE_FviS6_EE6targetERKSt9type_info, symObjAddr: 0x28C64, symBinAddr: 0x430B4, symSize: 0x60 }
  - { offset: 0x2D141B, size: 0x8, addend: 0x0, symName: __ZNKSt3__110__function6__funcIZN5iplug9igraphics14IContainerBase11SetDisabledEbEUliPNS3_8IControlEE_FviS6_EE11target_typeEv, symObjAddr: 0x28CC4, symBinAddr: 0x43114, symSize: 0xC }
  - { offset: 0x2D1442, size: 0x8, addend: 0x0, symName: '__ZNSt3__110__function6__funcIZZN7PhoenixC1ERKN5iplug12InstanceInfoEENK3$_1clEPNS3_9igraphics9IGraphicsEEUlRK10WDL_StringSD_E0_FvSD_SD_EED1Ev', symObjAddr: 0x28CD0, symBinAddr: 0x43120, symSize: 0x4 }
  - { offset: 0x2D1471, size: 0x8, addend: 0x0, symName: '__ZNSt3__110__function6__funcIZZN7PhoenixC1ERKN5iplug12InstanceInfoEENK3$_1clEPNS3_9igraphics9IGraphicsEEUlRK10WDL_StringSD_E0_FvSD_SD_EED0Ev', symObjAddr: 0x28CD4, symBinAddr: 0x43124, symSize: 0x4 }
  - { offset: 0x2D14E8, size: 0x8, addend: 0x0, symName: '__ZNKSt3__110__function6__funcIZZN7PhoenixC1ERKN5iplug12InstanceInfoEENK3$_1clEPNS3_9igraphics9IGraphicsEEUlRK10WDL_StringSD_E0_FvSD_SD_EE7__cloneEv', symObjAddr: 0x28CD8, symBinAddr: 0x43128, symSize: 0x34 }
  - { offset: 0x2D154B, size: 0x8, addend: 0x0, symName: '__ZNKSt3__110__function6__funcIZZN7PhoenixC1ERKN5iplug12InstanceInfoEENK3$_1clEPNS3_9igraphics9IGraphicsEEUlRK10WDL_StringSD_E0_FvSD_SD_EE7__cloneEPNS0_6__baseISF_EE', symObjAddr: 0x28D0C, symBinAddr: 0x4315C, symSize: 0x14 }
  - { offset: 0x2D15BA, size: 0x8, addend: 0x0, symName: '__ZNSt3__110__function6__funcIZZN7PhoenixC1ERKN5iplug12InstanceInfoEENK3$_1clEPNS3_9igraphics9IGraphicsEEUlRK10WDL_StringSD_E0_FvSD_SD_EE7destroyEv', symObjAddr: 0x28D20, symBinAddr: 0x43170, symSize: 0x4 }
  - { offset: 0x2D15DD, size: 0x8, addend: 0x0, symName: '__ZNSt3__110__function6__funcIZZN7PhoenixC1ERKN5iplug12InstanceInfoEENK3$_1clEPNS3_9igraphics9IGraphicsEEUlRK10WDL_StringSD_E0_FvSD_SD_EE18destroy_deallocateEv', symObjAddr: 0x28D24, symBinAddr: 0x43174, symSize: 0x14 }
  - { offset: 0x2D16BF, size: 0x8, addend: 0x0, symName: '__ZNSt3__110__function6__funcIZZN7PhoenixC1ERKN5iplug12InstanceInfoEENK3$_1clEPNS3_9igraphics9IGraphicsEEUlRK10WDL_StringSD_E0_FvSD_SD_EEclESD_SD_', symObjAddr: 0x28D38, symBinAddr: 0x43188, symSize: 0x42C }
  - { offset: 0x2D25F4, size: 0x8, addend: 0x0, symName: '__ZNKSt3__110__function6__funcIZZN7PhoenixC1ERKN5iplug12InstanceInfoEENK3$_1clEPNS3_9igraphics9IGraphicsEEUlRK10WDL_StringSD_E0_FvSD_SD_EE6targetERKSt9type_info', symObjAddr: 0x29164, symBinAddr: 0x435B4, symSize: 0x60 }
  - { offset: 0x2D26B0, size: 0x8, addend: 0x0, symName: '__ZNKSt3__110__function6__funcIZZN7PhoenixC1ERKN5iplug12InstanceInfoEENK3$_1clEPNS3_9igraphics9IGraphicsEEUlRK10WDL_StringSD_E0_FvSD_SD_EE11target_typeEv', symObjAddr: 0x291C4, symBinAddr: 0x43614, symSize: 0xC }
  - { offset: 0x2D2759, size: 0x8, addend: 0x0, symName: __ZN19NAMPhaseFlipControlD1Ev, symObjAddr: 0x291D0, symBinAddr: 0x43620, symSize: 0x38 }
  - { offset: 0x2D2871, size: 0x8, addend: 0x0, symName: __ZN19NAMPhaseFlipControlD0Ev, symObjAddr: 0x29208, symBinAddr: 0x43658, symSize: 0x3C }
  - { offset: 0x2D299F, size: 0x8, addend: 0x0, symName: __ZN19NAMPhaseFlipControl4DrawERN5iplug9igraphics9IGraphicsE, symObjAddr: 0x29244, symBinAddr: 0x43694, symSize: 0x1A8 }
  - { offset: 0x2D2C32, size: 0x8, addend: 0x0, symName: __ZThn8_N19NAMPhaseFlipControlD1Ev, symObjAddr: 0x293EC, symBinAddr: 0x4383C, symSize: 0x3C }
  - { offset: 0x2D2D35, size: 0x8, addend: 0x0, symName: __ZThn8_N19NAMPhaseFlipControlD0Ev, symObjAddr: 0x29428, symBinAddr: 0x43878, symSize: 0x40 }
  - { offset: 0x2D2E5C, size: 0x8, addend: 0x0, symName: __ZN14NAMMuteControlD1Ev, symObjAddr: 0x29468, symBinAddr: 0x438B8, symSize: 0x38 }
  - { offset: 0x2D2F74, size: 0x8, addend: 0x0, symName: __ZN14NAMMuteControlD0Ev, symObjAddr: 0x294A0, symBinAddr: 0x438F0, symSize: 0x3C }
  - { offset: 0x2D3086, size: 0x8, addend: 0x0, symName: __ZN14NAMMuteControl4DrawERN5iplug9igraphics9IGraphicsE, symObjAddr: 0x294DC, symBinAddr: 0x4392C, symSize: 0x1A8 }
  - { offset: 0x2D3319, size: 0x8, addend: 0x0, symName: __ZThn8_N14NAMMuteControlD1Ev, symObjAddr: 0x29684, symBinAddr: 0x43AD4, symSize: 0x3C }
  - { offset: 0x2D341C, size: 0x8, addend: 0x0, symName: __ZThn8_N14NAMMuteControlD0Ev, symObjAddr: 0x296C0, symBinAddr: 0x43B10, symSize: 0x40 }
  - { offset: 0x2D3543, size: 0x8, addend: 0x0, symName: __ZN15NAMDelayControlD1Ev, symObjAddr: 0x29700, symBinAddr: 0x43B50, symSize: 0x4 }
  - { offset: 0x2D3567, size: 0x8, addend: 0x0, symName: __ZN15NAMDelayControlD1Ev, symObjAddr: 0x29700, symBinAddr: 0x43B50, symSize: 0x4 }
  - { offset: 0x2D35A2, size: 0x8, addend: 0x0, symName: __ZN15NAMDelayControlD0Ev, symObjAddr: 0x29704, symBinAddr: 0x43B54, symSize: 0x14 }
  - { offset: 0x2D35FF, size: 0x8, addend: 0x0, symName: __ZN15NAMDelayControl11OnMouseDownEffRKN5iplug9igraphics9IMouseModE, symObjAddr: 0x29718, symBinAddr: 0x43B68, symSize: 0x54 }
  - { offset: 0x2D36BD, size: 0x8, addend: 0x0, symName: __ZN15NAMDelayControl11OnMouseDragEffffRKN5iplug9igraphics9IMouseModE, symObjAddr: 0x2976C, symBinAddr: 0x43BBC, symSize: 0x74 }
  - { offset: 0x2D37FA, size: 0x8, addend: 0x0, symName: __ZN15NAMDelayControl12OnMouseWheelEffRKN5iplug9igraphics9IMouseModEf, symObjAddr: 0x297E0, symBinAddr: 0x43C30, symSize: 0x8C }
  - { offset: 0x2D3914, size: 0x8, addend: 0x0, symName: __ZN15NAMDelayControl4DrawERN5iplug9igraphics9IGraphicsE, symObjAddr: 0x2986C, symBinAddr: 0x43CBC, symSize: 0x1FC }
  - { offset: 0x2D3D4C, size: 0x8, addend: 0x0, symName: __ZThn8_N15NAMDelayControlD1Ev, symObjAddr: 0x29A68, symBinAddr: 0x43EB8, symSize: 0x8 }
  - { offset: 0x2D3DBA, size: 0x8, addend: 0x0, symName: __ZThn8_N15NAMDelayControlD0Ev, symObjAddr: 0x29A70, symBinAddr: 0x43EC0, symSize: 0x18 }
  - { offset: 0x2D3E2A, size: 0x8, addend: 0x0, symName: '__ZNSt3__110__function6__funcIZZN7PhoenixC1ERKN5iplug12InstanceInfoEENK3$_1clEPNS3_9igraphics9IGraphicsEEUlPNS8_8IControlEE_FvSC_EED1Ev', symObjAddr: 0x29A88, symBinAddr: 0x43ED8, symSize: 0x4 }
  - { offset: 0x2D3E59, size: 0x8, addend: 0x0, symName: '__ZNSt3__110__function6__funcIZZN7PhoenixC1ERKN5iplug12InstanceInfoEENK3$_1clEPNS3_9igraphics9IGraphicsEEUlPNS8_8IControlEE_FvSC_EED0Ev', symObjAddr: 0x29A8C, symBinAddr: 0x43EDC, symSize: 0x4 }
  - { offset: 0x2D3E84, size: 0x8, addend: 0x0, symName: '__ZNKSt3__110__function6__funcIZZN7PhoenixC1ERKN5iplug12InstanceInfoEENK3$_1clEPNS3_9igraphics9IGraphicsEEUlPNS8_8IControlEE_FvSC_EE7__cloneEv', symObjAddr: 0x29A90, symBinAddr: 0x43EE0, symSize: 0x34 }
  - { offset: 0x2D3EE7, size: 0x8, addend: 0x0, symName: '__ZNKSt3__110__function6__funcIZZN7PhoenixC1ERKN5iplug12InstanceInfoEENK3$_1clEPNS3_9igraphics9IGraphicsEEUlPNS8_8IControlEE_FvSC_EE7__cloneEPNS0_6__baseISE_EE', symObjAddr: 0x29AC4, symBinAddr: 0x43F14, symSize: 0x14 }
  - { offset: 0x2D3F4C, size: 0x8, addend: 0x0, symName: '__ZNSt3__110__function6__funcIZZN7PhoenixC1ERKN5iplug12InstanceInfoEENK3$_1clEPNS3_9igraphics9IGraphicsEEUlPNS8_8IControlEE_FvSC_EE7destroyEv', symObjAddr: 0x29AD8, symBinAddr: 0x43F28, symSize: 0x4 }
  - { offset: 0x2D3F6F, size: 0x8, addend: 0x0, symName: '__ZNSt3__110__function6__funcIZZN7PhoenixC1ERKN5iplug12InstanceInfoEENK3$_1clEPNS3_9igraphics9IGraphicsEEUlPNS8_8IControlEE_FvSC_EE18destroy_deallocateEv', symObjAddr: 0x29ADC, symBinAddr: 0x43F2C, symSize: 0x14 }
  - { offset: 0x2D4218, size: 0x8, addend: 0x0, symName: '__ZNSt3__110__function6__funcIZZN7PhoenixC1ERKN5iplug12InstanceInfoEENK3$_1clEPNS3_9igraphics9IGraphicsEEUlPNS8_8IControlEE_FvSC_EEclEOSC_', symObjAddr: 0x29AF0, symBinAddr: 0x43F40, symSize: 0x214 }
  - { offset: 0x2D48EB, size: 0x8, addend: 0x0, symName: '__ZNKSt3__110__function6__funcIZZN7PhoenixC1ERKN5iplug12InstanceInfoEENK3$_1clEPNS3_9igraphics9IGraphicsEEUlPNS8_8IControlEE_FvSC_EE6targetERKSt9type_info', symObjAddr: 0x29D04, symBinAddr: 0x44154, symSize: 0x60 }
  - { offset: 0x2D49A7, size: 0x8, addend: 0x0, symName: '__ZNKSt3__110__function6__funcIZZN7PhoenixC1ERKN5iplug12InstanceInfoEENK3$_1clEPNS3_9igraphics9IGraphicsEEUlPNS8_8IControlEE_FvSC_EE11target_typeEv', symObjAddr: 0x29D64, symBinAddr: 0x441B4, symSize: 0xC }
  - { offset: 0x2D4AEC, size: 0x8, addend: 0x0, symName: __ZNSt3__110__function6__funcIZN22NAMSettingsPageControl12HideAnimatedEbEUliPN5iplug9igraphics8IControlEE_FviS6_EED1Ev, symObjAddr: 0x29FA8, symBinAddr: 0x443F8, symSize: 0x4 }
  - { offset: 0x2D4B1B, size: 0x8, addend: 0x0, symName: __ZNSt3__110__function6__funcIZN22NAMSettingsPageControl12HideAnimatedEbEUliPN5iplug9igraphics8IControlEE_FviS6_EED0Ev, symObjAddr: 0x29FAC, symBinAddr: 0x443FC, symSize: 0x4 }
  - { offset: 0x2D4B92, size: 0x8, addend: 0x0, symName: __ZNKSt3__110__function6__funcIZN22NAMSettingsPageControl12HideAnimatedEbEUliPN5iplug9igraphics8IControlEE_FviS6_EE7__cloneEv, symObjAddr: 0x29FB0, symBinAddr: 0x44400, symSize: 0x38 }
  - { offset: 0x2D4C09, size: 0x8, addend: 0x0, symName: __ZNKSt3__110__function6__funcIZN22NAMSettingsPageControl12HideAnimatedEbEUliPN5iplug9igraphics8IControlEE_FviS6_EE7__cloneEPNS0_6__baseIS8_EE, symObjAddr: 0x29FE8, symBinAddr: 0x44438, symSize: 0x18 }
  - { offset: 0x2D4C3F, size: 0x8, addend: 0x0, symName: __ZNKSt3__110__function6__funcIZN22NAMSettingsPageControl12HideAnimatedEbEUliPN5iplug9igraphics8IControlEE_FviS6_EE7__cloneEPNS0_6__baseIS8_EE, symObjAddr: 0x29FE8, symBinAddr: 0x44438, symSize: 0x18 }
  - { offset: 0x2D4C66, size: 0x8, addend: 0x0, symName: __ZNKSt3__110__function6__funcIZN22NAMSettingsPageControl12HideAnimatedEbEUliPN5iplug9igraphics8IControlEE_FviS6_EE7__cloneEPNS0_6__baseIS8_EE, symObjAddr: 0x29FE8, symBinAddr: 0x44438, symSize: 0x18 }
  - { offset: 0x2D4C8C, size: 0x8, addend: 0x0, symName: __ZNSt3__110__function6__funcIZN22NAMSettingsPageControl12HideAnimatedEbEUliPN5iplug9igraphics8IControlEE_FviS6_EE7destroyEv, symObjAddr: 0x2A000, symBinAddr: 0x44450, symSize: 0x4 }
  - { offset: 0x2D4CAF, size: 0x8, addend: 0x0, symName: __ZNSt3__110__function6__funcIZN22NAMSettingsPageControl12HideAnimatedEbEUliPN5iplug9igraphics8IControlEE_FviS6_EE18destroy_deallocateEv, symObjAddr: 0x2A004, symBinAddr: 0x44454, symSize: 0x14 }
  - { offset: 0x2D4D71, size: 0x8, addend: 0x0, symName: __ZNSt3__110__function6__funcIZN22NAMSettingsPageControl12HideAnimatedEbEUliPN5iplug9igraphics8IControlEE_FviS6_EEclEOiOS6_, symObjAddr: 0x2A018, symBinAddr: 0x44468, symSize: 0x18 }
  - { offset: 0x2D4DB7, size: 0x8, addend: 0x0, symName: __ZNSt3__110__function6__funcIZN22NAMSettingsPageControl12HideAnimatedEbEUliPN5iplug9igraphics8IControlEE_FviS6_EEclEOiOS6_, symObjAddr: 0x2A018, symBinAddr: 0x44468, symSize: 0x18 }
  - { offset: 0x2D4DE0, size: 0x8, addend: 0x0, symName: __ZNSt3__110__function6__funcIZN22NAMSettingsPageControl12HideAnimatedEbEUliPN5iplug9igraphics8IControlEE_FviS6_EEclEOiOS6_, symObjAddr: 0x2A018, symBinAddr: 0x44468, symSize: 0x18 }
  - { offset: 0x2D4E0B, size: 0x8, addend: 0x0, symName: __ZNSt3__110__function6__funcIZN22NAMSettingsPageControl12HideAnimatedEbEUliPN5iplug9igraphics8IControlEE_FviS6_EEclEOiOS6_, symObjAddr: 0x2A018, symBinAddr: 0x44468, symSize: 0x18 }
  - { offset: 0x2D4E6B, size: 0x8, addend: 0x0, symName: __ZNKSt3__110__function6__funcIZN22NAMSettingsPageControl12HideAnimatedEbEUliPN5iplug9igraphics8IControlEE_FviS6_EE6targetERKSt9type_info, symObjAddr: 0x2A030, symBinAddr: 0x44480, symSize: 0x60 }
  - { offset: 0x2D4F27, size: 0x8, addend: 0x0, symName: __ZNKSt3__110__function6__funcIZN22NAMSettingsPageControl12HideAnimatedEbEUliPN5iplug9igraphics8IControlEE_FviS6_EE11target_typeEv, symObjAddr: 0x2A090, symBinAddr: 0x444E0, symSize: 0xC }
  - { offset: 0x2D4F4A, size: 0x8, addend: 0x0, symName: __ZNSt3__110__function6__funcIZN22NAMSettingsPageControl12HideAnimatedEbEUlPN5iplug9igraphics8IControlEE_FvS6_EED1Ev, symObjAddr: 0x2A09C, symBinAddr: 0x444EC, symSize: 0x4 }
  - { offset: 0x2D4F79, size: 0x8, addend: 0x0, symName: __ZNSt3__110__function6__funcIZN22NAMSettingsPageControl12HideAnimatedEbEUlPN5iplug9igraphics8IControlEE_FvS6_EED0Ev, symObjAddr: 0x2A0A0, symBinAddr: 0x444F0, symSize: 0x4 }
  - { offset: 0x2D4FA4, size: 0x8, addend: 0x0, symName: __ZNKSt3__110__function6__funcIZN22NAMSettingsPageControl12HideAnimatedEbEUlPN5iplug9igraphics8IControlEE_FvS6_EE7__cloneEv, symObjAddr: 0x2A0A4, symBinAddr: 0x444F4, symSize: 0x34 }
  - { offset: 0x2D501B, size: 0x8, addend: 0x0, symName: __ZNKSt3__110__function6__funcIZN22NAMSettingsPageControl12HideAnimatedEbEUlPN5iplug9igraphics8IControlEE_FvS6_EE7__cloneEPNS0_6__baseIS8_EE, symObjAddr: 0x2A0D8, symBinAddr: 0x44528, symSize: 0x14 }
  - { offset: 0x2D5047, size: 0x8, addend: 0x0, symName: __ZNKSt3__110__function6__funcIZN22NAMSettingsPageControl12HideAnimatedEbEUlPN5iplug9igraphics8IControlEE_FvS6_EE7__cloneEPNS0_6__baseIS8_EE, symObjAddr: 0x2A0D8, symBinAddr: 0x44528, symSize: 0x14 }
  - { offset: 0x2D506E, size: 0x8, addend: 0x0, symName: __ZNKSt3__110__function6__funcIZN22NAMSettingsPageControl12HideAnimatedEbEUlPN5iplug9igraphics8IControlEE_FvS6_EE7__cloneEPNS0_6__baseIS8_EE, symObjAddr: 0x2A0D8, symBinAddr: 0x44528, symSize: 0x14 }
  - { offset: 0x2D5094, size: 0x8, addend: 0x0, symName: __ZNSt3__110__function6__funcIZN22NAMSettingsPageControl12HideAnimatedEbEUlPN5iplug9igraphics8IControlEE_FvS6_EE7destroyEv, symObjAddr: 0x2A0EC, symBinAddr: 0x4453C, symSize: 0x4 }
  - { offset: 0x2D50B7, size: 0x8, addend: 0x0, symName: __ZNSt3__110__function6__funcIZN22NAMSettingsPageControl12HideAnimatedEbEUlPN5iplug9igraphics8IControlEE_FvS6_EE18destroy_deallocateEv, symObjAddr: 0x2A0F0, symBinAddr: 0x44540, symSize: 0x14 }
  - { offset: 0x2D5236, size: 0x8, addend: 0x0, symName: __ZNSt3__110__function6__funcIZN22NAMSettingsPageControl12HideAnimatedEbEUlPN5iplug9igraphics8IControlEE_FvS6_EEclEOS6_, symObjAddr: 0x2A104, symBinAddr: 0x44554, symSize: 0x160 }
  - { offset: 0x2D5770, size: 0x8, addend: 0x0, symName: __ZNKSt3__110__function6__funcIZN22NAMSettingsPageControl12HideAnimatedEbEUlPN5iplug9igraphics8IControlEE_FvS6_EE6targetERKSt9type_info, symObjAddr: 0x2A264, symBinAddr: 0x446B4, symSize: 0x60 }
  - { offset: 0x2D582C, size: 0x8, addend: 0x0, symName: __ZNKSt3__110__function6__funcIZN22NAMSettingsPageControl12HideAnimatedEbEUlPN5iplug9igraphics8IControlEE_FvS6_EE11target_typeEv, symObjAddr: 0x2A2C4, symBinAddr: 0x44714, symSize: 0xC }
  - { offset: 0x2D586F, size: 0x8, addend: 0x0, symName: __ZN22NAMCircleButtonControlD1Ev, symObjAddr: 0x2A2D0, symBinAddr: 0x44720, symSize: 0x4 }
  - { offset: 0x2D5893, size: 0x8, addend: 0x0, symName: __ZN22NAMCircleButtonControlD1Ev, symObjAddr: 0x2A2D0, symBinAddr: 0x44720, symSize: 0x4 }
  - { offset: 0x2D58B0, size: 0x8, addend: 0x0, symName: __ZN22NAMCircleButtonControlD1Ev, symObjAddr: 0x2A2D0, symBinAddr: 0x44720, symSize: 0x4 }
  - { offset: 0x2D58CD, size: 0x8, addend: 0x0, symName: __ZN22NAMCircleButtonControlD1Ev, symObjAddr: 0x2A2D0, symBinAddr: 0x44720, symSize: 0x4 }
  - { offset: 0x2D590B, size: 0x8, addend: 0x0, symName: __ZN22NAMCircleButtonControlD0Ev, symObjAddr: 0x2A2D4, symBinAddr: 0x44724, symSize: 0x14 }
  - { offset: 0x2D59A5, size: 0x8, addend: 0x0, symName: __ZN22NAMCircleButtonControl4DrawERN5iplug9igraphics9IGraphicsE, symObjAddr: 0x2A2E8, symBinAddr: 0x44738, symSize: 0x118 }
  - { offset: 0x2D5B9D, size: 0x8, addend: 0x0, symName: __ZThn8_N22NAMCircleButtonControlD1Ev, symObjAddr: 0x2A400, symBinAddr: 0x44850, symSize: 0x8 }
  - { offset: 0x2D5C48, size: 0x8, addend: 0x0, symName: __ZThn8_N22NAMCircleButtonControlD0Ev, symObjAddr: 0x2A408, symBinAddr: 0x44858, symSize: 0x18 }
  - { offset: 0x2D5FD3, size: 0x8, addend: 0x0, symName: __ZN22NAMSettingsPageControlD1Ev, symObjAddr: 0x2A544, symBinAddr: 0x44994, symSize: 0x48 }
  - { offset: 0x2D61F3, size: 0x8, addend: 0x0, symName: __ZN22NAMSettingsPageControl12ControlNamesD2Ev, symObjAddr: 0x2C198, symBinAddr: 0x465E8, symSize: 0x118 }
  - { offset: 0x2D6B3C, size: 0x8, addend: 0x0, symName: __ZN22NAMSettingsPageControlD0Ev, symObjAddr: 0x2A58C, symBinAddr: 0x449DC, symSize: 0x4C }
  - { offset: 0x2D6D79, size: 0x8, addend: 0x0, symName: __ZN22NAMSettingsPageControl9OnKeyDownEffRKN5iplug9IKeyPressE, symObjAddr: 0x2A5D8, symBinAddr: 0x44A28, symSize: 0x34 }
  - { offset: 0x2D7402, size: 0x8, addend: 0x0, symName: __ZNSt3__112__hash_tableINS_17__hash_value_typeINS_12basic_stringIcNS_11char_traitsIcEENS_9allocatorIcEEEEiEENS_22__unordered_map_hasherIS7_NS_4pairIKS7_iEENS_4hashIS7_EENS_8equal_toIS7_EELb1EEENS_21__unordered_map_equalIS7_SC_SG_SE_Lb1EEENS5_ISC_EEE25__emplace_unique_key_argsIS7_JRKNS_21piecewise_construct_tENS_5tupleIJRSB_EEENSQ_IJEEEEEENSA_INS_15__hash_iteratorIPNS_11__hash_nodeIS8_PvEEEEbEERKT_DpOT0_, symObjAddr: 0x2C2B0, symBinAddr: 0x46700, symSize: 0x564 }
  - { offset: 0x2D7FCD, size: 0x8, addend: 0x0, symName: __ZN16NAMSwitchControlC2ERKN5iplug9igraphics5IRECTEiPKcRKNS1_7IVStyleENS1_7IBitmapE, symObjAddr: 0x2C874, symBinAddr: 0x46CC4, symSize: 0x25C }
  - { offset: 0x2D869F, size: 0x8, addend: 0x0, symName: __ZN5iplug9igraphics20IEditableTextControlD2Ev, symObjAddr: 0x2D2E8, symBinAddr: 0x47738, symSize: 0x38 }
  - { offset: 0x2D8776, size: 0x8, addend: 0x0, symName: __ZN22NAMSettingsPageControl4DrawERN5iplug9igraphics9IGraphicsE, symObjAddr: 0x2C098, symBinAddr: 0x464E8, symSize: 0x24 }
  - { offset: 0x2D87BA, size: 0x8, addend: 0x0, symName: __ZThn8_N22NAMSettingsPageControlD1Ev, symObjAddr: 0x2C0BC, symBinAddr: 0x4650C, symSize: 0x50 }
  - { offset: 0x2D8A0B, size: 0x8, addend: 0x0, symName: __ZThn8_N22NAMSettingsPageControlD0Ev, symObjAddr: 0x2C10C, symBinAddr: 0x4655C, symSize: 0x54 }
  - { offset: 0x2D8C60, size: 0x8, addend: 0x0, symName: __ZN31IContainerBaseWithNamedChildrenD1Ev, symObjAddr: 0x2C160, symBinAddr: 0x465B0, symSize: 0x4 }
  - { offset: 0x2D8C84, size: 0x8, addend: 0x0, symName: __ZN31IContainerBaseWithNamedChildrenD1Ev, symObjAddr: 0x2C160, symBinAddr: 0x465B0, symSize: 0x4 }
  - { offset: 0x2D8CAD, size: 0x8, addend: 0x0, symName: __ZN31IContainerBaseWithNamedChildrenD0Ev, symObjAddr: 0x2C164, symBinAddr: 0x465B4, symSize: 0x14 }
  - { offset: 0x2D8CFB, size: 0x8, addend: 0x0, symName: __ZThn8_N31IContainerBaseWithNamedChildrenD1Ev, symObjAddr: 0x2C178, symBinAddr: 0x465C8, symSize: 0x8 }
  - { offset: 0x2D8D58, size: 0x8, addend: 0x0, symName: __ZThn8_N31IContainerBaseWithNamedChildrenD0Ev, symObjAddr: 0x2C180, symBinAddr: 0x465D0, symSize: 0x18 }
  - { offset: 0x2D945F, size: 0x8, addend: 0x0, symName: __ZNSt3__110unique_ptrINS_11__hash_nodeINS_17__hash_value_typeINS_12basic_stringIcNS_11char_traitsIcEENS_9allocatorIcEEEEiEEPvEENS_22__hash_node_destructorINS6_ISB_EEEEED1B9nqe210106Ev, symObjAddr: 0x2C814, symBinAddr: 0x46C64, symSize: 0x60 }
  - { offset: 0x2D982C, size: 0x8, addend: 0x0, symName: __ZN5iplug9igraphics20IVSlideSwitchControlD2Ev, symObjAddr: 0x2CAD0, symBinAddr: 0x46F20, symSize: 0x54 }
  - { offset: 0x2D9AD2, size: 0x8, addend: 0x0, symName: __ZN16NAMSwitchControlD1Ev, symObjAddr: 0x2CB24, symBinAddr: 0x46F74, symSize: 0x68 }
  - { offset: 0x2D9E6F, size: 0x8, addend: 0x0, symName: __ZN16NAMSwitchControlD0Ev, symObjAddr: 0x2CB8C, symBinAddr: 0x46FDC, symSize: 0x6C }
  - { offset: 0x2DA202, size: 0x8, addend: 0x0, symName: __ZN5iplug9igraphics15IVSwitchControl10OnMouseOutEv, symObjAddr: 0x2CBF8, symBinAddr: 0x47048, symSize: 0x54 }
  - { offset: 0x2DA26B, size: 0x8, addend: 0x0, symName: __ZN16NAMSwitchControl4DrawERN5iplug9igraphics9IGraphicsE, symObjAddr: 0x2CC4C, symBinAddr: 0x4709C, symSize: 0x44 }
  - { offset: 0x2DA2BB, size: 0x8, addend: 0x0, symName: __ZN16NAMSwitchControl10DrawWidgetERN5iplug9igraphics9IGraphicsE, symObjAddr: 0x2CC90, symBinAddr: 0x470E0, symSize: 0x44 }
  - { offset: 0x2DA300, size: 0x8, addend: 0x0, symName: __ZN16NAMSwitchControl10DrawHandleERN5iplug9igraphics9IGraphicsERKNS1_5IRECTE, symObjAddr: 0x2CCD4, symBinAddr: 0x47124, symSize: 0x8C }
  - { offset: 0x2DA3D2, size: 0x8, addend: 0x0, symName: __ZN16NAMSwitchControl9DrawTrackERN5iplug9igraphics9IGraphicsERKNS1_5IRECTE, symObjAddr: 0x2CD60, symBinAddr: 0x471B0, symSize: 0x268 }
  - { offset: 0x2DA814, size: 0x8, addend: 0x0, symName: __ZThn8_N16NAMSwitchControlD1Ev, symObjAddr: 0x2CFC8, symBinAddr: 0x47418, symSize: 0x70 }
  - { offset: 0x2DABC1, size: 0x8, addend: 0x0, symName: __ZThn8_N16NAMSwitchControlD0Ev, symObjAddr: 0x2D038, symBinAddr: 0x47488, symSize: 0x74 }
  - { offset: 0x2DAF72, size: 0x8, addend: 0x0, symName: __ZThn520_N16NAMSwitchControlD1Ev, symObjAddr: 0x2D0AC, symBinAddr: 0x474FC, symSize: 0x74 }
  - { offset: 0x2DB2FB, size: 0x8, addend: 0x0, symName: __ZThn520_N16NAMSwitchControlD0Ev, symObjAddr: 0x2D120, symBinAddr: 0x47570, symSize: 0x78 }
  - { offset: 0x2DB6BE, size: 0x8, addend: 0x0, symName: __ZThn520_N16NAMSwitchControl10DrawWidgetERN5iplug9igraphics9IGraphicsE, symObjAddr: 0x2D198, symBinAddr: 0x475E8, symSize: 0x54 }
  - { offset: 0x2DB717, size: 0x8, addend: 0x0, symName: __ZThn1152_N16NAMSwitchControlD1Ev, symObjAddr: 0x2D1EC, symBinAddr: 0x4763C, symSize: 0x7C }
  - { offset: 0x2DBA8D, size: 0x8, addend: 0x0, symName: __ZThn1152_N16NAMSwitchControlD0Ev, symObjAddr: 0x2D268, symBinAddr: 0x476B8, symSize: 0x80 }
  - { offset: 0x2DBE7D, size: 0x8, addend: 0x0, symName: __ZN22NAMSettingsPageControl17InputLevelControlD1Ev, symObjAddr: 0x2D320, symBinAddr: 0x47770, symSize: 0x50 }
  - { offset: 0x2DC08C, size: 0x8, addend: 0x0, symName: __ZN22NAMSettingsPageControl17InputLevelControlD0Ev, symObjAddr: 0x2D370, symBinAddr: 0x477C0, symSize: 0x54 }
  - { offset: 0x2DC2AF, size: 0x8, addend: 0x0, symName: __ZN5iplug9igraphics20IEditableTextControl11OnMouseDownEffRKNS0_9IMouseModE, symObjAddr: 0x2D3C4, symBinAddr: 0x47814, symSize: 0x90 }
  - { offset: 0x2DC479, size: 0x8, addend: 0x0, symName: __ZN5iplug9igraphics20IEditableTextControl21OnTextEntryCompletionEPKci, symObjAddr: 0x2D454, symBinAddr: 0x478A4, symSize: 0x3C }
  - { offset: 0x2DC4D6, size: 0x8, addend: 0x0, symName: __ZN22NAMSettingsPageControl17InputLevelControl4DrawERN5iplug9igraphics9IGraphicsE, symObjAddr: 0x2D490, symBinAddr: 0x478E0, symSize: 0xB8 }
  - { offset: 0x2DC5F6, size: 0x8, addend: 0x0, symName: __ZN22NAMSettingsPageControl17InputLevelControl20SetValueFromDelegateEdi, symObjAddr: 0x2D548, symBinAddr: 0x47998, symSize: 0x118 }
  - { offset: 0x2DCA8F, size: 0x8, addend: 0x0, symName: __ZN22NAMSettingsPageControl17InputLevelControl15ConvertToStringEd, symObjAddr: 0x2D828, symBinAddr: 0x47C78, symSize: 0x204 }
  - { offset: 0x2DD195, size: 0x8, addend: 0x0, symName: __ZN22NAMSettingsPageControl17InputLevelControl21SetValueFromUserInputEdi, symObjAddr: 0x2D660, symBinAddr: 0x47AB0, symSize: 0xF8 }
  - { offset: 0x2DD502, size: 0x8, addend: 0x0, symName: __ZN5iplug9igraphics12ITextControl8ClearStrEv, symObjAddr: 0x2D758, symBinAddr: 0x47BA8, symSize: 0x14 }
  - { offset: 0x2DD533, size: 0x8, addend: 0x0, symName: __ZThn8_N22NAMSettingsPageControl17InputLevelControlD1Ev, symObjAddr: 0x2D76C, symBinAddr: 0x47BBC, symSize: 0x5C }
  - { offset: 0x2DD752, size: 0x8, addend: 0x0, symName: __ZThn8_N22NAMSettingsPageControl17InputLevelControlD0Ev, symObjAddr: 0x2D7C8, symBinAddr: 0x47C18, symSize: 0x60 }
  - { offset: 0x2DD9DB, size: 0x8, addend: 0x0, symName: __ZN19OversamplingControlD1Ev, symObjAddr: 0x2DA2C, symBinAddr: 0x47E7C, symSize: 0x4 }
  - { offset: 0x2DD9FF, size: 0x8, addend: 0x0, symName: __ZN19OversamplingControlD1Ev, symObjAddr: 0x2DA2C, symBinAddr: 0x47E7C, symSize: 0x4 }
  - { offset: 0x2DDA1D, size: 0x8, addend: 0x0, symName: __ZN19OversamplingControlD1Ev, symObjAddr: 0x2DA2C, symBinAddr: 0x47E7C, symSize: 0x4 }
  - { offset: 0x2DDA3D, size: 0x8, addend: 0x0, symName: __ZN19OversamplingControlD1Ev, symObjAddr: 0x2DA2C, symBinAddr: 0x47E7C, symSize: 0x4 }
  - { offset: 0x2DDA48, size: 0x8, addend: 0x0, symName: __ZN5iplug9igraphics18IVTabSwitchControlD2Ev, symObjAddr: 0x2DAE0, symBinAddr: 0x47F30, symSize: 0x90 }
  - { offset: 0x2DDDC8, size: 0x8, addend: 0x0, symName: __ZN19OversamplingControlD0Ev, symObjAddr: 0x2DA30, symBinAddr: 0x47E80, symSize: 0x14 }
  - { offset: 0x2DDE54, size: 0x8, addend: 0x0, symName: __ZN5iplug9igraphics18IVTabSwitchControl10OnMouseOutEv, symObjAddr: 0x2DA44, symBinAddr: 0x47E94, symSize: 0x5C }
  - { offset: 0x2DDEBD, size: 0x8, addend: 0x0, symName: __ZThn8_N19OversamplingControlD1Ev, symObjAddr: 0x2DAA0, symBinAddr: 0x47EF0, symSize: 0x8 }
  - { offset: 0x2DDF5B, size: 0x8, addend: 0x0, symName: __ZThn8_N19OversamplingControlD0Ev, symObjAddr: 0x2DAA8, symBinAddr: 0x47EF8, symSize: 0x18 }
  - { offset: 0x2DDFFB, size: 0x8, addend: 0x0, symName: __ZThn520_N19OversamplingControlD1Ev, symObjAddr: 0x2DAC0, symBinAddr: 0x47F10, symSize: 0x8 }
  - { offset: 0x2DE07C, size: 0x8, addend: 0x0, symName: __ZThn520_N19OversamplingControlD0Ev, symObjAddr: 0x2DAC8, symBinAddr: 0x47F18, symSize: 0x18 }
  - { offset: 0x2DE13D, size: 0x8, addend: 0x0, symName: __ZN13IRModeControlD1Ev, symObjAddr: 0x2DB70, symBinAddr: 0x47FC0, symSize: 0x4 }
  - { offset: 0x2DE161, size: 0x8, addend: 0x0, symName: __ZN13IRModeControlD1Ev, symObjAddr: 0x2DB70, symBinAddr: 0x47FC0, symSize: 0x4 }
  - { offset: 0x2DE17F, size: 0x8, addend: 0x0, symName: __ZN13IRModeControlD1Ev, symObjAddr: 0x2DB70, symBinAddr: 0x47FC0, symSize: 0x4 }
  - { offset: 0x2DE19F, size: 0x8, addend: 0x0, symName: __ZN13IRModeControlD1Ev, symObjAddr: 0x2DB70, symBinAddr: 0x47FC0, symSize: 0x4 }
  - { offset: 0x2DE1CB, size: 0x8, addend: 0x0, symName: __ZN13IRModeControlD0Ev, symObjAddr: 0x2DB74, symBinAddr: 0x47FC4, symSize: 0x14 }
  - { offset: 0x2DE257, size: 0x8, addend: 0x0, symName: __ZThn8_N13IRModeControlD1Ev, symObjAddr: 0x2DB88, symBinAddr: 0x47FD8, symSize: 0x8 }
  - { offset: 0x2DE2F5, size: 0x8, addend: 0x0, symName: __ZThn8_N13IRModeControlD0Ev, symObjAddr: 0x2DB90, symBinAddr: 0x47FE0, symSize: 0x18 }
  - { offset: 0x2DE395, size: 0x8, addend: 0x0, symName: __ZThn520_N13IRModeControlD1Ev, symObjAddr: 0x2DBA8, symBinAddr: 0x47FF8, symSize: 0x8 }
  - { offset: 0x2DE416, size: 0x8, addend: 0x0, symName: __ZThn520_N13IRModeControlD0Ev, symObjAddr: 0x2DBB0, symBinAddr: 0x48000, symSize: 0x18 }
  - { offset: 0x2DE4D7, size: 0x8, addend: 0x0, symName: __ZN19BlendNearestControlD1Ev, symObjAddr: 0x2DBC8, symBinAddr: 0x48018, symSize: 0x4 }
  - { offset: 0x2DE4FB, size: 0x8, addend: 0x0, symName: __ZN19BlendNearestControlD1Ev, symObjAddr: 0x2DBC8, symBinAddr: 0x48018, symSize: 0x4 }
  - { offset: 0x2DE519, size: 0x8, addend: 0x0, symName: __ZN19BlendNearestControlD1Ev, symObjAddr: 0x2DBC8, symBinAddr: 0x48018, symSize: 0x4 }
  - { offset: 0x2DE539, size: 0x8, addend: 0x0, symName: __ZN19BlendNearestControlD1Ev, symObjAddr: 0x2DBC8, symBinAddr: 0x48018, symSize: 0x4 }
  - { offset: 0x2DE565, size: 0x8, addend: 0x0, symName: __ZN19BlendNearestControlD0Ev, symObjAddr: 0x2DBCC, symBinAddr: 0x4801C, symSize: 0x14 }
  - { offset: 0x2DE5F1, size: 0x8, addend: 0x0, symName: __ZThn8_N19BlendNearestControlD1Ev, symObjAddr: 0x2DBE0, symBinAddr: 0x48030, symSize: 0x8 }
  - { offset: 0x2DE68F, size: 0x8, addend: 0x0, symName: __ZThn8_N19BlendNearestControlD0Ev, symObjAddr: 0x2DBE8, symBinAddr: 0x48038, symSize: 0x18 }
  - { offset: 0x2DE72F, size: 0x8, addend: 0x0, symName: __ZThn520_N19BlendNearestControlD1Ev, symObjAddr: 0x2DC00, symBinAddr: 0x48050, symSize: 0x8 }
  - { offset: 0x2DE7B0, size: 0x8, addend: 0x0, symName: __ZThn520_N19BlendNearestControlD0Ev, symObjAddr: 0x2DC08, symBinAddr: 0x48058, symSize: 0x18 }
  - { offset: 0x2DE850, size: 0x8, addend: 0x0, symName: __ZNSt3__110__function6__funcIZN22NAMSettingsPageControl10OnAttachedEvEUlPN5iplug9igraphics8IControlEE_FvS6_EED1Ev, symObjAddr: 0x2DC20, symBinAddr: 0x48070, symSize: 0x4 }
  - { offset: 0x2DE87F, size: 0x8, addend: 0x0, symName: __ZNSt3__110__function6__funcIZN22NAMSettingsPageControl10OnAttachedEvEUlPN5iplug9igraphics8IControlEE_FvS6_EED0Ev, symObjAddr: 0x2DC24, symBinAddr: 0x48074, symSize: 0x4 }
  - { offset: 0x2DE8AA, size: 0x8, addend: 0x0, symName: __ZNKSt3__110__function6__funcIZN22NAMSettingsPageControl10OnAttachedEvEUlPN5iplug9igraphics8IControlEE_FvS6_EE7__cloneEv, symObjAddr: 0x2DC28, symBinAddr: 0x48078, symSize: 0x24 }
  - { offset: 0x2DE909, size: 0x8, addend: 0x0, symName: __ZNKSt3__110__function6__funcIZN22NAMSettingsPageControl10OnAttachedEvEUlPN5iplug9igraphics8IControlEE_FvS6_EE7__cloneEPNS0_6__baseIS8_EE, symObjAddr: 0x2DC4C, symBinAddr: 0x4809C, symSize: 0x10 }
  - { offset: 0x2DE933, size: 0x8, addend: 0x0, symName: __ZNKSt3__110__function6__funcIZN22NAMSettingsPageControl10OnAttachedEvEUlPN5iplug9igraphics8IControlEE_FvS6_EE7__cloneEPNS0_6__baseIS8_EE, symObjAddr: 0x2DC4C, symBinAddr: 0x4809C, symSize: 0x10 }
  - { offset: 0x2DE950, size: 0x8, addend: 0x0, symName: __ZNKSt3__110__function6__funcIZN22NAMSettingsPageControl10OnAttachedEvEUlPN5iplug9igraphics8IControlEE_FvS6_EE7__cloneEPNS0_6__baseIS8_EE, symObjAddr: 0x2DC4C, symBinAddr: 0x4809C, symSize: 0x10 }
  - { offset: 0x2DE96C, size: 0x8, addend: 0x0, symName: __ZNSt3__110__function6__funcIZN22NAMSettingsPageControl10OnAttachedEvEUlPN5iplug9igraphics8IControlEE_FvS6_EE7destroyEv, symObjAddr: 0x2DC5C, symBinAddr: 0x480AC, symSize: 0x4 }
  - { offset: 0x2DE98F, size: 0x8, addend: 0x0, symName: __ZNSt3__110__function6__funcIZN22NAMSettingsPageControl10OnAttachedEvEUlPN5iplug9igraphics8IControlEE_FvS6_EE18destroy_deallocateEv, symObjAddr: 0x2DC60, symBinAddr: 0x480B0, symSize: 0x14 }
  - { offset: 0x2DEA46, size: 0x8, addend: 0x0, symName: __ZNSt3__110__function6__funcIZN22NAMSettingsPageControl10OnAttachedEvEUlPN5iplug9igraphics8IControlEE_FvS6_EEclEOS6_, symObjAddr: 0x2DC74, symBinAddr: 0x480C4, symSize: 0x10 }
  - { offset: 0x2DEA7C, size: 0x8, addend: 0x0, symName: __ZNSt3__110__function6__funcIZN22NAMSettingsPageControl10OnAttachedEvEUlPN5iplug9igraphics8IControlEE_FvS6_EEclEOS6_, symObjAddr: 0x2DC74, symBinAddr: 0x480C4, symSize: 0x10 }
  - { offset: 0x2DEA9B, size: 0x8, addend: 0x0, symName: __ZNSt3__110__function6__funcIZN22NAMSettingsPageControl10OnAttachedEvEUlPN5iplug9igraphics8IControlEE_FvS6_EEclEOS6_, symObjAddr: 0x2DC74, symBinAddr: 0x480C4, symSize: 0x10 }
  - { offset: 0x2DEABC, size: 0x8, addend: 0x0, symName: __ZNSt3__110__function6__funcIZN22NAMSettingsPageControl10OnAttachedEvEUlPN5iplug9igraphics8IControlEE_FvS6_EEclEOS6_, symObjAddr: 0x2DC74, symBinAddr: 0x480C4, symSize: 0x10 }
  - { offset: 0x2DEB29, size: 0x8, addend: 0x0, symName: __ZNKSt3__110__function6__funcIZN22NAMSettingsPageControl10OnAttachedEvEUlPN5iplug9igraphics8IControlEE_FvS6_EE6targetERKSt9type_info, symObjAddr: 0x2DC84, symBinAddr: 0x480D4, symSize: 0x60 }
  - { offset: 0x2DEBE5, size: 0x8, addend: 0x0, symName: __ZNKSt3__110__function6__funcIZN22NAMSettingsPageControl10OnAttachedEvEUlPN5iplug9igraphics8IControlEE_FvS6_EE11target_typeEv, symObjAddr: 0x2DCE4, symBinAddr: 0x48134, symSize: 0xC }
  - { offset: 0x2DEC08, size: 0x8, addend: 0x0, symName: '__ZNSt3__110__function6__funcIZZN7PhoenixC1ERKN5iplug12InstanceInfoEENK3$_1clEPNS3_9igraphics9IGraphicsEEUlPNS8_8IControlEE0_FvSC_EED1Ev', symObjAddr: 0x2DCF0, symBinAddr: 0x48140, symSize: 0x4 }
  - { offset: 0x2DEC37, size: 0x8, addend: 0x0, symName: '__ZNSt3__110__function6__funcIZZN7PhoenixC1ERKN5iplug12InstanceInfoEENK3$_1clEPNS3_9igraphics9IGraphicsEEUlPNS8_8IControlEE0_FvSC_EED0Ev', symObjAddr: 0x2DCF4, symBinAddr: 0x48144, symSize: 0x4 }
  - { offset: 0x2DECAE, size: 0x8, addend: 0x0, symName: '__ZNKSt3__110__function6__funcIZZN7PhoenixC1ERKN5iplug12InstanceInfoEENK3$_1clEPNS3_9igraphics9IGraphicsEEUlPNS8_8IControlEE0_FvSC_EE7__cloneEv', symObjAddr: 0x2DCF8, symBinAddr: 0x48148, symSize: 0x24 }
  - { offset: 0x2DED0D, size: 0x8, addend: 0x0, symName: '__ZNKSt3__110__function6__funcIZZN7PhoenixC1ERKN5iplug12InstanceInfoEENK3$_1clEPNS3_9igraphics9IGraphicsEEUlPNS8_8IControlEE0_FvSC_EE7__cloneEPNS0_6__baseISE_EE', symObjAddr: 0x2DD1C, symBinAddr: 0x4816C, symSize: 0x10 }
  - { offset: 0x2DED41, size: 0x8, addend: 0x0, symName: '__ZNKSt3__110__function6__funcIZZN7PhoenixC1ERKN5iplug12InstanceInfoEENK3$_1clEPNS3_9igraphics9IGraphicsEEUlPNS8_8IControlEE0_FvSC_EE7__cloneEPNS0_6__baseISE_EE', symObjAddr: 0x2DD1C, symBinAddr: 0x4816C, symSize: 0x10 }
  - { offset: 0x2DED5E, size: 0x8, addend: 0x0, symName: '__ZNKSt3__110__function6__funcIZZN7PhoenixC1ERKN5iplug12InstanceInfoEENK3$_1clEPNS3_9igraphics9IGraphicsEEUlPNS8_8IControlEE0_FvSC_EE7__cloneEPNS0_6__baseISE_EE', symObjAddr: 0x2DD1C, symBinAddr: 0x4816C, symSize: 0x10 }
  - { offset: 0x2DED7A, size: 0x8, addend: 0x0, symName: '__ZNSt3__110__function6__funcIZZN7PhoenixC1ERKN5iplug12InstanceInfoEENK3$_1clEPNS3_9igraphics9IGraphicsEEUlPNS8_8IControlEE0_FvSC_EE7destroyEv', symObjAddr: 0x2DD2C, symBinAddr: 0x4817C, symSize: 0x4 }
  - { offset: 0x2DED9D, size: 0x8, addend: 0x0, symName: '__ZNSt3__110__function6__funcIZZN7PhoenixC1ERKN5iplug12InstanceInfoEENK3$_1clEPNS3_9igraphics9IGraphicsEEUlPNS8_8IControlEE0_FvSC_EE18destroy_deallocateEv', symObjAddr: 0x2DD30, symBinAddr: 0x48180, symSize: 0x14 }
  - { offset: 0x2DEE61, size: 0x8, addend: 0x0, symName: '__ZNSt3__110__function6__funcIZZN7PhoenixC1ERKN5iplug12InstanceInfoEENK3$_1clEPNS3_9igraphics9IGraphicsEEUlPNS8_8IControlEE0_FvSC_EEclEOSC_', symObjAddr: 0x2DD44, symBinAddr: 0x48194, symSize: 0x10 }
  - { offset: 0x2DEF1D, size: 0x8, addend: 0x0, symName: '__ZNKSt3__110__function6__funcIZZN7PhoenixC1ERKN5iplug12InstanceInfoEENK3$_1clEPNS3_9igraphics9IGraphicsEEUlPNS8_8IControlEE0_FvSC_EE6targetERKSt9type_info', symObjAddr: 0x2DD54, symBinAddr: 0x481A4, symSize: 0x60 }
  - { offset: 0x2DEFD9, size: 0x8, addend: 0x0, symName: '__ZNKSt3__110__function6__funcIZZN7PhoenixC1ERKN5iplug12InstanceInfoEENK3$_1clEPNS3_9igraphics9IGraphicsEEUlPNS8_8IControlEE0_FvSC_EE11target_typeEv', symObjAddr: 0x2DDB4, symBinAddr: 0x48204, symSize: 0xC }
  - { offset: 0x2DEFFC, size: 0x8, addend: 0x0, symName: '__ZNSt3__110__function6__funcIZZN7PhoenixC1ERKN5iplug12InstanceInfoEENK3$_1clEPNS3_9igraphics9IGraphicsEEUlPNS8_8IControlEE1_FvSC_EED1Ev', symObjAddr: 0x2DDC0, symBinAddr: 0x48210, symSize: 0x4 }
  - { offset: 0x2DF02B, size: 0x8, addend: 0x0, symName: '__ZNSt3__110__function6__funcIZZN7PhoenixC1ERKN5iplug12InstanceInfoEENK3$_1clEPNS3_9igraphics9IGraphicsEEUlPNS8_8IControlEE1_FvSC_EED0Ev', symObjAddr: 0x2DDC4, symBinAddr: 0x48214, symSize: 0x4 }
  - { offset: 0x2DF0A2, size: 0x8, addend: 0x0, symName: '__ZNKSt3__110__function6__funcIZZN7PhoenixC1ERKN5iplug12InstanceInfoEENK3$_1clEPNS3_9igraphics9IGraphicsEEUlPNS8_8IControlEE1_FvSC_EE7__cloneEv', symObjAddr: 0x2DDC8, symBinAddr: 0x48218, symSize: 0x24 }
  - { offset: 0x2DF101, size: 0x8, addend: 0x0, symName: '__ZNKSt3__110__function6__funcIZZN7PhoenixC1ERKN5iplug12InstanceInfoEENK3$_1clEPNS3_9igraphics9IGraphicsEEUlPNS8_8IControlEE1_FvSC_EE7__cloneEPNS0_6__baseISE_EE', symObjAddr: 0x2DDEC, symBinAddr: 0x4823C, symSize: 0x10 }
  - { offset: 0x2DF135, size: 0x8, addend: 0x0, symName: '__ZNKSt3__110__function6__funcIZZN7PhoenixC1ERKN5iplug12InstanceInfoEENK3$_1clEPNS3_9igraphics9IGraphicsEEUlPNS8_8IControlEE1_FvSC_EE7__cloneEPNS0_6__baseISE_EE', symObjAddr: 0x2DDEC, symBinAddr: 0x4823C, symSize: 0x10 }
  - { offset: 0x2DF152, size: 0x8, addend: 0x0, symName: '__ZNKSt3__110__function6__funcIZZN7PhoenixC1ERKN5iplug12InstanceInfoEENK3$_1clEPNS3_9igraphics9IGraphicsEEUlPNS8_8IControlEE1_FvSC_EE7__cloneEPNS0_6__baseISE_EE', symObjAddr: 0x2DDEC, symBinAddr: 0x4823C, symSize: 0x10 }
  - { offset: 0x2DF16E, size: 0x8, addend: 0x0, symName: '__ZNSt3__110__function6__funcIZZN7PhoenixC1ERKN5iplug12InstanceInfoEENK3$_1clEPNS3_9igraphics9IGraphicsEEUlPNS8_8IControlEE1_FvSC_EE7destroyEv', symObjAddr: 0x2DDFC, symBinAddr: 0x4824C, symSize: 0x4 }
  - { offset: 0x2DF191, size: 0x8, addend: 0x0, symName: '__ZNSt3__110__function6__funcIZZN7PhoenixC1ERKN5iplug12InstanceInfoEENK3$_1clEPNS3_9igraphics9IGraphicsEEUlPNS8_8IControlEE1_FvSC_EE18destroy_deallocateEv', symObjAddr: 0x2DE00, symBinAddr: 0x48250, symSize: 0x14 }
  - { offset: 0x2DF255, size: 0x8, addend: 0x0, symName: '__ZNSt3__110__function6__funcIZZN7PhoenixC1ERKN5iplug12InstanceInfoEENK3$_1clEPNS3_9igraphics9IGraphicsEEUlPNS8_8IControlEE1_FvSC_EEclEOSC_', symObjAddr: 0x2DE14, symBinAddr: 0x48264, symSize: 0x20 }
  - { offset: 0x2DF35F, size: 0x8, addend: 0x0, symName: '__ZNKSt3__110__function6__funcIZZN7PhoenixC1ERKN5iplug12InstanceInfoEENK3$_1clEPNS3_9igraphics9IGraphicsEEUlPNS8_8IControlEE1_FvSC_EE6targetERKSt9type_info', symObjAddr: 0x2DE34, symBinAddr: 0x48284, symSize: 0x60 }
  - { offset: 0x2DF41B, size: 0x8, addend: 0x0, symName: '__ZNKSt3__110__function6__funcIZZN7PhoenixC1ERKN5iplug12InstanceInfoEENK3$_1clEPNS3_9igraphics9IGraphicsEEUlPNS8_8IControlEE1_FvSC_EE11target_typeEv', symObjAddr: 0x2DE94, symBinAddr: 0x482E4, symSize: 0xC }
  - { offset: 0x2DF7B3, size: 0x8, addend: 0x0, symName: '__ZNSt3__110__function6__funcIZN7Phoenix20OnParentWindowResizeEiiE3$_0FvPN5iplug9igraphics8IControlEEED1Ev', symObjAddr: 0x2DFB8, symBinAddr: 0x48408, symSize: 0x4 }
  - { offset: 0x2DF7E2, size: 0x8, addend: 0x0, symName: '__ZNSt3__110__function6__funcIZN7Phoenix20OnParentWindowResizeEiiE3$_0FvPN5iplug9igraphics8IControlEEED0Ev', symObjAddr: 0x2DFBC, symBinAddr: 0x4840C, symSize: 0x4 }
  - { offset: 0x2DF859, size: 0x8, addend: 0x0, symName: '__ZNKSt3__110__function6__funcIZN7Phoenix20OnParentWindowResizeEiiE3$_0FvPN5iplug9igraphics8IControlEEE7__cloneEv', symObjAddr: 0x2DFC0, symBinAddr: 0x48410, symSize: 0x24 }
  - { offset: 0x2DF8B8, size: 0x8, addend: 0x0, symName: '__ZNKSt3__110__function6__funcIZN7Phoenix20OnParentWindowResizeEiiE3$_0FvPN5iplug9igraphics8IControlEEE7__cloneEPNS0_6__baseIS8_EE', symObjAddr: 0x2DFE4, symBinAddr: 0x48434, symSize: 0x10 }
  - { offset: 0x2DF8EC, size: 0x8, addend: 0x0, symName: '__ZNKSt3__110__function6__funcIZN7Phoenix20OnParentWindowResizeEiiE3$_0FvPN5iplug9igraphics8IControlEEE7__cloneEPNS0_6__baseIS8_EE', symObjAddr: 0x2DFE4, symBinAddr: 0x48434, symSize: 0x10 }
  - { offset: 0x2DF909, size: 0x8, addend: 0x0, symName: '__ZNKSt3__110__function6__funcIZN7Phoenix20OnParentWindowResizeEiiE3$_0FvPN5iplug9igraphics8IControlEEE7__cloneEPNS0_6__baseIS8_EE', symObjAddr: 0x2DFE4, symBinAddr: 0x48434, symSize: 0x10 }
  - { offset: 0x2DF925, size: 0x8, addend: 0x0, symName: '__ZNSt3__110__function6__funcIZN7Phoenix20OnParentWindowResizeEiiE3$_0FvPN5iplug9igraphics8IControlEEE7destroyEv', symObjAddr: 0x2DFF4, symBinAddr: 0x48444, symSize: 0x4 }
  - { offset: 0x2DF948, size: 0x8, addend: 0x0, symName: '__ZNSt3__110__function6__funcIZN7Phoenix20OnParentWindowResizeEiiE3$_0FvPN5iplug9igraphics8IControlEEE18destroy_deallocateEv', symObjAddr: 0x2DFF8, symBinAddr: 0x48448, symSize: 0x14 }
  - { offset: 0x2DF9E9, size: 0x8, addend: 0x0, symName: '__ZNSt3__110__function6__funcIZN7Phoenix20OnParentWindowResizeEiiE3$_0FvPN5iplug9igraphics8IControlEEEclEOS7_', symObjAddr: 0x2E00C, symBinAddr: 0x4845C, symSize: 0x10 }
  - { offset: 0x2DFA8D, size: 0x8, addend: 0x0, symName: '__ZNKSt3__110__function6__funcIZN7Phoenix20OnParentWindowResizeEiiE3$_0FvPN5iplug9igraphics8IControlEEE6targetERKSt9type_info', symObjAddr: 0x2E01C, symBinAddr: 0x4846C, symSize: 0x60 }
  - { offset: 0x2DFB49, size: 0x8, addend: 0x0, symName: '__ZNKSt3__110__function6__funcIZN7Phoenix20OnParentWindowResizeEiiE3$_0FvPN5iplug9igraphics8IControlEEE11target_typeEv', symObjAddr: 0x2E07C, symBinAddr: 0x484CC, symSize: 0xC }
  - { offset: 0x2DFB6C, size: 0x8, addend: 0x0, symName: '__ZNSt3__110__function6__funcIZN7Phoenix9OnMessageEiiiPKvE3$_0FvPN5iplug9igraphics8IControlEEED1Ev', symObjAddr: 0x2E088, symBinAddr: 0x484D8, symSize: 0x4 }
  - { offset: 0x2DFB9B, size: 0x8, addend: 0x0, symName: '__ZNSt3__110__function6__funcIZN7Phoenix9OnMessageEiiiPKvE3$_0FvPN5iplug9igraphics8IControlEEED0Ev', symObjAddr: 0x2E08C, symBinAddr: 0x484DC, symSize: 0x4 }
  - { offset: 0x2DFC12, size: 0x8, addend: 0x0, symName: '__ZNKSt3__110__function6__funcIZN7Phoenix9OnMessageEiiiPKvE3$_0FvPN5iplug9igraphics8IControlEEE7__cloneEv', symObjAddr: 0x2E090, symBinAddr: 0x484E0, symSize: 0x34 }
  - { offset: 0x2DFC75, size: 0x8, addend: 0x0, symName: '__ZNKSt3__110__function6__funcIZN7Phoenix9OnMessageEiiiPKvE3$_0FvPN5iplug9igraphics8IControlEEE7__cloneEPNS0_6__baseISA_EE', symObjAddr: 0x2E0C4, symBinAddr: 0x48514, symSize: 0x14 }
  - { offset: 0x2DFCE4, size: 0x8, addend: 0x0, symName: '__ZNSt3__110__function6__funcIZN7Phoenix9OnMessageEiiiPKvE3$_0FvPN5iplug9igraphics8IControlEEE7destroyEv', symObjAddr: 0x2E0D8, symBinAddr: 0x48528, symSize: 0x4 }
  - { offset: 0x2DFD07, size: 0x8, addend: 0x0, symName: '__ZNSt3__110__function6__funcIZN7Phoenix9OnMessageEiiiPKvE3$_0FvPN5iplug9igraphics8IControlEEE18destroy_deallocateEv', symObjAddr: 0x2E0DC, symBinAddr: 0x4852C, symSize: 0x14 }
  - { offset: 0x2DFE7F, size: 0x8, addend: 0x0, symName: '__ZNSt3__110__function6__funcIZN7Phoenix9OnMessageEiiiPKvE3$_0FvPN5iplug9igraphics8IControlEEEclEOS9_', symObjAddr: 0x2E0F0, symBinAddr: 0x48540, symSize: 0x3DC }
  - { offset: 0x2E0AB2, size: 0x8, addend: 0x0, symName: '__ZNKSt3__110__function6__funcIZN7Phoenix9OnMessageEiiiPKvE3$_0FvPN5iplug9igraphics8IControlEEE6targetERKSt9type_info', symObjAddr: 0x2E4CC, symBinAddr: 0x4891C, symSize: 0x60 }
  - { offset: 0x2E0B6E, size: 0x8, addend: 0x0, symName: '__ZNKSt3__110__function6__funcIZN7Phoenix9OnMessageEiiiPKvE3$_0FvPN5iplug9igraphics8IControlEEE11target_typeEv', symObjAddr: 0x2E52C, symBinAddr: 0x4897C, symSize: 0xC }
  - { offset: 0x2E0F32, size: 0x8, addend: 0x0, symName: __ZN13ResamplingNAM5ResetEdi, symObjAddr: 0x2F160, symBinAddr: 0x495B0, symSize: 0x238 }
  - { offset: 0x2E1A19, size: 0x8, addend: 0x0, symName: __ZN13ResamplingNAMD1Ev, symObjAddr: 0x2E7E0, symBinAddr: 0x48C30, symSize: 0xB8 }
  - { offset: 0x2E1D7D, size: 0x8, addend: 0x0, symName: __ZN13ResamplingNAMD0Ev, symObjAddr: 0x2E898, symBinAddr: 0x48CE8, symSize: 0xB8 }
  - { offset: 0x2E20E9, size: 0x8, addend: 0x0, symName: __ZN13ResamplingNAM7prewarmEv, symObjAddr: 0x2E950, symBinAddr: 0x48DA0, symSize: 0x10 }
  - { offset: 0x2E2113, size: 0x8, addend: 0x0, symName: __ZN13ResamplingNAM7prewarmEv, symObjAddr: 0x2E950, symBinAddr: 0x48DA0, symSize: 0x10 }
  - { offset: 0x2E24EF, size: 0x8, addend: 0x0, symName: __ZN13ResamplingNAM7processEPPdS1_i, symObjAddr: 0x2E960, symBinAddr: 0x48DB0, symSize: 0x800 }
  - { offset: 0x2E30B7, size: 0x8, addend: 0x0, symName: __ZN3nam3DSP14PrewarmSamplesEv, symObjAddr: 0x2F398, symBinAddr: 0x497E8, symSize: 0x8 }
  - { offset: 0x2E30DE, size: 0x8, addend: 0x0, symName: __ZNSt3__110__function6__funcIZN13ResamplingNAMC1ENS_10unique_ptrIN3nam3DSPENS_14default_deleteIS5_EEEEdEUlPPdSA_iE_FvSA_SA_iEED1Ev, symObjAddr: 0x2F3A0, symBinAddr: 0x497F0, symSize: 0x4 }
  - { offset: 0x2E310D, size: 0x8, addend: 0x0, symName: __ZNSt3__110__function6__funcIZN13ResamplingNAMC1ENS_10unique_ptrIN3nam3DSPENS_14default_deleteIS5_EEEEdEUlPPdSA_iE_FvSA_SA_iEED0Ev, symObjAddr: 0x2F3A4, symBinAddr: 0x497F4, symSize: 0x4 }
  - { offset: 0x2E3138, size: 0x8, addend: 0x0, symName: __ZNKSt3__110__function6__funcIZN13ResamplingNAMC1ENS_10unique_ptrIN3nam3DSPENS_14default_deleteIS5_EEEEdEUlPPdSA_iE_FvSA_SA_iEE7__cloneEv, symObjAddr: 0x2F3A8, symBinAddr: 0x497F8, symSize: 0x34 }
  - { offset: 0x2E31AF, size: 0x8, addend: 0x0, symName: __ZNKSt3__110__function6__funcIZN13ResamplingNAMC1ENS_10unique_ptrIN3nam3DSPENS_14default_deleteIS5_EEEEdEUlPPdSA_iE_FvSA_SA_iEE7__cloneEPNS0_6__baseISC_EE, symObjAddr: 0x2F3DC, symBinAddr: 0x4982C, symSize: 0x14 }
  - { offset: 0x2E31DB, size: 0x8, addend: 0x0, symName: __ZNKSt3__110__function6__funcIZN13ResamplingNAMC1ENS_10unique_ptrIN3nam3DSPENS_14default_deleteIS5_EEEEdEUlPPdSA_iE_FvSA_SA_iEE7__cloneEPNS0_6__baseISC_EE, symObjAddr: 0x2F3DC, symBinAddr: 0x4982C, symSize: 0x14 }
  - { offset: 0x2E3202, size: 0x8, addend: 0x0, symName: __ZNKSt3__110__function6__funcIZN13ResamplingNAMC1ENS_10unique_ptrIN3nam3DSPENS_14default_deleteIS5_EEEEdEUlPPdSA_iE_FvSA_SA_iEE7__cloneEPNS0_6__baseISC_EE, symObjAddr: 0x2F3DC, symBinAddr: 0x4982C, symSize: 0x14 }
  - { offset: 0x2E3228, size: 0x8, addend: 0x0, symName: __ZNSt3__110__function6__funcIZN13ResamplingNAMC1ENS_10unique_ptrIN3nam3DSPENS_14default_deleteIS5_EEEEdEUlPPdSA_iE_FvSA_SA_iEE7destroyEv, symObjAddr: 0x2F3F0, symBinAddr: 0x49840, symSize: 0x4 }
  - { offset: 0x2E324B, size: 0x8, addend: 0x0, symName: __ZNSt3__110__function6__funcIZN13ResamplingNAMC1ENS_10unique_ptrIN3nam3DSPENS_14default_deleteIS5_EEEEdEUlPPdSA_iE_FvSA_SA_iEE18destroy_deallocateEv, symObjAddr: 0x2F3F4, symBinAddr: 0x49844, symSize: 0x14 }
  - { offset: 0x2E3342, size: 0x8, addend: 0x0, symName: __ZNSt3__110__function6__funcIZN13ResamplingNAMC1ENS_10unique_ptrIN3nam3DSPENS_14default_deleteIS5_EEEEdEUlPPdSA_iE_FvSA_SA_iEEclEOSA_SE_Oi, symObjAddr: 0x2F408, symBinAddr: 0x49858, symSize: 0xEC }
  - { offset: 0x2E350F, size: 0x8, addend: 0x0, symName: __ZNKSt3__110__function6__funcIZN13ResamplingNAMC1ENS_10unique_ptrIN3nam3DSPENS_14default_deleteIS5_EEEEdEUlPPdSA_iE_FvSA_SA_iEE6targetERKSt9type_info, symObjAddr: 0x2F4F4, symBinAddr: 0x49944, symSize: 0x60 }
  - { offset: 0x2E35CB, size: 0x8, addend: 0x0, symName: __ZNKSt3__110__function6__funcIZN13ResamplingNAMC1ENS_10unique_ptrIN3nam3DSPENS_14default_deleteIS5_EEEEdEUlPPdSA_iE_FvSA_SA_iEE11target_typeEv, symObjAddr: 0x2F554, symBinAddr: 0x499A4, symSize: 0xC }
  - { offset: 0x2E3C31, size: 0x8, addend: 0x0, symName: __ZN8nlohmann16json_abi_v3_11_26detail10serializerINS0_10basic_jsonINSt3__13mapENS4_6vectorENS4_12basic_stringIcNS4_11char_traitsIcEENS4_9allocatorIcEEEEbxydSA_NS0_14adl_serializerENS6_IhNSA_IhEEEEEEE12dump_escapedERKSC_b, symObjAddr: 0x30EEC, symBinAddr: 0x4B284, symSize: 0x56C }
  - { offset: 0x2E45B4, size: 0x8, addend: 0x0, symName: __ZNSt3__120__shared_ptr_emplaceIN8nlohmann16json_abi_v3_11_26detail21output_stream_adapterIcEENS_9allocatorIS5_EEED1Ev, symObjAddr: 0x30E94, symBinAddr: 0x4B22C, symSize: 0x10 }
  - { offset: 0x2E45D8, size: 0x8, addend: 0x0, symName: __ZNSt3__120__shared_ptr_emplaceIN8nlohmann16json_abi_v3_11_26detail21output_stream_adapterIcEENS_9allocatorIS5_EEED1Ev, symObjAddr: 0x30E94, symBinAddr: 0x4B22C, symSize: 0x10 }
  - { offset: 0x2E4613, size: 0x8, addend: 0x0, symName: __ZNSt3__120__shared_ptr_emplaceIN8nlohmann16json_abi_v3_11_26detail21output_stream_adapterIcEENS_9allocatorIS5_EEED0Ev, symObjAddr: 0x30EA4, symBinAddr: 0x4B23C, symSize: 0x20 }
  - { offset: 0x2E46E5, size: 0x8, addend: 0x0, symName: __ZNSt3__120__shared_ptr_emplaceIN8nlohmann16json_abi_v3_11_26detail21output_stream_adapterIcEENS_9allocatorIS5_EEE16__on_zero_sharedEv, symObjAddr: 0x30EC4, symBinAddr: 0x4B25C, symSize: 0xC }
  - { offset: 0x2E470F, size: 0x8, addend: 0x0, symName: __ZNSt3__120__shared_ptr_emplaceIN8nlohmann16json_abi_v3_11_26detail21output_stream_adapterIcEENS_9allocatorIS5_EEE16__on_zero_sharedEv, symObjAddr: 0x30EC4, symBinAddr: 0x4B25C, symSize: 0xC }
  - { offset: 0x2E472E, size: 0x8, addend: 0x0, symName: __ZNSt3__120__shared_ptr_emplaceIN8nlohmann16json_abi_v3_11_26detail21output_stream_adapterIcEENS_9allocatorIS5_EEE16__on_zero_sharedEv, symObjAddr: 0x30EC4, symBinAddr: 0x4B25C, symSize: 0xC }
  - { offset: 0x2E474D, size: 0x8, addend: 0x0, symName: __ZNSt3__120__shared_ptr_emplaceIN8nlohmann16json_abi_v3_11_26detail21output_stream_adapterIcEENS_9allocatorIS5_EEE16__on_zero_sharedEv, symObjAddr: 0x30EC4, symBinAddr: 0x4B25C, symSize: 0xC }
  - { offset: 0x2E47DC, size: 0x8, addend: 0x0, symName: __ZNSt3__120__shared_ptr_emplaceIN8nlohmann16json_abi_v3_11_26detail21output_stream_adapterIcEENS_9allocatorIS5_EEE21__on_zero_shared_weakEv, symObjAddr: 0x30ED0, symBinAddr: 0x4B268, symSize: 0x4 }
  - { offset: 0x2E4810, size: 0x8, addend: 0x0, symName: __ZNSt3__120__shared_ptr_emplaceIN8nlohmann16json_abi_v3_11_26detail21output_stream_adapterIcEENS_9allocatorIS5_EEE21__on_zero_shared_weakEv, symObjAddr: 0x30ED0, symBinAddr: 0x4B268, symSize: 0x4 }
  - { offset: 0x2E4834, size: 0x8, addend: 0x0, symName: __ZNSt3__120__shared_ptr_emplaceIN8nlohmann16json_abi_v3_11_26detail21output_stream_adapterIcEENS_9allocatorIS5_EEE21__on_zero_shared_weakEv, symObjAddr: 0x30ED0, symBinAddr: 0x4B268, symSize: 0x4 }
  - { offset: 0x2E4859, size: 0x8, addend: 0x0, symName: __ZNSt3__120__shared_ptr_emplaceIN8nlohmann16json_abi_v3_11_26detail21output_stream_adapterIcEENS_9allocatorIS5_EEE21__on_zero_shared_weakEv, symObjAddr: 0x30ED0, symBinAddr: 0x4B268, symSize: 0x4 }
  - { offset: 0x2E489B, size: 0x8, addend: 0x0, symName: __ZN8nlohmann16json_abi_v3_11_26detail21output_stream_adapterIcE15write_characterEc, symObjAddr: 0x30ED4, symBinAddr: 0x4B26C, symSize: 0x8 }
  - { offset: 0x2E48D1, size: 0x8, addend: 0x0, symName: __ZN8nlohmann16json_abi_v3_11_26detail21output_stream_adapterIcE16write_charactersEPKcm, symObjAddr: 0x30EDC, symBinAddr: 0x4B274, symSize: 0x8 }
  - { offset: 0x2E4916, size: 0x8, addend: 0x0, symName: __ZN8nlohmann16json_abi_v3_11_26detail21output_stream_adapterIcED1Ev, symObjAddr: 0x30EE4, symBinAddr: 0x4B27C, symSize: 0x4 }
  - { offset: 0x2E4946, size: 0x8, addend: 0x0, symName: __ZN8nlohmann16json_abi_v3_11_26detail21output_stream_adapterIcED0Ev, symObjAddr: 0x30EE8, symBinAddr: 0x4B280, symSize: 0x4 }
  - { offset: 0x2E4A4C, size: 0x8, addend: 0x0, symName: __ZN8nlohmann16json_abi_v3_11_26detail10type_error6createIDnLi0EEES2_iRKNSt3__112basic_stringIcNS4_11char_traitsIcEENS4_9allocatorIcEEEET_, symObjAddr: 0x31458, symBinAddr: 0x4B7F0, symSize: 0x1C4 }
  - { offset: 0x2E5E79, size: 0x8, addend: 0x0, symName: __ZNSt3__112__hash_tableINS_17__hash_value_typeINS_12basic_stringIcNS_11char_traitsIcEENS_9allocatorIcEEEES7_EENS_22__unordered_map_hasherIS7_NS_4pairIKS7_S7_EENS_4hashIS7_EENS_8equal_toIS7_EELb1EEENS_21__unordered_map_equalIS7_SC_SG_SE_Lb1EEENS5_ISC_EEE11__do_rehashILb1EEEvm, symObjAddr: 0x31F38, symBinAddr: 0x4C044, symSize: 0x18C }
  - { offset: 0x2E61F2, size: 0x8, addend: 0x0, symName: __ZNSt3__110unique_ptrINS_11__hash_nodeINS_17__hash_value_typeINS_12basic_stringIcNS_11char_traitsIcEENS_9allocatorIcEEEES8_EEPvEENS_22__hash_node_destructorINS6_ISB_EEEEED1B9nqe210106Ev, symObjAddr: 0x31ECC, symBinAddr: 0x4BFD8, symSize: 0x6C }
  - { offset: 0x2E6A94, size: 0x8, addend: 0x0, symName: __GLOBAL__sub_I_Phoenix.cpp, symObjAddr: 0x360C8, symBinAddr: 0x4C304, symSize: 0x724 }
  - { offset: 0x2F08E4, size: 0x8, addend: 0x0, symName: __ZN9Steinberg22IPluginFactoryInternal3iidE, symObjAddr: 0x21CF0, symBinAddr: 0x2B4310, symSize: 0x0 }
  - { offset: 0x2F0963, size: 0x8, addend: 0x0, symName: __ZN9Steinberg14gPluginFactoryE, symObjAddr: 0x21D08, symBinAddr: 0x1327A8, symSize: 0x0 }
  - { offset: 0x2F0CCC, size: 0x8, addend: 0x0, symName: __ZN9SteinbergL26IPluginFactoryInternal_iidE, symObjAddr: 0xEEC, symBinAddr: 0x1030E6, symSize: 0x0 }
  - { offset: 0x2F32A8, size: 0x8, addend: 0x0, symName: __ZTVN9Steinberg14CPluginFactoryE, symObjAddr: 0xFB0, symBinAddr: 0x122B50, symSize: 0x0 }
  - { offset: 0x2F3411, size: 0x8, addend: 0x0, symName: __ZN9Steinberg14CPluginFactoryD1Ev, symObjAddr: 0xA4, symBinAddr: 0x4CA28, symSize: 0x60 }
  - { offset: 0x2F35AE, size: 0x8, addend: 0x0, symName: __ZN9Steinberg14CPluginFactoryD0Ev, symObjAddr: 0x104, symBinAddr: 0x4CA88, symSize: 0x60 }
  - { offset: 0x2F3745, size: 0x8, addend: 0x0, symName: __ZN9Steinberg14CPluginFactory6addRefEv, symObjAddr: 0x164, symBinAddr: 0x4CAE8, symSize: 0x14 }
  - { offset: 0x2F37A7, size: 0x8, addend: 0x0, symName: __ZThn8_N9Steinberg14CPluginFactory6addRefEv, symObjAddr: 0x178, symBinAddr: 0x4CAFC, symSize: 0x14 }
  - { offset: 0x2F37C1, size: 0x8, addend: 0x0, symName: __ZThn8_N9Steinberg14CPluginFactory6addRefEv, symObjAddr: 0x178, symBinAddr: 0x4CAFC, symSize: 0x14 }
  - { offset: 0x2F3804, size: 0x8, addend: 0x0, symName: __ZN9Steinberg14CPluginFactory7releaseEv, symObjAddr: 0x18C, symBinAddr: 0x4CB10, symSize: 0x3C }
  - { offset: 0x2F3870, size: 0x8, addend: 0x0, symName: __ZThn8_N9Steinberg14CPluginFactory7releaseEv, symObjAddr: 0x1C8, symBinAddr: 0x4CB4C, symSize: 0x3C }
  - { offset: 0x2F38CF, size: 0x8, addend: 0x0, symName: __ZN9Steinberg14CPluginFactory14queryInterfaceEPKcPPv, symObjAddr: 0x204, symBinAddr: 0x4CB88, symSize: 0x140 }
  - { offset: 0x2F3A0C, size: 0x8, addend: 0x0, symName: __ZThn8_N9Steinberg14CPluginFactory14queryInterfaceEPKcPPv, symObjAddr: 0x344, symBinAddr: 0x4CCC8, symSize: 0x11C }
  - { offset: 0x2F3B37, size: 0x8, addend: 0x0, symName: __ZN9Steinberg11PClassInfoW9fromAsciiERKNS_11PClassInfo2E, symObjAddr: 0x550, symBinAddr: 0x4CDE4, symSize: 0x50C }
  - { offset: 0x2F3D60, size: 0x8, addend: 0x0, symName: __ZN9Steinberg14CPluginFactory14getFactoryInfoEPNS_12PFactoryInfoE, symObjAddr: 0xA5C, symBinAddr: 0x4D2F0, symSize: 0x2C }
  - { offset: 0x2F3D99, size: 0x8, addend: 0x0, symName: __ZN9Steinberg14CPluginFactory12countClassesEv, symObjAddr: 0xA88, symBinAddr: 0x4D31C, symSize: 0x8 }
  - { offset: 0x2F3DC2, size: 0x8, addend: 0x0, symName: __ZN9Steinberg14CPluginFactory12getClassInfoEiPNS_10PClassInfoE, symObjAddr: 0xA90, symBinAddr: 0x4D324, symSize: 0x84 }
  - { offset: 0x2F3E07, size: 0x8, addend: 0x0, symName: __ZN9Steinberg14CPluginFactory13getClassInfo2EiPNS_11PClassInfo2E, symObjAddr: 0xB14, symBinAddr: 0x4D3A8, symSize: 0x9C }
  - { offset: 0x2F3E50, size: 0x8, addend: 0x0, symName: __ZN9Steinberg14CPluginFactory19getClassInfoUnicodeEiPNS_11PClassInfoWE, symObjAddr: 0xBB0, symBinAddr: 0x4D444, symSize: 0x4C }
  - { offset: 0x2F3E99, size: 0x8, addend: 0x0, symName: __ZN9Steinberg14CPluginFactory14createInstanceEPKcS2_PPv, symObjAddr: 0xBFC, symBinAddr: 0x4D490, symSize: 0xBC }
  - { offset: 0x2F3F6A, size: 0x8, addend: 0x0, symName: __ZN9Steinberg14CPluginFactory14setHostContextEPNS_8FUnknownE, symObjAddr: 0xCB8, symBinAddr: 0x4D54C, symSize: 0x48 }
  - { offset: 0x2F43B1, size: 0x8, addend: 0x0, symName: __ZN9Steinberg14CPluginFactory22addHostContextCallbackEPFvPNS_8FUnknownEE, symObjAddr: 0xD00, symBinAddr: 0x4D594, symSize: 0xD8 }
  - { offset: 0x2F47F5, size: 0x8, addend: 0x0, symName: __ZThn8_N9Steinberg14CPluginFactory22addHostContextCallbackEPFvPNS_8FUnknownEE, symObjAddr: 0xDD8, symBinAddr: 0x4D66C, symSize: 0xD8 }
  - { offset: 0x2F4C9C, size: 0x8, addend: 0x0, symName: __GLOBAL__sub_I_pluginfactory.cpp, symObjAddr: 0xEC4, symBinAddr: 0x4D744, symSize: 0x28 }
  - { offset: 0x2F4CB4, size: 0x8, addend: 0x0, symName: __GLOBAL__sub_I_pluginfactory.cpp, symObjAddr: 0xEC4, symBinAddr: 0x4D744, symSize: 0x28 }
  - { offset: 0x2F4CC8, size: 0x8, addend: 0x0, symName: __GLOBAL__sub_I_pluginfactory.cpp, symObjAddr: 0xEC4, symBinAddr: 0x4D744, symSize: 0x28 }
  - { offset: 0x2F4CF1, size: 0x8, addend: 0x0, symName: __GLOBAL__sub_I_pluginfactory.cpp, symObjAddr: 0xEC4, symBinAddr: 0x4D744, symSize: 0x28 }
  - { offset: 0x2F6B2D, size: 0x8, addend: 0x0, symName: __MergedGlobals, symObjAddr: 0x391E0, symBinAddr: 0x2B4330, symSize: 0x0 }
  - { offset: 0x2F6B4A, size: 0x8, addend: 0x0, symName: __MergedGlobals, symObjAddr: 0x391E0, symBinAddr: 0x2B4330, symSize: 0x0 }
  - { offset: 0x2F6B67, size: 0x8, addend: 0x0, symName: __MergedGlobals, symObjAddr: 0x391E0, symBinAddr: 0x2B4330, symSize: 0x0 }
  - { offset: 0x2F6B84, size: 0x8, addend: 0x0, symName: __MergedGlobals, symObjAddr: 0x391E0, symBinAddr: 0x2B4330, symSize: 0x0 }
  - { offset: 0x2F6BA1, size: 0x8, addend: 0x0, symName: __MergedGlobals, symObjAddr: 0x391E0, symBinAddr: 0x2B4330, symSize: 0x0 }
  - { offset: 0x2F6BBF, size: 0x8, addend: 0x0, symName: __MergedGlobals, symObjAddr: 0x391E0, symBinAddr: 0x2B4330, symSize: 0x0 }
  - { offset: 0x2F6BDD, size: 0x8, addend: 0x0, symName: __MergedGlobals, symObjAddr: 0x391E0, symBinAddr: 0x2B4330, symSize: 0x0 }
  - { offset: 0x2F6BFB, size: 0x8, addend: 0x0, symName: __MergedGlobals, symObjAddr: 0x391E0, symBinAddr: 0x2B4330, symSize: 0x0 }
  - { offset: 0x2F6C19, size: 0x8, addend: 0x0, symName: __MergedGlobals, symObjAddr: 0x391E0, symBinAddr: 0x2B4330, symSize: 0x0 }
  - { offset: 0x2F6C37, size: 0x8, addend: 0x0, symName: __MergedGlobals, symObjAddr: 0x391E0, symBinAddr: 0x2B4330, symSize: 0x0 }
  - { offset: 0x2F6C55, size: 0x8, addend: 0x0, symName: __MergedGlobals, symObjAddr: 0x391E0, symBinAddr: 0x2B4330, symSize: 0x0 }
  - { offset: 0x2F6C73, size: 0x8, addend: 0x0, symName: __MergedGlobals, symObjAddr: 0x391E0, symBinAddr: 0x2B4330, symSize: 0x0 }
  - { offset: 0x2F6C91, size: 0x8, addend: 0x0, symName: __MergedGlobals, symObjAddr: 0x391E0, symBinAddr: 0x2B4330, symSize: 0x0 }
  - { offset: 0x2F6CAF, size: 0x8, addend: 0x0, symName: __MergedGlobals, symObjAddr: 0x391E0, symBinAddr: 0x2B4330, symSize: 0x0 }
  - { offset: 0x2F6CCD, size: 0x8, addend: 0x0, symName: __MergedGlobals, symObjAddr: 0x391E0, symBinAddr: 0x2B4330, symSize: 0x0 }
  - { offset: 0x2F6CEB, size: 0x8, addend: 0x0, symName: __MergedGlobals, symObjAddr: 0x391E0, symBinAddr: 0x2B4330, symSize: 0x0 }
  - { offset: 0x2F6D09, size: 0x8, addend: 0x0, symName: __MergedGlobals, symObjAddr: 0x391E0, symBinAddr: 0x2B4330, symSize: 0x0 }
  - { offset: 0x2F6D27, size: 0x8, addend: 0x0, symName: __MergedGlobals, symObjAddr: 0x391E0, symBinAddr: 0x2B4330, symSize: 0x0 }
  - { offset: 0x2F6D42, size: 0x8, addend: 0x0, symName: __MergedGlobals, symObjAddr: 0x391E0, symBinAddr: 0x2B4330, symSize: 0x0 }
  - { offset: 0x2F6D5F, size: 0x8, addend: 0x0, symName: __MergedGlobals, symObjAddr: 0x391E0, symBinAddr: 0x2B4330, symSize: 0x0 }
  - { offset: 0x2F6D7C, size: 0x8, addend: 0x0, symName: __MergedGlobals, symObjAddr: 0x391E0, symBinAddr: 0x2B4330, symSize: 0x0 }
  - { offset: 0x2F6D99, size: 0x8, addend: 0x0, symName: __MergedGlobals, symObjAddr: 0x391E0, symBinAddr: 0x2B4330, symSize: 0x0 }
  - { offset: 0x2F6DB6, size: 0x8, addend: 0x0, symName: __MergedGlobals, symObjAddr: 0x391E0, symBinAddr: 0x2B4330, symSize: 0x0 }
  - { offset: 0x2F6DD3, size: 0x8, addend: 0x0, symName: __MergedGlobals, symObjAddr: 0x391E0, symBinAddr: 0x2B4330, symSize: 0x0 }
  - { offset: 0x2F6DF0, size: 0x8, addend: 0x0, symName: __MergedGlobals, symObjAddr: 0x391E0, symBinAddr: 0x2B4330, symSize: 0x0 }
  - { offset: 0x2F6E0D, size: 0x8, addend: 0x0, symName: __MergedGlobals, symObjAddr: 0x391E0, symBinAddr: 0x2B4330, symSize: 0x0 }
  - { offset: 0x2F6E2B, size: 0x8, addend: 0x0, symName: __MergedGlobals, symObjAddr: 0x391E0, symBinAddr: 0x2B4330, symSize: 0x0 }
  - { offset: 0x2F6E5A, size: 0x8, addend: 0x0, symName: __MergedGlobals, symObjAddr: 0x391E0, symBinAddr: 0x2B4330, symSize: 0x0 }
  - { offset: 0x2F6E78, size: 0x8, addend: 0x0, symName: __MergedGlobals, symObjAddr: 0x391E0, symBinAddr: 0x2B4330, symSize: 0x0 }
  - { offset: 0x2F6E96, size: 0x8, addend: 0x0, symName: __MergedGlobals, symObjAddr: 0x391E0, symBinAddr: 0x2B4330, symSize: 0x0 }
  - { offset: 0x2F7525, size: 0x8, addend: 0x0, symName: __MergedGlobals, symObjAddr: 0x391E0, symBinAddr: 0x2B4330, symSize: 0x0 }
  - { offset: 0x2F7543, size: 0x8, addend: 0x0, symName: __MergedGlobals, symObjAddr: 0x391E0, symBinAddr: 0x2B4330, symSize: 0x0 }
  - { offset: 0x2F7561, size: 0x8, addend: 0x0, symName: __MergedGlobals, symObjAddr: 0x391E0, symBinAddr: 0x2B4330, symSize: 0x0 }
  - { offset: 0x2F757F, size: 0x8, addend: 0x0, symName: __MergedGlobals, symObjAddr: 0x391E0, symBinAddr: 0x2B4330, symSize: 0x0 }
  - { offset: 0x2F759D, size: 0x8, addend: 0x0, symName: __MergedGlobals, symObjAddr: 0x391E0, symBinAddr: 0x2B4330, symSize: 0x0 }
  - { offset: 0x2F75BB, size: 0x8, addend: 0x0, symName: __MergedGlobals, symObjAddr: 0x391E0, symBinAddr: 0x2B4330, symSize: 0x0 }
  - { offset: 0x2F75D9, size: 0x8, addend: 0x0, symName: __MergedGlobals, symObjAddr: 0x391E0, symBinAddr: 0x2B4330, symSize: 0x0 }
  - { offset: 0x2F75F7, size: 0x8, addend: 0x0, symName: __MergedGlobals, symObjAddr: 0x391E0, symBinAddr: 0x2B4330, symSize: 0x0 }
  - { offset: 0x2F7615, size: 0x8, addend: 0x0, symName: __MergedGlobals, symObjAddr: 0x391E0, symBinAddr: 0x2B4330, symSize: 0x0 }
  - { offset: 0x2F7633, size: 0x8, addend: 0x0, symName: __MergedGlobals, symObjAddr: 0x391E0, symBinAddr: 0x2B4330, symSize: 0x0 }
  - { offset: 0x2F7651, size: 0x8, addend: 0x0, symName: __MergedGlobals, symObjAddr: 0x391E0, symBinAddr: 0x2B4330, symSize: 0x0 }
  - { offset: 0x2F7E66, size: 0x8, addend: 0x0, symName: __ZN5iplug9igraphics15CoreTextHelpers16LoadPlatformFontEPKcS3_S3_S3_, symObjAddr: 0x344, symBinAddr: 0x4DAB0, symSize: 0x298 }
  - { offset: 0x2F884B, size: 0x8, addend: 0x0, symName: __ZN5iplug9igraphics15CoreTextHelpers16LoadPlatformFontEPKcS3_NS0_10ETextStyleE, symObjAddr: 0x6FC, symBinAddr: 0x4DE68, symSize: 0x370 }
  - { offset: 0x2F9225, size: 0x8, addend: 0x0, symName: __ZN5iplug9igraphics15CoreTextHelpers16LoadPlatformFontEPKcPvi, symObjAddr: 0xB0C, symBinAddr: 0x4E278, symSize: 0x1D4 }
  - { offset: 0x2F97FD, size: 0x8, addend: 0x0, symName: __ZN5iplug9igraphics15CoreTextHelpers17CachePlatformFontEPKcRKNSt3__110unique_ptrINS0_12PlatformFontENS4_14default_deleteIS6_EEEERNS0_13StaticStorageINS0_22CoreTextFontDescriptorEEE, symObjAddr: 0xCE0, symBinAddr: 0x4E44C, symSize: 0x17C }
  - { offset: 0x2FDD50, size: 0x8, addend: 0x0, symName: __ZTVN5iplug9igraphics12CoreTextFontE, symObjAddr: 0x28E0, symBinAddr: 0x122CA0, symSize: 0x0 }
  - { offset: 0x2FE8BD, size: 0x8, addend: 0x0, symName: __ZN5iplug9igraphics12CoreTextFont11GetFontDataEv, symObjAddr: 0x0, symBinAddr: 0x4D76C, symSize: 0x22C }
  - { offset: 0x2FF150, size: 0x8, addend: 0x0, symName: __ZN5iplug9igraphics9IFontInfoC2EPKvjj, symObjAddr: 0xF10, symBinAddr: 0x4E600, symSize: 0x55C }
  - { offset: 0x2FFE63, size: 0x8, addend: 0x0, symName: __ZN5iplug9igraphics9IFontInfoD2Ev, symObjAddr: 0x1C10, symBinAddr: 0x4F300, symSize: 0x30 }
  - { offset: 0x2FFFA2, size: 0x8, addend: 0x0, symName: __ZN5iplug9igraphics7CFLocalIPK8__CFDataED1Ev, symObjAddr: 0x27C, symBinAddr: 0x4D9E8, symSize: 0x30 }
  - { offset: 0x3000A3, size: 0x8, addend: 0x0, symName: __ZNSt3__110unique_ptrIN5iplug9igraphics9IFontDataENS_14default_deleteIS3_EEED1B9nqe210106Ev, symObjAddr: 0x22C, symBinAddr: 0x4D998, symSize: 0x50 }
  - { offset: 0x300353, size: 0x8, addend: 0x0, symName: __ZN5iplug9igraphics12CoreTextFontD1Ev, symObjAddr: 0x2AC, symBinAddr: 0x4DA18, symSize: 0x4C }
  - { offset: 0x300466, size: 0x8, addend: 0x0, symName: __ZN5iplug9igraphics12CoreTextFontD0Ev, symObjAddr: 0x2F8, symBinAddr: 0x4DA64, symSize: 0x4C }
  - { offset: 0x300C85, size: 0x8, addend: 0x0, symName: __ZN5iplug9igraphics7CFLocalIPK18__CTFontDescriptorED1Ev, symObjAddr: 0x5DC, symBinAddr: 0x4DD48, symSize: 0x30 }
  - { offset: 0x300CCE, size: 0x8, addend: 0x0, symName: __ZN5iplug9igraphics7CFLocalIPK8__CTFontED1Ev, symObjAddr: 0x60C, symBinAddr: 0x4DD78, symSize: 0x30 }
  - { offset: 0x300D17, size: 0x8, addend: 0x0, symName: __ZN5iplug9igraphics7CFLocalIP6CGFontED1Ev, symObjAddr: 0x63C, symBinAddr: 0x4DDA8, symSize: 0x30 }
  - { offset: 0x300D60, size: 0x8, addend: 0x0, symName: __ZN5iplug9igraphics7CFLocalIP14CGDataProviderED1Ev, symObjAddr: 0x66C, symBinAddr: 0x4DDD8, symSize: 0x30 }
  - { offset: 0x300DA9, size: 0x8, addend: 0x0, symName: __ZN5iplug9igraphics7CFLocalIPK7__CFURLED1Ev, symObjAddr: 0x69C, symBinAddr: 0x4DE08, symSize: 0x30 }
  - { offset: 0x300DF2, size: 0x8, addend: 0x0, symName: __ZN5iplug9igraphics7CFLocalIPK10__CFStringED1Ev, symObjAddr: 0x6CC, symBinAddr: 0x4DE38, symSize: 0x30 }
  - { offset: 0x3011E3, size: 0x8, addend: 0x0, symName: __ZN5iplug9igraphics7CFLocalIPK9__CFArrayED1Ev, symObjAddr: 0xA6C, symBinAddr: 0x4E1D8, symSize: 0x30 }
  - { offset: 0x30122C, size: 0x8, addend: 0x0, symName: __ZN5iplug9igraphics7CFLocalIPK7__CFSetED1Ev, symObjAddr: 0xA9C, symBinAddr: 0x4E208, symSize: 0x30 }
  - { offset: 0x301275, size: 0x8, addend: 0x0, symName: __ZN5iplug9igraphics7CFLocalIPK14__CFDictionaryED1Ev, symObjAddr: 0xACC, symBinAddr: 0x4E238, symSize: 0x30 }
  - { offset: 0x3012BE, size: 0x8, addend: 0x0, symName: __Z15releaseFontDataPvPKvm, symObjAddr: 0xAFC, symBinAddr: 0x4E268, symSize: 0x10 }
  - { offset: 0x30159C, size: 0x8, addend: 0x0, symName: __ZN5iplug9igraphics13StaticStorageINS0_22CoreTextFontDescriptorEE4FindEPKcd, symObjAddr: 0x1C40, symBinAddr: 0x4F330, symSize: 0x194 }
  - { offset: 0x301971, size: 0x8, addend: 0x0, symName: __ZN5iplug9igraphics13StaticStorageINS0_22CoreTextFontDescriptorEE3AddEPS2_PKcd, symObjAddr: 0x1F80, symBinAddr: 0x4F670, symSize: 0x190 }
  - { offset: 0x301EC5, size: 0x8, addend: 0x0, symName: __ZN5iplug9igraphics13StaticStorageINS0_22CoreTextFontDescriptorEE8AccessorD1Ev, symObjAddr: 0xE5C, symBinAddr: 0x4E5C8, symSize: 0x30 }
  - { offset: 0x301F46, size: 0x8, addend: 0x0, symName: __ZN5iplug9igraphics12CoreTextFont13GetDescriptorEv, symObjAddr: 0xF08, symBinAddr: 0x4E5F8, symSize: 0x8 }
  - { offset: 0x3021D3, size: 0x8, addend: 0x0, symName: __ZN5iplug9igraphics9IFontInfo16SearchFontStringEi, symObjAddr: 0x146C, symBinAddr: 0x4EB5C, symSize: 0xD4 }
  - { offset: 0x302595, size: 0x8, addend: 0x0, symName: __ZN5iplug9igraphics9IFontInfo13GetFontStringEiNS1_9EStringIDE, symObjAddr: 0x1540, symBinAddr: 0x4EC30, symSize: 0x6D0 }
  - { offset: 0x30358E, size: 0x8, addend: 0x0, symName: __ZN10WDL_String15AppendFormattedEiPKcz, symObjAddr: 0x1DD4, symBinAddr: 0x4F4C4, symSize: 0xB8 }
  - { offset: 0x303707, size: 0x8, addend: 0x0, symName: __ZN5iplug9igraphics13StaticStorageINS0_22CoreTextFontDescriptorEE4HashEPKc, symObjAddr: 0x1E8C, symBinAddr: 0x4F57C, symSize: 0xF4 }
  - { offset: 0x3044EF, size: 0x8, addend: 0x0, symName: __GLOBAL__sub_I_IGraphicsCoreText.mm, symObjAddr: 0x2570, symBinAddr: 0x4F800, symSize: 0x36C }
  - { offset: 0x3071E8, size: 0x8, addend: 0x0, symName: __GLOBAL__sub_I_vstinitiids.cpp, symObjAddr: 0x0, symBinAddr: 0x4FB6C, symSize: 0x1CC }
  - { offset: 0x307201, size: 0x8, addend: 0x0, symName: __ZN9Steinberg3Vst10IComponent3iidE, symObjAddr: 0x10440, symBinAddr: 0x1327B0, symSize: 0x0 }
  - { offset: 0x307486, size: 0x8, addend: 0x0, symName: __ZN9Steinberg3Vst14ChannelContextL17IInfoListener_iidE, symObjAddr: 0x2AC, symBinAddr: 0x1032C9, symSize: 0x0 }
  - { offset: 0x3074A1, size: 0x8, addend: 0x0, symName: __ZN9Steinberg3VstL14IComponent_iidE, symObjAddr: 0x1CC, symBinAddr: 0x1031E9, symSize: 0x0 }
  - { offset: 0x3074BC, size: 0x8, addend: 0x0, symName: __ZN9Steinberg3VstL19IAudioProcessor_iidE, symObjAddr: 0x1DC, symBinAddr: 0x1031F9, symSize: 0x0 }
  - { offset: 0x3074D7, size: 0x8, addend: 0x0, symName: __ZN9Steinberg3VstL19IEditController_iidE, symObjAddr: 0x1EC, symBinAddr: 0x103209, symSize: 0x0 }
  - { offset: 0x3074F1, size: 0x8, addend: 0x0, symName: __ZN9Steinberg3VstL13IUnitInfo_iidE, symObjAddr: 0x1FC, symBinAddr: 0x103219, symSize: 0x0 }
  - { offset: 0x30750B, size: 0x8, addend: 0x0, symName: __ZN9Steinberg3VstL20IConnectionPoint_iidE, symObjAddr: 0x20C, symBinAddr: 0x103229, symSize: 0x0 }
  - { offset: 0x307525, size: 0x8, addend: 0x0, symName: __ZN9Steinberg3VstL21IComponentHandler_iidE, symObjAddr: 0x21C, symBinAddr: 0x103239, symSize: 0x0 }
  - { offset: 0x30753F, size: 0x8, addend: 0x0, symName: __ZN9Steinberg3VstL16IUnitHandler_iidE, symObjAddr: 0x22C, symBinAddr: 0x103249, symSize: 0x0 }
  - { offset: 0x307559, size: 0x8, addend: 0x0, symName: __ZN9Steinberg3VstL12IMessage_iidE, symObjAddr: 0x23C, symBinAddr: 0x103259, symSize: 0x0 }
  - { offset: 0x307573, size: 0x8, addend: 0x0, symName: __ZN9Steinberg3VstL20IHostApplication_iidE, symObjAddr: 0x24C, symBinAddr: 0x103269, symSize: 0x0 }
  - { offset: 0x30758E, size: 0x8, addend: 0x0, symName: __ZN9Steinberg3VstL16IMidiMapping_iidE, symObjAddr: 0x25C, symBinAddr: 0x103279, symSize: 0x0 }
  - { offset: 0x3075A9, size: 0x8, addend: 0x0, symName: __ZN9Steinberg3VstL22IComponentHandler2_iidE, symObjAddr: 0x26C, symBinAddr: 0x103289, symSize: 0x0 }
  - { offset: 0x3075C4, size: 0x8, addend: 0x0, symName: __ZN9Steinberg3VstL20IEditController2_iidE, symObjAddr: 0x27C, symBinAddr: 0x103299, symSize: 0x0 }
  - { offset: 0x3075DE, size: 0x8, addend: 0x0, symName: __ZN9Steinberg3VstL22IContextMenuTarget_iidE, symObjAddr: 0x28C, symBinAddr: 0x1032A9, symSize: 0x0 }
  - { offset: 0x3075F8, size: 0x8, addend: 0x0, symName: __ZN9Steinberg3VstL22IComponentHandler3_iidE, symObjAddr: 0x29C, symBinAddr: 0x1032B9, symSize: 0x0 }
  - { offset: 0x307613, size: 0x8, addend: 0x0, symName: __ZN9Steinberg3VstL31IProcessContextRequirements_iidE, symObjAddr: 0x2BC, symBinAddr: 0x1032D9, symSize: 0x0 }
  - { offset: 0x307628, size: 0x8, addend: 0x0, symName: __ZN9Steinberg3Vst15IAudioProcessor3iidE, symObjAddr: 0x10458, symBinAddr: 0x1327C8, symSize: 0x0 }
  - { offset: 0x30763C, size: 0x8, addend: 0x0, symName: __ZN9Steinberg3Vst15IEditController3iidE, symObjAddr: 0x10470, symBinAddr: 0x1327E0, symSize: 0x0 }
  - { offset: 0x307656, size: 0x8, addend: 0x0, symName: __ZN9Steinberg3Vst9IUnitInfo3iidE, symObjAddr: 0x10488, symBinAddr: 0x1327F8, symSize: 0x0 }
  - { offset: 0x30766A, size: 0x8, addend: 0x0, symName: __ZN9Steinberg3Vst16IConnectionPoint3iidE, symObjAddr: 0x104A0, symBinAddr: 0x132810, symSize: 0x0 }
  - { offset: 0x30767E, size: 0x8, addend: 0x0, symName: __ZN9Steinberg3Vst17IComponentHandler3iidE, symObjAddr: 0x104B8, symBinAddr: 0x132828, symSize: 0x0 }
  - { offset: 0x307692, size: 0x8, addend: 0x0, symName: __ZN9Steinberg3Vst12IUnitHandler3iidE, symObjAddr: 0x104D0, symBinAddr: 0x132840, symSize: 0x0 }
  - { offset: 0x3076A6, size: 0x8, addend: 0x0, symName: __ZN9Steinberg3Vst8IMessage3iidE, symObjAddr: 0x104E8, symBinAddr: 0x132858, symSize: 0x0 }
  - { offset: 0x3076BA, size: 0x8, addend: 0x0, symName: __ZN9Steinberg3Vst16IHostApplication3iidE, symObjAddr: 0x10500, symBinAddr: 0x132870, symSize: 0x0 }
  - { offset: 0x3076CE, size: 0x8, addend: 0x0, symName: __ZN9Steinberg3Vst12IMidiMapping3iidE, symObjAddr: 0x10518, symBinAddr: 0x132888, symSize: 0x0 }
  - { offset: 0x3076E2, size: 0x8, addend: 0x0, symName: __ZN9Steinberg3Vst18IComponentHandler23iidE, symObjAddr: 0x10530, symBinAddr: 0x1328A0, symSize: 0x0 }
  - { offset: 0x3076F6, size: 0x8, addend: 0x0, symName: __ZN9Steinberg3Vst16IEditController23iidE, symObjAddr: 0x10548, symBinAddr: 0x1328B8, symSize: 0x0 }
  - { offset: 0x30770A, size: 0x8, addend: 0x0, symName: __ZN9Steinberg3Vst18IContextMenuTarget3iidE, symObjAddr: 0x10560, symBinAddr: 0x1328D0, symSize: 0x0 }
  - { offset: 0x307729, size: 0x8, addend: 0x0, symName: __ZN9Steinberg3Vst18IComponentHandler33iidE, symObjAddr: 0x10578, symBinAddr: 0x1328E8, symSize: 0x0 }
  - { offset: 0x30773D, size: 0x8, addend: 0x0, symName: __ZN9Steinberg3Vst14ChannelContext13IInfoListener3iidE, symObjAddr: 0x10590, symBinAddr: 0x132900, symSize: 0x0 }
  - { offset: 0x307751, size: 0x8, addend: 0x0, symName: __ZN9Steinberg3Vst27IProcessContextRequirements3iidE, symObjAddr: 0x105A8, symBinAddr: 0x132918, symSize: 0x0 }
  - { offset: 0x307944, size: 0x8, addend: 0x0, symName: __GLOBAL__sub_I_vstinitiids.cpp, symObjAddr: 0x0, symBinAddr: 0x4FB6C, symSize: 0x1CC }
  - { offset: 0x30795C, size: 0x8, addend: 0x0, symName: __GLOBAL__sub_I_vstinitiids.cpp, symObjAddr: 0x0, symBinAddr: 0x4FB6C, symSize: 0x1CC }
  - { offset: 0x307970, size: 0x8, addend: 0x0, symName: __GLOBAL__sub_I_vstinitiids.cpp, symObjAddr: 0x0, symBinAddr: 0x4FB6C, symSize: 0x1CC }
  - { offset: 0x307999, size: 0x8, addend: 0x0, symName: __GLOBAL__sub_I_vstinitiids.cpp, symObjAddr: 0x0, symBinAddr: 0x4FB6C, symSize: 0x1CC }
  - { offset: 0x3096CF, size: 0x8, addend: 0x0, symName: __MergedGlobals, symObjAddr: 0x119160, symBinAddr: 0x2B48F0, symSize: 0x0 }
  - { offset: 0x3096EC, size: 0x8, addend: 0x0, symName: __MergedGlobals, symObjAddr: 0x119160, symBinAddr: 0x2B48F0, symSize: 0x0 }
  - { offset: 0x309709, size: 0x8, addend: 0x0, symName: __MergedGlobals, symObjAddr: 0x119160, symBinAddr: 0x2B48F0, symSize: 0x0 }
  - { offset: 0x309726, size: 0x8, addend: 0x0, symName: __MergedGlobals, symObjAddr: 0x119160, symBinAddr: 0x2B48F0, symSize: 0x0 }
  - { offset: 0x309743, size: 0x8, addend: 0x0, symName: __MergedGlobals, symObjAddr: 0x119160, symBinAddr: 0x2B48F0, symSize: 0x0 }
  - { offset: 0x309761, size: 0x8, addend: 0x0, symName: __MergedGlobals, symObjAddr: 0x119160, symBinAddr: 0x2B48F0, symSize: 0x0 }
  - { offset: 0x30977F, size: 0x8, addend: 0x0, symName: __MergedGlobals, symObjAddr: 0x119160, symBinAddr: 0x2B48F0, symSize: 0x0 }
  - { offset: 0x30979D, size: 0x8, addend: 0x0, symName: __MergedGlobals, symObjAddr: 0x119160, symBinAddr: 0x2B48F0, symSize: 0x0 }
  - { offset: 0x3097BB, size: 0x8, addend: 0x0, symName: __MergedGlobals, symObjAddr: 0x119160, symBinAddr: 0x2B48F0, symSize: 0x0 }
  - { offset: 0x3097D9, size: 0x8, addend: 0x0, symName: __MergedGlobals, symObjAddr: 0x119160, symBinAddr: 0x2B48F0, symSize: 0x0 }
  - { offset: 0x3097F7, size: 0x8, addend: 0x0, symName: __MergedGlobals, symObjAddr: 0x119160, symBinAddr: 0x2B48F0, symSize: 0x0 }
  - { offset: 0x309815, size: 0x8, addend: 0x0, symName: __MergedGlobals, symObjAddr: 0x119160, symBinAddr: 0x2B48F0, symSize: 0x0 }
  - { offset: 0x309833, size: 0x8, addend: 0x0, symName: __MergedGlobals, symObjAddr: 0x119160, symBinAddr: 0x2B48F0, symSize: 0x0 }
  - { offset: 0x309851, size: 0x8, addend: 0x0, symName: __MergedGlobals, symObjAddr: 0x119160, symBinAddr: 0x2B48F0, symSize: 0x0 }
  - { offset: 0x30986F, size: 0x8, addend: 0x0, symName: __MergedGlobals, symObjAddr: 0x119160, symBinAddr: 0x2B48F0, symSize: 0x0 }
  - { offset: 0x30988D, size: 0x8, addend: 0x0, symName: __MergedGlobals, symObjAddr: 0x119160, symBinAddr: 0x2B48F0, symSize: 0x0 }
  - { offset: 0x3098AB, size: 0x8, addend: 0x0, symName: __MergedGlobals, symObjAddr: 0x119160, symBinAddr: 0x2B48F0, symSize: 0x0 }
  - { offset: 0x3098C9, size: 0x8, addend: 0x0, symName: __MergedGlobals, symObjAddr: 0x119160, symBinAddr: 0x2B48F0, symSize: 0x0 }
  - { offset: 0x3098E4, size: 0x8, addend: 0x0, symName: __MergedGlobals, symObjAddr: 0x119160, symBinAddr: 0x2B48F0, symSize: 0x0 }
  - { offset: 0x309901, size: 0x8, addend: 0x0, symName: __MergedGlobals, symObjAddr: 0x119160, symBinAddr: 0x2B48F0, symSize: 0x0 }
  - { offset: 0x30991E, size: 0x8, addend: 0x0, symName: __MergedGlobals, symObjAddr: 0x119160, symBinAddr: 0x2B48F0, symSize: 0x0 }
  - { offset: 0x30993B, size: 0x8, addend: 0x0, symName: __MergedGlobals, symObjAddr: 0x119160, symBinAddr: 0x2B48F0, symSize: 0x0 }
  - { offset: 0x309958, size: 0x8, addend: 0x0, symName: __MergedGlobals, symObjAddr: 0x119160, symBinAddr: 0x2B48F0, symSize: 0x0 }
  - { offset: 0x309975, size: 0x8, addend: 0x0, symName: __MergedGlobals, symObjAddr: 0x119160, symBinAddr: 0x2B48F0, symSize: 0x0 }
  - { offset: 0x309992, size: 0x8, addend: 0x0, symName: __MergedGlobals, symObjAddr: 0x119160, symBinAddr: 0x2B48F0, symSize: 0x0 }
  - { offset: 0x3099AF, size: 0x8, addend: 0x0, symName: __ZN5iplug9igraphicsL12DEFAULT_TEXTE, symObjAddr: 0x1190D0, symBinAddr: 0x132930, symSize: 0x0 }
  - { offset: 0x3099CA, size: 0x8, addend: 0x0, symName: __MergedGlobals, symObjAddr: 0x119160, symBinAddr: 0x2B48F0, symSize: 0x0 }
  - { offset: 0x3099F9, size: 0x8, addend: 0x0, symName: __MergedGlobals, symObjAddr: 0x119160, symBinAddr: 0x2B48F0, symSize: 0x0 }
  - { offset: 0x309A17, size: 0x8, addend: 0x0, symName: __MergedGlobals, symObjAddr: 0x119160, symBinAddr: 0x2B48F0, symSize: 0x0 }
  - { offset: 0x309A35, size: 0x8, addend: 0x0, symName: __MergedGlobals, symObjAddr: 0x119160, symBinAddr: 0x2B48F0, symSize: 0x0 }
  - { offset: 0x309A52, size: 0x8, addend: 0x0, symName: __MergedGlobals, symObjAddr: 0x119160, symBinAddr: 0x2B48F0, symSize: 0x0 }
  - { offset: 0x309A6F, size: 0x8, addend: 0x0, symName: __MergedGlobals, symObjAddr: 0x119160, symBinAddr: 0x2B48F0, symSize: 0x0 }
  - { offset: 0x309A8C, size: 0x8, addend: 0x0, symName: __MergedGlobals, symObjAddr: 0x119160, symBinAddr: 0x2B48F0, symSize: 0x0 }
  - { offset: 0x309AA9, size: 0x8, addend: 0x0, symName: __MergedGlobals, symObjAddr: 0x119160, symBinAddr: 0x2B48F0, symSize: 0x0 }
  - { offset: 0x310044, size: 0x8, addend: 0x0, symName: __MergedGlobals, symObjAddr: 0x119160, symBinAddr: 0x2B48F0, symSize: 0x0 }
  - { offset: 0x310062, size: 0x8, addend: 0x0, symName: __MergedGlobals, symObjAddr: 0x119160, symBinAddr: 0x2B48F0, symSize: 0x0 }
  - { offset: 0x310080, size: 0x8, addend: 0x0, symName: __MergedGlobals, symObjAddr: 0x119160, symBinAddr: 0x2B48F0, symSize: 0x0 }
  - { offset: 0x31009E, size: 0x8, addend: 0x0, symName: __ZN5iplug9igraphicsL15DEFAULT_BGCOLORE, symObjAddr: 0x119150, symBinAddr: 0x1329B0, symSize: 0x0 }
  - { offset: 0x3100B9, size: 0x8, addend: 0x0, symName: __MergedGlobals, symObjAddr: 0x119160, symBinAddr: 0x2B48F0, symSize: 0x0 }
  - { offset: 0x3100D7, size: 0x8, addend: 0x0, symName: __MergedGlobals, symObjAddr: 0x119160, symBinAddr: 0x2B48F0, symSize: 0x0 }
  - { offset: 0x3100F5, size: 0x8, addend: 0x0, symName: __MergedGlobals, symObjAddr: 0x119160, symBinAddr: 0x2B48F0, symSize: 0x0 }
  - { offset: 0x310113, size: 0x8, addend: 0x0, symName: __MergedGlobals, symObjAddr: 0x119160, symBinAddr: 0x2B48F0, symSize: 0x0 }
  - { offset: 0x310131, size: 0x8, addend: 0x0, symName: __MergedGlobals, symObjAddr: 0x119160, symBinAddr: 0x2B48F0, symSize: 0x0 }
  - { offset: 0x31014F, size: 0x8, addend: 0x0, symName: __MergedGlobals, symObjAddr: 0x119160, symBinAddr: 0x2B48F0, symSize: 0x0 }
  - { offset: 0x31016D, size: 0x8, addend: 0x0, symName: __MergedGlobals, symObjAddr: 0x119160, symBinAddr: 0x2B48F0, symSize: 0x0 }
  - { offset: 0x31F28A, size: 0x8, addend: 0x0, symName: __MergedGlobals, symObjAddr: 0x119160, symBinAddr: 0x2B48F0, symSize: 0x0 }
  - { offset: 0x321120, size: 0x8, addend: 0x0, symName: __MergedGlobals, symObjAddr: 0x119160, symBinAddr: 0x2B48F0, symSize: 0x0 }
  - { offset: 0x321137, size: 0x8, addend: 0x0, symName: __MergedGlobals, symObjAddr: 0x119160, symBinAddr: 0x2B48F0, symSize: 0x0 }
  - { offset: 0x32114E, size: 0x8, addend: 0x0, symName: __MergedGlobals, symObjAddr: 0x119160, symBinAddr: 0x2B48F0, symSize: 0x0 }
  - { offset: 0x321165, size: 0x8, addend: 0x0, symName: __MergedGlobals, symObjAddr: 0x119160, symBinAddr: 0x2B48F0, symSize: 0x0 }
  - { offset: 0x32117D, size: 0x8, addend: 0x0, symName: __ZTVN5iplug9igraphics18IVTabSwitchControlE, symObjAddr: 0x5A70, symBinAddr: 0x1237D8, symSize: 0x0 }
  - { offset: 0x3211CE, size: 0x8, addend: 0x0, symName: __ZTVN5iplug9igraphics13IVKnobControlE, symObjAddr: 0x6000, symBinAddr: 0x123D68, symSize: 0x0 }
  - { offset: 0x321219, size: 0x8, addend: 0x0, symName: __ZTVN5iplug9igraphics14IVLabelControlE, symObjAddr: 0x4F90, symBinAddr: 0x122CF8, symSize: 0x0 }
  - { offset: 0x321234, size: 0x8, addend: 0x0, symName: __ZTVN5iplug9igraphics15IVButtonControlE, symObjAddr: 0x5250, symBinAddr: 0x122FB8, symSize: 0x0 }
  - { offset: 0x321261, size: 0x8, addend: 0x0, symName: __ZTVN5iplug9igraphics15IVSwitchControlE, symObjAddr: 0x5500, symBinAddr: 0x123268, symSize: 0x0 }
  - { offset: 0x321288, size: 0x8, addend: 0x0, symName: __ZTVN5iplug9igraphics20IVSlideSwitchControlE, symObjAddr: 0x57B0, symBinAddr: 0x123518, symSize: 0x0 }
  - { offset: 0x3212A3, size: 0x8, addend: 0x0, symName: __ZTVN5iplug9igraphics20IVRadioButtonControlE, symObjAddr: 0x5D38, symBinAddr: 0x123AA0, symSize: 0x0 }
  - { offset: 0x3212D6, size: 0x8, addend: 0x0, symName: __ZTVN5iplug9igraphics17ISVGButtonControlE, symObjAddr: 0x62D0, symBinAddr: 0x124038, symSize: 0x0 }
  - { offset: 0x32133B, size: 0x8, addend: 0x0, symName: __ZTVN5iplug9igraphics17ISVGSwitchControlE, symObjAddr: 0x6520, symBinAddr: 0x124288, symSize: 0x0 }
  - { offset: 0x3213EC, size: 0x8, addend: 0x0, symName: '__ZTVNSt3__110__function6__funcIZN5iplug9igraphics20IVSlideSwitchControlC1ERKNS3_5IRECTEiPKcRKNS3_7IVStyleEbNS3_10EDirectionEE3$_0FvPNS3_8IControlEEEE', symObjAddr: 0x68E8, symBinAddr: 0x124650, symSize: 0x0 }
  - { offset: 0x321455, size: 0x8, addend: 0x0, symName: '__ZTVNSt3__110__function6__funcIZZN5iplug9igraphics20IVSlideSwitchControlC1ERKNS3_5IRECTEiPKcRKNS3_7IVStyleEbNS3_10EDirectionEENK3$_0clEPNS3_8IControlEEUlSG_E_FvSG_EEE', symObjAddr: 0x6958, symBinAddr: 0x1246C0, symSize: 0x0 }
  - { offset: 0x3215EF, size: 0x8, addend: 0x0, symName: __ZN5iplug9igraphics14IVLabelControlC2ERKNS0_5IRECTEPKcRKNS0_7IVStyleE, symObjAddr: 0x0, symBinAddr: 0x4FD38, symSize: 0x1C8 }
  - { offset: 0x321AA8, size: 0x8, addend: 0x0, symName: __ZN5iplug9igraphics14IVLabelControl4DrawERNS0_9IGraphicsE, symObjAddr: 0x204, symBinAddr: 0x4FF00, symSize: 0x188 }
  - { offset: 0x321E70, size: 0x8, addend: 0x0, symName: __ZN5iplug9igraphics15IVButtonControlC2ERKNS0_5IRECTENSt3__18functionIFvPNS0_8IControlEEEEPKcRKNS0_7IVStyleEbbNS0_7EVShapeE, symObjAddr: 0x38C, symBinAddr: 0x50088, symSize: 0x2D0 }
  - { offset: 0x322331, size: 0x8, addend: 0x0, symName: __ZN5iplug9igraphics15IVButtonControl4DrawERNS0_9IGraphicsE, symObjAddr: 0x65C, symBinAddr: 0x50358, symSize: 0x70 }
  - { offset: 0x32239A, size: 0x8, addend: 0x0, symName: __ZN5iplug9igraphics15IVButtonControl10DrawWidgetERNS0_9IGraphicsE, symObjAddr: 0x6CC, symBinAddr: 0x503C8, symSize: 0x34 }
  - { offset: 0x322476, size: 0x8, addend: 0x0, symName: __ZThn488_N5iplug9igraphics15IVButtonControl10DrawWidgetERNS0_9IGraphicsE, symObjAddr: 0x700, symBinAddr: 0x503FC, symSize: 0x34 }
  - { offset: 0x322490, size: 0x8, addend: 0x0, symName: __ZThn488_N5iplug9igraphics15IVButtonControl10DrawWidgetERNS0_9IGraphicsE, symObjAddr: 0x700, symBinAddr: 0x503FC, symSize: 0x34 }
  - { offset: 0x3224C1, size: 0x8, addend: 0x0, symName: __ZThn488_N5iplug9igraphics15IVButtonControl10DrawWidgetERNS0_9IGraphicsE, symObjAddr: 0x700, symBinAddr: 0x503FC, symSize: 0x34 }
  - { offset: 0x3224E8, size: 0x8, addend: 0x0, symName: __ZThn488_N5iplug9igraphics15IVButtonControl10DrawWidgetERNS0_9IGraphicsE, symObjAddr: 0x700, symBinAddr: 0x503FC, symSize: 0x34 }
  - { offset: 0x32255F, size: 0x8, addend: 0x0, symName: __ZN5iplug9igraphics15IVButtonControl8OnResizeEv, symObjAddr: 0x734, symBinAddr: 0x50430, symSize: 0x4C }
  - { offset: 0x3225F8, size: 0x8, addend: 0x0, symName: __ZNK5iplug9igraphics15IVButtonControl5IsHitEff, symObjAddr: 0x780, symBinAddr: 0x5047C, symSize: 0x78 }
  - { offset: 0x32266E, size: 0x8, addend: 0x0, symName: __ZNK5iplug9igraphics15IVButtonControl5IsHitEff, symObjAddr: 0x780, symBinAddr: 0x5047C, symSize: 0x78 }
  - { offset: 0x3227B0, size: 0x8, addend: 0x0, symName: __ZN5iplug9igraphics15IVSwitchControlC2ERKNS0_5IRECTEiPKcRKNS0_7IVStyleEb, symObjAddr: 0x7F8, symBinAddr: 0x504F4, symSize: 0x1B8 }
  - { offset: 0x322AAF, size: 0x8, addend: 0x0, symName: __ZN5iplug9igraphics18ISwitchControlBaseD2Ev, symObjAddr: 0x9B0, symBinAddr: 0x506AC, symSize: 0x38 }
  - { offset: 0x322BA3, size: 0x8, addend: 0x0, symName: __ZN5iplug9igraphics15IVSwitchControl4DrawERNS0_9IGraphicsE, symObjAddr: 0x9E8, symBinAddr: 0x506E4, symSize: 0x70 }
  - { offset: 0x322C0C, size: 0x8, addend: 0x0, symName: __ZN5iplug9igraphics15IVSwitchControl10DrawWidgetERNS0_9IGraphicsE, symObjAddr: 0xA58, symBinAddr: 0x50754, symSize: 0x28 }
  - { offset: 0x322C8B, size: 0x8, addend: 0x0, symName: __ZThn520_N5iplug9igraphics15IVSwitchControl10DrawWidgetERNS0_9IGraphicsE, symObjAddr: 0xA80, symBinAddr: 0x5077C, symSize: 0x28 }
  - { offset: 0x322CA5, size: 0x8, addend: 0x0, symName: __ZThn520_N5iplug9igraphics15IVSwitchControl10DrawWidgetERNS0_9IGraphicsE, symObjAddr: 0xA80, symBinAddr: 0x5077C, symSize: 0x28 }
  - { offset: 0x322D5B, size: 0x8, addend: 0x0, symName: __ZN5iplug9igraphics15IVSwitchControl8SetDirtyEbi, symObjAddr: 0xAA8, symBinAddr: 0x507A4, symSize: 0x78 }
  - { offset: 0x322EEA, size: 0x8, addend: 0x0, symName: __ZN5iplug9igraphics15IVSwitchControl8OnResizeEv, symObjAddr: 0xB20, symBinAddr: 0x5081C, symSize: 0x4C }
  - { offset: 0x322F37, size: 0x8, addend: 0x0, symName: __ZNK5iplug9igraphics15IVSwitchControl5IsHitEff, symObjAddr: 0xB6C, symBinAddr: 0x50868, symSize: 0x78 }
  - { offset: 0x322FAD, size: 0x8, addend: 0x0, symName: __ZNK5iplug9igraphics15IVSwitchControl5IsHitEff, symObjAddr: 0xB6C, symBinAddr: 0x50868, symSize: 0x78 }
  - { offset: 0x322FCD, size: 0x8, addend: 0x0, symName: __ZN5iplug9igraphics15IVSwitchControl6OnInitEv, symObjAddr: 0xBE4, symBinAddr: 0x508E0, symSize: 0xA4 }
  - { offset: 0x3231EC, size: 0x8, addend: 0x0, symName: __ZNK5iplug6IParam19GetDisplayWithLabelER10WDL_Stringb, symObjAddr: 0xC88, symBinAddr: 0x50984, symSize: 0x138 }
  - { offset: 0x323747, size: 0x8, addend: 0x0, symName: __ZN5iplug9igraphics20IVSlideSwitchControl11UpdateRectsEv, symObjAddr: 0xEC8, symBinAddr: 0x50ABC, symSize: 0x130 }
  - { offset: 0x323A00, size: 0x8, addend: 0x0, symName: __ZN5iplug9igraphics20IVSlideSwitchControl8OnResizeEv, symObjAddr: 0xFF8, symBinAddr: 0x50BEC, symSize: 0x54 }
  - { offset: 0x323A7F, size: 0x8, addend: 0x0, symName: __ZN5iplug9igraphics20IVSlideSwitchControl14OnEndAnimationEv, symObjAddr: 0x104C, symBinAddr: 0x50C40, symSize: 0x8C }
  - { offset: 0x323C26, size: 0x8, addend: 0x0, symName: __ZN5iplug9igraphics20IVSlideSwitchControl4DrawERNS0_9IGraphicsE, symObjAddr: 0x10D8, symBinAddr: 0x50CCC, symSize: 0x140 }
  - { offset: 0x323DFE, size: 0x8, addend: 0x0, symName: __ZN5iplug9igraphics20IVSlideSwitchControl10DrawWidgetERNS0_9IGraphicsE, symObjAddr: 0x1218, symBinAddr: 0x50E0C, symSize: 0x44 }
  - { offset: 0x323E69, size: 0x8, addend: 0x0, symName: __ZThn520_N5iplug9igraphics20IVSlideSwitchControl10DrawWidgetERNS0_9IGraphicsE, symObjAddr: 0x125C, symBinAddr: 0x50E50, symSize: 0x54 }
  - { offset: 0x323EE5, size: 0x8, addend: 0x0, symName: __ZN5iplug9igraphics20IVSlideSwitchControl9DrawTrackERNS0_9IGraphicsERKNS0_5IRECTE, symObjAddr: 0x12B0, symBinAddr: 0x50EA4, symSize: 0x4C }
  - { offset: 0x32400D, size: 0x8, addend: 0x0, symName: __ZN5iplug9igraphics20IVSlideSwitchControl10DrawHandleERNS0_9IGraphicsERKNS0_5IRECTE, symObjAddr: 0x12FC, symBinAddr: 0x50EF0, symSize: 0x24 }
  - { offset: 0x3240BE, size: 0x8, addend: 0x0, symName: __ZN5iplug9igraphics20IVSlideSwitchControl8SetDirtyEbi, symObjAddr: 0x1320, symBinAddr: 0x50F14, symSize: 0x138 }
  - { offset: 0x3246AC, size: 0x8, addend: 0x0, symName: __ZN5iplug9igraphics18IVTabSwitchControlC2ERKNS0_5IRECTEiRKNSt3__16vectorIPKcNS5_9allocatorIS8_EEEES8_RKNS0_7IVStyleENS0_7EVShapeENS0_10EDirectionE, symObjAddr: 0x1458, symBinAddr: 0x5104C, symSize: 0x2CC }
  - { offset: 0x324E98, size: 0x8, addend: 0x0, symName: __ZN5iplug9igraphics18IVTabSwitchControl6OnInitEv, symObjAddr: 0x1724, symBinAddr: 0x51318, symSize: 0x1F8 }
  - { offset: 0x325435, size: 0x8, addend: 0x0, symName: __ZN5iplug9igraphics18IVTabSwitchControl4DrawERNS0_9IGraphicsE, symObjAddr: 0x191C, symBinAddr: 0x51510, symSize: 0x58 }
  - { offset: 0x325494, size: 0x8, addend: 0x0, symName: __ZN5iplug9igraphics18IVTabSwitchControl10DrawButtonERNS0_9IGraphicsERKNS0_5IRECTEbbNS1_11ETabSegmentEb, symObjAddr: 0x1974, symBinAddr: 0x51568, symSize: 0x130 }
  - { offset: 0x325530, size: 0x8, addend: 0x0, symName: __ZN5iplug9igraphics18IVTabSwitchControl14DrawButtonTextERNS0_9IGraphicsERKNS0_5IRECTEbbNS1_11ETabSegmentEbPKc, symObjAddr: 0x1AA4, symBinAddr: 0x51698, symSize: 0x34 }
  - { offset: 0x3255C2, size: 0x8, addend: 0x0, symName: __ZN5iplug9igraphics18IVTabSwitchControl14DrawButtonTextERNS0_9IGraphicsERKNS0_5IRECTEbbNS1_11ETabSegmentEbPKc, symObjAddr: 0x1AA4, symBinAddr: 0x51698, symSize: 0x34 }
  - { offset: 0x32565D, size: 0x8, addend: 0x0, symName: __ZN5iplug9igraphics18IVTabSwitchControl10DrawWidgetERNS0_9IGraphicsE, symObjAddr: 0x1AD8, symBinAddr: 0x516CC, symSize: 0x264 }
  - { offset: 0x3259E3, size: 0x8, addend: 0x0, symName: __ZThn520_N5iplug9igraphics18IVTabSwitchControl10DrawWidgetERNS0_9IGraphicsE, symObjAddr: 0x1D3C, symBinAddr: 0x51930, symSize: 0x8 }
  - { offset: 0x325A09, size: 0x8, addend: 0x0, symName: __ZNK5iplug9igraphics18IVTabSwitchControl17GetButtonForPointEff, symObjAddr: 0x1D44, symBinAddr: 0x51938, symSize: 0xA8 }
  - { offset: 0x325A9A, size: 0x8, addend: 0x0, symName: __ZNK5iplug9igraphics18IVTabSwitchControl5IsHitEff, symObjAddr: 0x1DEC, symBinAddr: 0x519E0, symSize: 0x24 }
  - { offset: 0x325AF2, size: 0x8, addend: 0x0, symName: __ZN5iplug9igraphics18IVTabSwitchControl11OnMouseDownEffRKNS0_9IMouseModE, symObjAddr: 0x1E10, symBinAddr: 0x51A04, symSize: 0x68 }
  - { offset: 0x325B80, size: 0x8, addend: 0x0, symName: __ZN5iplug9igraphics18IVTabSwitchControl11OnMouseOverEffRKNS0_9IMouseModE, symObjAddr: 0x1E78, symBinAddr: 0x51A6C, symSize: 0x68 }
  - { offset: 0x325D39, size: 0x8, addend: 0x0, symName: __ZN5iplug9igraphics18IVTabSwitchControl8OnResizeEv, symObjAddr: 0x1EE0, symBinAddr: 0x51AD4, symSize: 0x17C }
  - { offset: 0x3262E4, size: 0x8, addend: 0x0, symName: __ZN5iplug9igraphics20IVRadioButtonControlC2ERKNS0_5IRECTEiRKSt16initializer_listIPKcES7_RKNS0_7IVStyleENS0_7EVShapeENS0_10EDirectionEf, symObjAddr: 0x205C, symBinAddr: 0x51C50, symSize: 0x154 }
  - { offset: 0x32682C, size: 0x8, addend: 0x0, symName: __ZNSt3__16vectorIPKcNS_9allocatorIS2_EEE20__throw_length_errorB9nqe210106Ev, symObjAddr: 0x4430, symBinAddr: 0x53E20, symSize: 0x14 }
  - { offset: 0x3268A0, size: 0x8, addend: 0x0, symName: __ZN5iplug9igraphics20IVRadioButtonControl10DrawWidgetERNS0_9IGraphicsE, symObjAddr: 0x21B0, symBinAddr: 0x51DA4, symSize: 0x230 }
  - { offset: 0x326C4C, size: 0x8, addend: 0x0, symName: __ZThn520_N5iplug9igraphics20IVRadioButtonControl10DrawWidgetERNS0_9IGraphicsE, symObjAddr: 0x23E0, symBinAddr: 0x51FD4, symSize: 0x8 }
  - { offset: 0x326CBB, size: 0x8, addend: 0x0, symName: __ZNK5iplug9igraphics20IVRadioButtonControl17GetButtonForPointEff, symObjAddr: 0x23E8, symBinAddr: 0x51FDC, symSize: 0x138 }
  - { offset: 0x326F25, size: 0x8, addend: 0x0, symName: __ZN5iplug9igraphics13IVKnobControlC2ERKNS0_5IRECTEiPKcRKNS0_7IVStyleEbbfffNS0_10EDirectionEdf, symObjAddr: 0x2520, symBinAddr: 0x52114, symSize: 0x228 }
  - { offset: 0x3272C4, size: 0x8, addend: 0x0, symName: __ZN5iplug9igraphics13IVKnobControl4DrawERNS0_9IGraphicsE, symObjAddr: 0x2748, symBinAddr: 0x5233C, symSize: 0x70 }
  - { offset: 0x32735B, size: 0x8, addend: 0x0, symName: __ZN5iplug9igraphics13IVKnobControl17GetKnobDragBoundsEv, symObjAddr: 0x27B8, symBinAddr: 0x523AC, symSize: 0x64 }
  - { offset: 0x327397, size: 0x8, addend: 0x0, symName: __ZN5iplug9igraphics13IVKnobControl17GetKnobDragBoundsEv, symObjAddr: 0x27B8, symBinAddr: 0x523AC, symSize: 0x64 }
  - { offset: 0x32743D, size: 0x8, addend: 0x0, symName: __ZN5iplug9igraphics13IVKnobControl10DrawWidgetERNS0_9IGraphicsE, symObjAddr: 0x284C, symBinAddr: 0x52410, symSize: 0x124 }
  - { offset: 0x327689, size: 0x8, addend: 0x0, symName: __ZThn520_N5iplug9igraphics13IVKnobControl10DrawWidgetERNS0_9IGraphicsE, symObjAddr: 0x2970, symBinAddr: 0x52534, symSize: 0x128 }
  - { offset: 0x327878, size: 0x8, addend: 0x0, symName: __ZN5iplug9igraphics13IVKnobControl10DrawHandleERNS0_9IGraphicsERKNS0_5IRECTE, symObjAddr: 0x2A98, symBinAddr: 0x5265C, symSize: 0x24 }
  - { offset: 0x3278ED, size: 0x8, addend: 0x0, symName: __ZN5iplug9igraphics13IVKnobControl18DrawIndicatorTrackERNS0_9IGraphicsEffff, symObjAddr: 0x2ABC, symBinAddr: 0x52680, symSize: 0x48 }
  - { offset: 0x3279CA, size: 0x8, addend: 0x0, symName: __ZN5iplug9igraphics13IVKnobControl11DrawPointerERNS0_9IGraphicsEffff, symObjAddr: 0x2B04, symBinAddr: 0x526C8, symSize: 0xA4 }
  - { offset: 0x327BDE, size: 0x8, addend: 0x0, symName: __ZN5iplug9igraphics13IVKnobControl11OnMouseDownEffRKNS0_9IMouseModE, symObjAddr: 0x2BA8, symBinAddr: 0x5276C, symSize: 0x150 }
  - { offset: 0x327E0C, size: 0x8, addend: 0x0, symName: __ZN5iplug9igraphics13IVKnobControl15OnMouseDblClickEffRKNS0_9IMouseModE, symObjAddr: 0x2CF8, symBinAddr: 0x528BC, symSize: 0x38 }
  - { offset: 0x327E7D, size: 0x8, addend: 0x0, symName: __ZN5iplug9igraphics13IVKnobControl9OnMouseUpEffRKNS0_9IMouseModE, symObjAddr: 0x2D30, symBinAddr: 0x528F4, symSize: 0x70 }
  - { offset: 0x327F30, size: 0x8, addend: 0x0, symName: __ZN5iplug9igraphics13IVKnobControl11OnMouseOverEffRKNS0_9IMouseModE, symObjAddr: 0x2DA0, symBinAddr: 0x52964, symSize: 0xE0 }
  - { offset: 0x32801B, size: 0x8, addend: 0x0, symName: __ZN5iplug9igraphics13IVKnobControl8OnResizeEv, symObjAddr: 0x2E80, symBinAddr: 0x52A44, symSize: 0x4C }
  - { offset: 0x328070, size: 0x8, addend: 0x0, symName: __ZNK5iplug9igraphics13IVKnobControl5IsHitEff, symObjAddr: 0x2ECC, symBinAddr: 0x52A90, symSize: 0xF4 }
  - { offset: 0x328160, size: 0x8, addend: 0x0, symName: __ZN5iplug9igraphics13IVKnobControl8SetDirtyEbi, symObjAddr: 0x2FC0, symBinAddr: 0x52B84, symSize: 0x68 }
  - { offset: 0x3282AC, size: 0x8, addend: 0x0, symName: __ZN5iplug9igraphics13IVKnobControl6OnInitEv, symObjAddr: 0x3028, symBinAddr: 0x52BEC, symSize: 0xA8 }
  - { offset: 0x3285E1, size: 0x8, addend: 0x0, symName: __ZNSt3__110unique_ptrIN5iplug9igraphics6ILayerENS_14default_deleteIS3_EEED1B9nqe210106Ev, symObjAddr: 0x30D0, symBinAddr: 0x52C94, symSize: 0x4C }
  - { offset: 0x32883A, size: 0x8, addend: 0x0, symName: __ZN5iplug9igraphics17ISVGButtonControlC2ERKNS0_5IRECTENSt3__18functionIFvPNS0_8IControlEEEERKNS0_4ISVGESD_, symObjAddr: 0x32EC, symBinAddr: 0x52CE0, symSize: 0x250 }
  - { offset: 0x328D18, size: 0x8, addend: 0x0, symName: __ZN5iplug9igraphics17ISVGButtonControl4DrawERNS0_9IGraphicsE, symObjAddr: 0x353C, symBinAddr: 0x52F30, symSize: 0xCC }
  - { offset: 0x32926D, size: 0x8, addend: 0x0, symName: __ZN5iplug9igraphics17ISVGSwitchControlC2ERKNS0_5IRECTERKSt16initializer_listINS0_4ISVGEEiNSt3__18functionIFvPNS0_8IControlEEEE, symObjAddr: 0x3608, symBinAddr: 0x52FFC, symSize: 0x1E0 }
  - { offset: 0x329880, size: 0x8, addend: 0x0, symName: __ZN5iplug9igraphics17ISVGSwitchControl4DrawERNS0_9IGraphicsE, symObjAddr: 0x37EC, symBinAddr: 0x531DC, symSize: 0x4C }
  - { offset: 0x329956, size: 0x8, addend: 0x0, symName: __ZN5iplug9igraphics18IVTabSwitchControlD1Ev, symObjAddr: 0x3838, symBinAddr: 0x53228, symSize: 0x4 }
  - { offset: 0x32999B, size: 0x8, addend: 0x0, symName: __ZN5iplug9igraphics18IVTabSwitchControlD0Ev, symObjAddr: 0x383C, symBinAddr: 0x5322C, symSize: 0x14 }
  - { offset: 0x3299DA, size: 0x8, addend: 0x0, symName: __ZThn8_N5iplug9igraphics18IVTabSwitchControlD1Ev, symObjAddr: 0x3850, symBinAddr: 0x53240, symSize: 0x8 }
  - { offset: 0x329A28, size: 0x8, addend: 0x0, symName: __ZThn8_N5iplug9igraphics18IVTabSwitchControlD0Ev, symObjAddr: 0x3858, symBinAddr: 0x53248, symSize: 0x18 }
  - { offset: 0x329A7A, size: 0x8, addend: 0x0, symName: __ZThn520_N5iplug9igraphics18IVTabSwitchControlD1Ev, symObjAddr: 0x3870, symBinAddr: 0x53260, symSize: 0x8 }
  - { offset: 0x329AAE, size: 0x8, addend: 0x0, symName: __ZThn520_N5iplug9igraphics18IVTabSwitchControlD0Ev, symObjAddr: 0x3878, symBinAddr: 0x53268, symSize: 0x18 }
  - { offset: 0x329B3C, size: 0x8, addend: 0x0, symName: __ZN5iplug9igraphics13IVKnobControlD1Ev, symObjAddr: 0x3890, symBinAddr: 0x53280, symSize: 0x3C }
  - { offset: 0x329D07, size: 0x8, addend: 0x0, symName: __ZN5iplug9igraphics13IVKnobControlD0Ev, symObjAddr: 0x38CC, symBinAddr: 0x532BC, symSize: 0x40 }
  - { offset: 0x329ECF, size: 0x8, addend: 0x0, symName: __ZThn8_N5iplug9igraphics13IVKnobControlD1Ev, symObjAddr: 0x390C, symBinAddr: 0x532FC, symSize: 0x40 }
  - { offset: 0x32A0AA, size: 0x8, addend: 0x0, symName: __ZThn8_N5iplug9igraphics13IVKnobControlD0Ev, symObjAddr: 0x394C, symBinAddr: 0x5333C, symSize: 0x44 }
  - { offset: 0x32A286, size: 0x8, addend: 0x0, symName: __ZThn520_N5iplug9igraphics13IVKnobControlD1Ev, symObjAddr: 0x3990, symBinAddr: 0x53380, symSize: 0x40 }
  - { offset: 0x32A444, size: 0x8, addend: 0x0, symName: __ZThn520_N5iplug9igraphics13IVKnobControlD0Ev, symObjAddr: 0x39D0, symBinAddr: 0x533C0, symSize: 0x44 }
  - { offset: 0x32A61D, size: 0x8, addend: 0x0, symName: __ZN5iplug9igraphics16IKnobControlBase17GetKnobDragBoundsEv, symObjAddr: 0x3A14, symBinAddr: 0x53404, symSize: 0xC }
  - { offset: 0x32A689, size: 0x8, addend: 0x0, symName: __ZN5iplug9igraphics14IVLabelControlD1Ev, symObjAddr: 0x3A20, symBinAddr: 0x53410, symSize: 0x54 }
  - { offset: 0x32A8E6, size: 0x8, addend: 0x0, symName: __ZN5iplug9igraphics14IVLabelControlD0Ev, symObjAddr: 0x3A74, symBinAddr: 0x53464, symSize: 0x58 }
  - { offset: 0x32AB3D, size: 0x8, addend: 0x0, symName: __ZThn8_N5iplug9igraphics14IVLabelControlD1Ev, symObjAddr: 0x3ACC, symBinAddr: 0x534BC, symSize: 0x5C }
  - { offset: 0x32ADA9, size: 0x8, addend: 0x0, symName: __ZThn8_N5iplug9igraphics14IVLabelControlD0Ev, symObjAddr: 0x3B28, symBinAddr: 0x53518, symSize: 0x60 }
  - { offset: 0x32B019, size: 0x8, addend: 0x0, symName: __ZThn536_N5iplug9igraphics14IVLabelControlD1Ev, symObjAddr: 0x3B88, symBinAddr: 0x53578, symSize: 0x60 }
  - { offset: 0x32B262, size: 0x8, addend: 0x0, symName: __ZThn536_N5iplug9igraphics14IVLabelControlD0Ev, symObjAddr: 0x3BE8, symBinAddr: 0x535D8, symSize: 0x64 }
  - { offset: 0x32B4E5, size: 0x8, addend: 0x0, symName: __ZN5iplug9igraphics15IVButtonControlD1Ev, symObjAddr: 0x3C4C, symBinAddr: 0x5363C, symSize: 0x3C }
  - { offset: 0x32B6AF, size: 0x8, addend: 0x0, symName: __ZN5iplug9igraphics15IVButtonControlD0Ev, symObjAddr: 0x3C88, symBinAddr: 0x53678, symSize: 0x40 }
  - { offset: 0x32B873, size: 0x8, addend: 0x0, symName: __ZThn8_N5iplug9igraphics15IVButtonControlD1Ev, symObjAddr: 0x3CC8, symBinAddr: 0x536B8, symSize: 0x40 }
  - { offset: 0x32BA4C, size: 0x8, addend: 0x0, symName: __ZThn8_N5iplug9igraphics15IVButtonControlD0Ev, symObjAddr: 0x3D08, symBinAddr: 0x536F8, symSize: 0x44 }
  - { offset: 0x32BC23, size: 0x8, addend: 0x0, symName: __ZThn488_N5iplug9igraphics15IVButtonControlD1Ev, symObjAddr: 0x3D4C, symBinAddr: 0x5373C, symSize: 0x40 }
  - { offset: 0x32BDDD, size: 0x8, addend: 0x0, symName: __ZThn488_N5iplug9igraphics15IVButtonControlD0Ev, symObjAddr: 0x3D8C, symBinAddr: 0x5377C, symSize: 0x44 }
  - { offset: 0x32BFEF, size: 0x8, addend: 0x0, symName: __ZN5iplug9igraphics15IVSwitchControlD1Ev, symObjAddr: 0x3DD0, symBinAddr: 0x537C0, symSize: 0x54 }
  - { offset: 0x32C24E, size: 0x8, addend: 0x0, symName: __ZN5iplug9igraphics15IVSwitchControlD0Ev, symObjAddr: 0x3E24, symBinAddr: 0x53814, symSize: 0x58 }
  - { offset: 0x32C4A7, size: 0x8, addend: 0x0, symName: __ZThn8_N5iplug9igraphics15IVSwitchControlD1Ev, symObjAddr: 0x3E7C, symBinAddr: 0x5386C, symSize: 0x5C }
  - { offset: 0x32C715, size: 0x8, addend: 0x0, symName: __ZThn8_N5iplug9igraphics15IVSwitchControlD0Ev, symObjAddr: 0x3ED8, symBinAddr: 0x538C8, symSize: 0x60 }
  - { offset: 0x32C987, size: 0x8, addend: 0x0, symName: __ZThn520_N5iplug9igraphics15IVSwitchControlD1Ev, symObjAddr: 0x3F38, symBinAddr: 0x53928, symSize: 0x60 }
  - { offset: 0x32CBD2, size: 0x8, addend: 0x0, symName: __ZThn520_N5iplug9igraphics15IVSwitchControlD0Ev, symObjAddr: 0x3F98, symBinAddr: 0x53988, symSize: 0x64 }
  - { offset: 0x32CE57, size: 0x8, addend: 0x0, symName: __ZN5iplug9igraphics20IVSlideSwitchControlD1Ev, symObjAddr: 0x3FFC, symBinAddr: 0x539EC, symSize: 0x54 }
  - { offset: 0x32D0D6, size: 0x8, addend: 0x0, symName: __ZN5iplug9igraphics20IVSlideSwitchControlD0Ev, symObjAddr: 0x4050, symBinAddr: 0x53A40, symSize: 0x58 }
  - { offset: 0x32D34D, size: 0x8, addend: 0x0, symName: __ZThn8_N5iplug9igraphics20IVSlideSwitchControlD1Ev, symObjAddr: 0x40A8, symBinAddr: 0x53A98, symSize: 0x5C }
  - { offset: 0x32D5DB, size: 0x8, addend: 0x0, symName: __ZThn8_N5iplug9igraphics20IVSlideSwitchControlD0Ev, symObjAddr: 0x4104, symBinAddr: 0x53AF4, symSize: 0x60 }
  - { offset: 0x32D86D, size: 0x8, addend: 0x0, symName: __ZThn520_N5iplug9igraphics20IVSlideSwitchControlD1Ev, symObjAddr: 0x4164, symBinAddr: 0x53B54, symSize: 0x60 }
  - { offset: 0x32DAD8, size: 0x8, addend: 0x0, symName: __ZThn520_N5iplug9igraphics20IVSlideSwitchControlD0Ev, symObjAddr: 0x41C4, symBinAddr: 0x53BB4, symSize: 0x64 }
  - { offset: 0x32DD81, size: 0x8, addend: 0x0, symName: __ZN5iplug9igraphics20IVRadioButtonControlD1Ev, symObjAddr: 0x4228, symBinAddr: 0x53C18, symSize: 0x4 }
  - { offset: 0x32DDA5, size: 0x8, addend: 0x0, symName: __ZN5iplug9igraphics20IVRadioButtonControlD1Ev, symObjAddr: 0x4228, symBinAddr: 0x53C18, symSize: 0x4 }
  - { offset: 0x32DDE0, size: 0x8, addend: 0x0, symName: __ZN5iplug9igraphics20IVRadioButtonControlD0Ev, symObjAddr: 0x422C, symBinAddr: 0x53C1C, symSize: 0x14 }
  - { offset: 0x32DE3D, size: 0x8, addend: 0x0, symName: __ZThn8_N5iplug9igraphics20IVRadioButtonControlD1Ev, symObjAddr: 0x4240, symBinAddr: 0x53C30, symSize: 0x8 }
  - { offset: 0x32DEAB, size: 0x8, addend: 0x0, symName: __ZThn8_N5iplug9igraphics20IVRadioButtonControlD0Ev, symObjAddr: 0x4248, symBinAddr: 0x53C38, symSize: 0x18 }
  - { offset: 0x32DF1B, size: 0x8, addend: 0x0, symName: __ZThn520_N5iplug9igraphics20IVRadioButtonControlD1Ev, symObjAddr: 0x4260, symBinAddr: 0x53C50, symSize: 0x8 }
  - { offset: 0x32DF6D, size: 0x8, addend: 0x0, symName: __ZThn520_N5iplug9igraphics20IVRadioButtonControlD0Ev, symObjAddr: 0x4268, symBinAddr: 0x53C58, symSize: 0x18 }
  - { offset: 0x32E004, size: 0x8, addend: 0x0, symName: __ZN5iplug9igraphics17ISVGButtonControlD1Ev, symObjAddr: 0x4280, symBinAddr: 0x53C70, symSize: 0x4 }
  - { offset: 0x32E028, size: 0x8, addend: 0x0, symName: __ZN5iplug9igraphics17ISVGButtonControlD1Ev, symObjAddr: 0x4280, symBinAddr: 0x53C70, symSize: 0x4 }
  - { offset: 0x32E046, size: 0x8, addend: 0x0, symName: __ZN5iplug9igraphics17ISVGButtonControlD1Ev, symObjAddr: 0x4280, symBinAddr: 0x53C70, symSize: 0x4 }
  - { offset: 0x32E084, size: 0x8, addend: 0x0, symName: __ZN5iplug9igraphics17ISVGButtonControlD0Ev, symObjAddr: 0x4284, symBinAddr: 0x53C74, symSize: 0x14 }
  - { offset: 0x32E102, size: 0x8, addend: 0x0, symName: __ZThn8_N5iplug9igraphics17ISVGButtonControlD1Ev, symObjAddr: 0x4298, symBinAddr: 0x53C88, symSize: 0x8 }
  - { offset: 0x32E192, size: 0x8, addend: 0x0, symName: __ZThn8_N5iplug9igraphics17ISVGButtonControlD0Ev, symObjAddr: 0x42A0, symBinAddr: 0x53C90, symSize: 0x18 }
  - { offset: 0x32E287, size: 0x8, addend: 0x0, symName: __ZN5iplug9igraphics17ISVGSwitchControlD1Ev, symObjAddr: 0x42B8, symBinAddr: 0x53CA8, symSize: 0x58 }
  - { offset: 0x32E4C4, size: 0x8, addend: 0x0, symName: __ZN5iplug9igraphics17ISVGSwitchControlD0Ev, symObjAddr: 0x4310, symBinAddr: 0x53D00, symSize: 0x5C }
  - { offset: 0x32E6FB, size: 0x8, addend: 0x0, symName: __ZThn8_N5iplug9igraphics17ISVGSwitchControlD1Ev, symObjAddr: 0x436C, symBinAddr: 0x53D5C, symSize: 0x60 }
  - { offset: 0x32E948, size: 0x8, addend: 0x0, symName: __ZThn8_N5iplug9igraphics17ISVGSwitchControlD0Ev, symObjAddr: 0x43CC, symBinAddr: 0x53DBC, symSize: 0x64 }
  - { offset: 0x32EB97, size: 0x8, addend: 0x0, symName: '__ZNSt3__110__function6__funcIZN5iplug9igraphics20IVSlideSwitchControlC1ERKNS3_5IRECTEiPKcRKNS3_7IVStyleEbNS3_10EDirectionEE3$_0FvPNS3_8IControlEEED1Ev', symObjAddr: 0x4578, symBinAddr: 0x53E34, symSize: 0x4 }
  - { offset: 0x32EBC6, size: 0x8, addend: 0x0, symName: '__ZNSt3__110__function6__funcIZN5iplug9igraphics20IVSlideSwitchControlC1ERKNS3_5IRECTEiPKcRKNS3_7IVStyleEbNS3_10EDirectionEE3$_0FvPNS3_8IControlEEED0Ev', symObjAddr: 0x457C, symBinAddr: 0x53E38, symSize: 0x4 }
  - { offset: 0x32EBF1, size: 0x8, addend: 0x0, symName: '__ZNKSt3__110__function6__funcIZN5iplug9igraphics20IVSlideSwitchControlC1ERKNS3_5IRECTEiPKcRKNS3_7IVStyleEbNS3_10EDirectionEE3$_0FvPNS3_8IControlEEE7__cloneEv', symObjAddr: 0x4580, symBinAddr: 0x53E3C, symSize: 0x34 }
  - { offset: 0x32EC54, size: 0x8, addend: 0x0, symName: '__ZNKSt3__110__function6__funcIZN5iplug9igraphics20IVSlideSwitchControlC1ERKNS3_5IRECTEiPKcRKNS3_7IVStyleEbNS3_10EDirectionEE3$_0FvPNS3_8IControlEEE7__cloneEPNS0_6__baseISH_EE', symObjAddr: 0x45B4, symBinAddr: 0x53E70, symSize: 0x14 }
  - { offset: 0x32ECB9, size: 0x8, addend: 0x0, symName: '__ZNSt3__110__function6__funcIZN5iplug9igraphics20IVSlideSwitchControlC1ERKNS3_5IRECTEiPKcRKNS3_7IVStyleEbNS3_10EDirectionEE3$_0FvPNS3_8IControlEEE7destroyEv', symObjAddr: 0x45C8, symBinAddr: 0x53E84, symSize: 0x4 }
  - { offset: 0x32ECDC, size: 0x8, addend: 0x0, symName: '__ZNSt3__110__function6__funcIZN5iplug9igraphics20IVSlideSwitchControlC1ERKNS3_5IRECTEiPKcRKNS3_7IVStyleEbNS3_10EDirectionEE3$_0FvPNS3_8IControlEEE18destroy_deallocateEv', symObjAddr: 0x45CC, symBinAddr: 0x53E88, symSize: 0x14 }
  - { offset: 0x32EF40, size: 0x8, addend: 0x0, symName: '__ZNSt3__110__function6__funcIZN5iplug9igraphics20IVSlideSwitchControlC1ERKNS3_5IRECTEiPKcRKNS3_7IVStyleEbNS3_10EDirectionEE3$_0FvPNS3_8IControlEEEclEOSG_', symObjAddr: 0x45E0, symBinAddr: 0x53E9C, symSize: 0xFC }
  - { offset: 0x32F43A, size: 0x8, addend: 0x0, symName: '__ZNKSt3__110__function6__funcIZN5iplug9igraphics20IVSlideSwitchControlC1ERKNS3_5IRECTEiPKcRKNS3_7IVStyleEbNS3_10EDirectionEE3$_0FvPNS3_8IControlEEE6targetERKSt9type_info', symObjAddr: 0x46DC, symBinAddr: 0x53F98, symSize: 0x60 }
  - { offset: 0x32F50D, size: 0x8, addend: 0x0, symName: '__ZNKSt3__110__function6__funcIZN5iplug9igraphics20IVSlideSwitchControlC1ERKNS3_5IRECTEiPKcRKNS3_7IVStyleEbNS3_10EDirectionEE3$_0FvPNS3_8IControlEEE11target_typeEv', symObjAddr: 0x473C, symBinAddr: 0x53FF8, symSize: 0xC }
  - { offset: 0x32F530, size: 0x8, addend: 0x0, symName: '__ZNSt3__110__function6__funcIZZN5iplug9igraphics20IVSlideSwitchControlC1ERKNS3_5IRECTEiPKcRKNS3_7IVStyleEbNS3_10EDirectionEENK3$_0clEPNS3_8IControlEEUlSG_E_FvSG_EED1Ev', symObjAddr: 0x4748, symBinAddr: 0x54004, symSize: 0x4 }
  - { offset: 0x32F55F, size: 0x8, addend: 0x0, symName: '__ZNSt3__110__function6__funcIZZN5iplug9igraphics20IVSlideSwitchControlC1ERKNS3_5IRECTEiPKcRKNS3_7IVStyleEbNS3_10EDirectionEENK3$_0clEPNS3_8IControlEEUlSG_E_FvSG_EED0Ev', symObjAddr: 0x474C, symBinAddr: 0x54008, symSize: 0x4 }
  - { offset: 0x32F58A, size: 0x8, addend: 0x0, symName: '__ZNKSt3__110__function6__funcIZZN5iplug9igraphics20IVSlideSwitchControlC1ERKNS3_5IRECTEiPKcRKNS3_7IVStyleEbNS3_10EDirectionEENK3$_0clEPNS3_8IControlEEUlSG_E_FvSG_EE7__cloneEv', symObjAddr: 0x4750, symBinAddr: 0x5400C, symSize: 0x34 }
  - { offset: 0x32F5ED, size: 0x8, addend: 0x0, symName: '__ZNKSt3__110__function6__funcIZZN5iplug9igraphics20IVSlideSwitchControlC1ERKNS3_5IRECTEiPKcRKNS3_7IVStyleEbNS3_10EDirectionEENK3$_0clEPNS3_8IControlEEUlSG_E_FvSG_EE7__cloneEPNS0_6__baseISI_EE', symObjAddr: 0x4784, symBinAddr: 0x54040, symSize: 0x14 }
  - { offset: 0x32F652, size: 0x8, addend: 0x0, symName: '__ZNSt3__110__function6__funcIZZN5iplug9igraphics20IVSlideSwitchControlC1ERKNS3_5IRECTEiPKcRKNS3_7IVStyleEbNS3_10EDirectionEENK3$_0clEPNS3_8IControlEEUlSG_E_FvSG_EE7destroyEv', symObjAddr: 0x4798, symBinAddr: 0x54054, symSize: 0x4 }
  - { offset: 0x32F675, size: 0x8, addend: 0x0, symName: '__ZNSt3__110__function6__funcIZZN5iplug9igraphics20IVSlideSwitchControlC1ERKNS3_5IRECTEiPKcRKNS3_7IVStyleEbNS3_10EDirectionEENK3$_0clEPNS3_8IControlEEUlSG_E_FvSG_EE18destroy_deallocateEv', symObjAddr: 0x479C, symBinAddr: 0x54058, symSize: 0x14 }
  - { offset: 0x32F75B, size: 0x8, addend: 0x0, symName: '__ZNSt3__110__function6__funcIZZN5iplug9igraphics20IVSlideSwitchControlC1ERKNS3_5IRECTEiPKcRKNS3_7IVStyleEbNS3_10EDirectionEENK3$_0clEPNS3_8IControlEEUlSG_E_FvSG_EEclEOSG_', symObjAddr: 0x47B0, symBinAddr: 0x5406C, symSize: 0xC8 }
  - { offset: 0x32F998, size: 0x8, addend: 0x0, symName: '__ZNKSt3__110__function6__funcIZZN5iplug9igraphics20IVSlideSwitchControlC1ERKNS3_5IRECTEiPKcRKNS3_7IVStyleEbNS3_10EDirectionEENK3$_0clEPNS3_8IControlEEUlSG_E_FvSG_EE6targetERKSt9type_info', symObjAddr: 0x4878, symBinAddr: 0x54134, symSize: 0x60 }
  - { offset: 0x32FA54, size: 0x8, addend: 0x0, symName: '__ZNKSt3__110__function6__funcIZZN5iplug9igraphics20IVSlideSwitchControlC1ERKNS3_5IRECTEiPKcRKNS3_7IVStyleEbNS3_10EDirectionEENK3$_0clEPNS3_8IControlEEUlSG_E_FvSG_EE11target_typeEv', symObjAddr: 0x48D8, symBinAddr: 0x54194, symSize: 0xC }
  - { offset: 0x32FFA5, size: 0x8, addend: 0x0, symName: __GLOBAL__sub_I_IControls.cpp, symObjAddr: 0x4BD0, symBinAddr: 0x541A0, symSize: 0x3C0 }
  - { offset: 0x334083, size: 0x8, addend: 0x0, symName: __ZN5iplug12IPlugAPIBaseC2ENS_6ConfigENS_4EAPIE, symObjAddr: 0x0, symBinAddr: 0x54560, symSize: 0x450 }
  - { offset: 0x3340AE, size: 0x8, addend: 0x0, symName: __ZTVN5iplug12IPlugAPIBaseE, symObjAddr: 0x1740, symBinAddr: 0x124750, symSize: 0x0 }
  - { offset: 0x3389CA, size: 0x8, addend: 0x0, symName: __ZTVNSt3__110__function6__funcINS_6__bindIMN5iplug12IPlugAPIBaseEFvRNS3_5TimerEEJPS4_RKNS_12placeholders4__phILi1EEEEEEFvS6_EEE, symObjAddr: 0x1990, symBinAddr: 0x1249A0, symSize: 0x0 }
  - { offset: 0x33941A, size: 0x8, addend: 0x0, symName: __ZN5iplug12IPlugAPIBaseC2ENS_6ConfigENS_4EAPIE, symObjAddr: 0x0, symBinAddr: 0x54560, symSize: 0x450 }
  - { offset: 0x33A5C3, size: 0x8, addend: 0x0, symName: __ZN5iplug12IPlugAPIBaseD2Ev, symObjAddr: 0x450, symBinAddr: 0x549B0, symSize: 0x8C }
  - { offset: 0x33AB8D, size: 0x8, addend: 0x0, symName: __ZN5iplug12IPlugAPIBaseD1Ev, symObjAddr: 0x4DC, symBinAddr: 0x54A3C, symSize: 0x4 }
  - { offset: 0x33ABB1, size: 0x8, addend: 0x0, symName: __ZN5iplug12IPlugAPIBaseD1Ev, symObjAddr: 0x4DC, symBinAddr: 0x54A3C, symSize: 0x4 }
  - { offset: 0x33ABDC, size: 0x8, addend: 0x0, symName: __ZN5iplug12IPlugAPIBaseD0Ev, symObjAddr: 0x4E0, symBinAddr: 0x54A40, symSize: 0x14 }
  - { offset: 0x33ACC2, size: 0x8, addend: 0x0, symName: __ZN5iplug12IPlugAPIBase35OnHostRequestingImportantParametersEiR12WDL_TypedBufIiE, symObjAddr: 0x4F4, symBinAddr: 0x54A54, symSize: 0x94 }
  - { offset: 0x33B12A, size: 0x8, addend: 0x0, symName: __ZN5iplug12IPlugAPIBase7OnTimerERNS_5TimerE, symObjAddr: 0x654, symBinAddr: 0x54AE8, symSize: 0x1B8 }
  - { offset: 0x33B966, size: 0x8, addend: 0x0, symName: __ZNK5iplug12IPlugAPIBase12CompareStateEPKhi, symObjAddr: 0x80C, symBinAddr: 0x54CA0, symSize: 0x84 }
  - { offset: 0x33BB55, size: 0x8, addend: 0x0, symName: __ZN5iplug12IPlugAPIBase18EditorResizeFromUIEiib, symObjAddr: 0x890, symBinAddr: 0x54D24, symSize: 0x18 }
  - { offset: 0x33BC16, size: 0x8, addend: 0x0, symName: __ZN5iplug12IPlugAPIBase7SetHostEPKci, symObjAddr: 0x8A8, symBinAddr: 0x54D3C, symSize: 0x64C }
  - { offset: 0x33CAF1, size: 0x8, addend: 0x0, symName: __ZN5iplug12IPlugAPIBase17SetParameterValueEid, symObjAddr: 0xEF4, symBinAddr: 0x55388, symSize: 0xF8 }
  - { offset: 0x33CDFA, size: 0x8, addend: 0x0, symName: __ZN5iplug12IPlugAPIBase21DirtyParametersFromUIEv, symObjAddr: 0xFEC, symBinAddr: 0x55480, symSize: 0xD0 }
  - { offset: 0x33CE22, size: 0x8, addend: 0x0, symName: __ZN5iplug12IPlugAPIBase21DirtyParametersFromUIEv, symObjAddr: 0xFEC, symBinAddr: 0x55480, symSize: 0xD0 }
  - { offset: 0x33D183, size: 0x8, addend: 0x0, symName: __ZN5iplug12IPlugAPIBase25SendParameterValueFromAPIEidb, symObjAddr: 0x10BC, symBinAddr: 0x55550, symSize: 0xCC }
  - { offset: 0x33D528, size: 0x8, addend: 0x0, symName: __ZN5iplug12IPlugAPIBase17SendMidiMsgFromUIERKNS_8IMidiMsgE, symObjAddr: 0x1188, symBinAddr: 0x5561C, symSize: 0xC }
  - { offset: 0x33D569, size: 0x8, addend: 0x0, symName: __ZN5iplug12IPlugAPIBase18SendSysexMsgFromUIERKNS_6ISysExE, symObjAddr: 0x1194, symBinAddr: 0x55628, symSize: 0xC }
  - { offset: 0x33D5AA, size: 0x8, addend: 0x0, symName: __ZN5iplug12IPlugAPIBase22SendArbitraryMsgFromUIEiiiPKv, symObjAddr: 0x11A0, symBinAddr: 0x55634, symSize: 0xC }
  - { offset: 0x33D63A, size: 0x8, addend: 0x0, symName: __ZN5iplug15IEditorDelegate8OnUIOpenEv, symObjAddr: 0x11AC, symBinAddr: 0x55640, symSize: 0xD4 }
  - { offset: 0x33D664, size: 0x8, addend: 0x0, symName: __ZN5iplug15IEditorDelegate8OnUIOpenEv, symObjAddr: 0x11AC, symBinAddr: 0x55640, symSize: 0xD4 }
  - { offset: 0x33D67F, size: 0x8, addend: 0x0, symName: __ZN5iplug15IEditorDelegate8OnUIOpenEv, symObjAddr: 0x11AC, symBinAddr: 0x55640, symSize: 0xD4 }
  - { offset: 0x33D90F, size: 0x8, addend: 0x0, symName: __ZN5iplug15IEditorDelegate13OnParamChangeEi, symObjAddr: 0x1280, symBinAddr: 0x55714, symSize: 0x4 }
  - { offset: 0x33D942, size: 0x8, addend: 0x0, symName: __ZN5iplug15IEditorDelegate15OnParamChangeUIEiNS_12EParamSourceE, symObjAddr: 0x1284, symBinAddr: 0x55718, symSize: 0x4 }
  - { offset: 0x33D983, size: 0x8, addend: 0x0, symName: __ZN5iplug15IEditorDelegate9OnMessageEiiiPKv, symObjAddr: 0x1288, symBinAddr: 0x5571C, symSize: 0x8 }
  - { offset: 0x33DA10, size: 0x8, addend: 0x0, symName: __ZN5iplug12IPlugAPIBase24SendParameterValueFromUIEid, symObjAddr: 0x1290, symBinAddr: 0x55724, symSize: 0xE0 }
  - { offset: 0x33DD5A, size: 0x8, addend: 0x0, symName: __ZNK5iplug15IEditorDelegate21ConstrainEditorResizeERiS1_, symObjAddr: 0x1370, symBinAddr: 0x55804, symSize: 0x70 }
  - { offset: 0x33DE83, size: 0x8, addend: 0x0, symName: __ZN5iplug11IPluginBase34InformHostOfParameterDetailsChangeEv, symObjAddr: 0x13E0, symBinAddr: 0x55874, symSize: 0x4 }
  - { offset: 0x33DEA8, size: 0x8, addend: 0x0, symName: __ZNK5iplug11IPluginBase14SerializeStateERNS_10IByteChunkE, symObjAddr: 0x13E4, symBinAddr: 0x55878, symSize: 0x9C }
  - { offset: 0x33DF38, size: 0x8, addend: 0x0, symName: __ZNK5iplug11IPluginBase14SerializeStateERNS_10IByteChunkE, symObjAddr: 0x13E4, symBinAddr: 0x55878, symSize: 0x9C }
  - { offset: 0x33E1C7, size: 0x8, addend: 0x0, symName: __ZN5iplug11IPluginBase16UnserializeStateERKNS_10IByteChunkEi, symObjAddr: 0x1480, symBinAddr: 0x55914, symSize: 0xF0 }
  - { offset: 0x33E50E, size: 0x8, addend: 0x0, symName: __ZN5iplug11IPluginBase24InformHostOfPresetChangeEv, symObjAddr: 0x1570, symBinAddr: 0x55A04, symSize: 0x4 }
  - { offset: 0x33E533, size: 0x8, addend: 0x0, symName: __ZN5iplug12IPlugAPIBase42OnHostRequestingSupportedViewConfigurationEii, symObjAddr: 0x1574, symBinAddr: 0x55A08, symSize: 0xC }
  - { offset: 0x33E576, size: 0x8, addend: 0x0, symName: __ZN5iplug12IPlugAPIBase6OnIdleEv, symObjAddr: 0x1580, symBinAddr: 0x55A14, symSize: 0x4 }
  - { offset: 0x33E59B, size: 0x8, addend: 0x0, symName: __ZN5iplug12IPlugAPIBase13GetTrackColorERiS1_S1_, symObjAddr: 0x1584, symBinAddr: 0x55A18, symSize: 0x10 }
  - { offset: 0x33E5EA, size: 0x8, addend: 0x0, symName: __ZN5iplug12IPlugAPIBase12GetTrackNameER10WDL_String, symObjAddr: 0x1594, symBinAddr: 0x55A28, symSize: 0x4 }
  - { offset: 0x33E61D, size: 0x8, addend: 0x0, symName: __ZN5iplug12IPlugAPIBase13GetTrackIndexEv, symObjAddr: 0x1598, symBinAddr: 0x55A2C, symSize: 0x8 }
  - { offset: 0x33E644, size: 0x8, addend: 0x0, symName: __ZN5iplug12IPlugAPIBase17GetTrackNamespaceER10WDL_String, symObjAddr: 0x15A0, symBinAddr: 0x55A34, symSize: 0x4 }
  - { offset: 0x33E677, size: 0x8, addend: 0x0, symName: __ZN5iplug12IPlugAPIBase22GetTrackNamespaceIndexEv, symObjAddr: 0x15A4, symBinAddr: 0x55A38, symSize: 0x8 }
  - { offset: 0x33E69E, size: 0x8, addend: 0x0, symName: __ZN5iplug12IPlugAPIBase12EditorResizeEii, symObjAddr: 0x15AC, symBinAddr: 0x55A40, symSize: 0x8 }
  - { offset: 0x33E6E1, size: 0x8, addend: 0x0, symName: __ZN5iplug12IPlugAPIBase28BeginInformHostOfParamChangeEi, symObjAddr: 0x15B4, symBinAddr: 0x55A48, symSize: 0x4 }
  - { offset: 0x33E714, size: 0x8, addend: 0x0, symName: __ZN5iplug12IPlugAPIBase26EndInformHostOfParamChangeEi, symObjAddr: 0x15B8, symBinAddr: 0x55A4C, symSize: 0x4 }
  - { offset: 0x33E747, size: 0x8, addend: 0x0, symName: __ZN5iplug12IPlugAPIBase23InformHostOfParamChangeEid, symObjAddr: 0x15BC, symBinAddr: 0x55A50, symSize: 0x4 }
  - { offset: 0x33E789, size: 0x8, addend: 0x0, symName: __ZNSt3__110__function6__funcINS_6__bindIMN5iplug12IPlugAPIBaseEFvRNS3_5TimerEEJPS4_RKNS_12placeholders4__phILi1EEEEEEFvS6_EED1Ev, symObjAddr: 0x15C0, symBinAddr: 0x55A54, symSize: 0x4 }
  - { offset: 0x33E7B8, size: 0x8, addend: 0x0, symName: __ZNSt3__110__function6__funcINS_6__bindIMN5iplug12IPlugAPIBaseEFvRNS3_5TimerEEJPS4_RKNS_12placeholders4__phILi1EEEEEEFvS6_EED0Ev, symObjAddr: 0x15C4, symBinAddr: 0x55A58, symSize: 0x4 }
  - { offset: 0x33E82F, size: 0x8, addend: 0x0, symName: __ZNKSt3__110__function6__funcINS_6__bindIMN5iplug12IPlugAPIBaseEFvRNS3_5TimerEEJPS4_RKNS_12placeholders4__phILi1EEEEEEFvS6_EE7__cloneEv, symObjAddr: 0x15C8, symBinAddr: 0x55A5C, symSize: 0x40 }
  - { offset: 0x33E8A6, size: 0x8, addend: 0x0, symName: __ZNKSt3__110__function6__funcINS_6__bindIMN5iplug12IPlugAPIBaseEFvRNS3_5TimerEEJPS4_RKNS_12placeholders4__phILi1EEEEEEFvS6_EE7__cloneEPNS0_6__baseISG_EE, symObjAddr: 0x1608, symBinAddr: 0x55A9C, symSize: 0x20 }
  - { offset: 0x33E8DC, size: 0x8, addend: 0x0, symName: __ZNKSt3__110__function6__funcINS_6__bindIMN5iplug12IPlugAPIBaseEFvRNS3_5TimerEEJPS4_RKNS_12placeholders4__phILi1EEEEEEFvS6_EE7__cloneEPNS0_6__baseISG_EE, symObjAddr: 0x1608, symBinAddr: 0x55A9C, symSize: 0x20 }
  - { offset: 0x33E903, size: 0x8, addend: 0x0, symName: __ZNKSt3__110__function6__funcINS_6__bindIMN5iplug12IPlugAPIBaseEFvRNS3_5TimerEEJPS4_RKNS_12placeholders4__phILi1EEEEEEFvS6_EE7__cloneEPNS0_6__baseISG_EE, symObjAddr: 0x1608, symBinAddr: 0x55A9C, symSize: 0x20 }
  - { offset: 0x33E929, size: 0x8, addend: 0x0, symName: __ZNSt3__110__function6__funcINS_6__bindIMN5iplug12IPlugAPIBaseEFvRNS3_5TimerEEJPS4_RKNS_12placeholders4__phILi1EEEEEEFvS6_EE7destroyEv, symObjAddr: 0x1628, symBinAddr: 0x55ABC, symSize: 0x4 }
  - { offset: 0x33E94E, size: 0x8, addend: 0x0, symName: __ZNSt3__110__function6__funcINS_6__bindIMN5iplug12IPlugAPIBaseEFvRNS3_5TimerEEJPS4_RKNS_12placeholders4__phILi1EEEEEEFvS6_EE18destroy_deallocateEv, symObjAddr: 0x162C, symBinAddr: 0x55AC0, symSize: 0x14 }
  - { offset: 0x33E9FB, size: 0x8, addend: 0x0, symName: __ZNSt3__110__function6__funcINS_6__bindIMN5iplug12IPlugAPIBaseEFvRNS3_5TimerEEJPS4_RKNS_12placeholders4__phILi1EEEEEEFvS6_EEclES6_, symObjAddr: 0x1640, symBinAddr: 0x55AD4, symSize: 0x1C }
  - { offset: 0x33EA33, size: 0x8, addend: 0x0, symName: __ZNSt3__110__function6__funcINS_6__bindIMN5iplug12IPlugAPIBaseEFvRNS3_5TimerEEJPS4_RKNS_12placeholders4__phILi1EEEEEEFvS6_EEclES6_, symObjAddr: 0x1640, symBinAddr: 0x55AD4, symSize: 0x1C }
  - { offset: 0x33EA52, size: 0x8, addend: 0x0, symName: __ZNSt3__110__function6__funcINS_6__bindIMN5iplug12IPlugAPIBaseEFvRNS3_5TimerEEJPS4_RKNS_12placeholders4__phILi1EEEEEEFvS6_EEclES6_, symObjAddr: 0x1640, symBinAddr: 0x55AD4, symSize: 0x1C }
  - { offset: 0x33EA72, size: 0x8, addend: 0x0, symName: __ZNSt3__110__function6__funcINS_6__bindIMN5iplug12IPlugAPIBaseEFvRNS3_5TimerEEJPS4_RKNS_12placeholders4__phILi1EEEEEEFvS6_EEclES6_, symObjAddr: 0x1640, symBinAddr: 0x55AD4, symSize: 0x1C }
  - { offset: 0x33EA92, size: 0x8, addend: 0x0, symName: __ZNSt3__110__function6__funcINS_6__bindIMN5iplug12IPlugAPIBaseEFvRNS3_5TimerEEJPS4_RKNS_12placeholders4__phILi1EEEEEEFvS6_EEclES6_, symObjAddr: 0x1640, symBinAddr: 0x55AD4, symSize: 0x1C }
  - { offset: 0x33EAB1, size: 0x8, addend: 0x0, symName: __ZNSt3__110__function6__funcINS_6__bindIMN5iplug12IPlugAPIBaseEFvRNS3_5TimerEEJPS4_RKNS_12placeholders4__phILi1EEEEEEFvS6_EEclES6_, symObjAddr: 0x1640, symBinAddr: 0x55AD4, symSize: 0x1C }
  - { offset: 0x33EADA, size: 0x8, addend: 0x0, symName: __ZNSt3__110__function6__funcINS_6__bindIMN5iplug12IPlugAPIBaseEFvRNS3_5TimerEEJPS4_RKNS_12placeholders4__phILi1EEEEEEFvS6_EEclES6_, symObjAddr: 0x1640, symBinAddr: 0x55AD4, symSize: 0x1C }
  - { offset: 0x33EB6F, size: 0x8, addend: 0x0, symName: __ZNKSt3__110__function6__funcINS_6__bindIMN5iplug12IPlugAPIBaseEFvRNS3_5TimerEEJPS4_RKNS_12placeholders4__phILi1EEEEEEFvS6_EE6targetERKSt9type_info, symObjAddr: 0x165C, symBinAddr: 0x55AF0, symSize: 0x60 }
  - { offset: 0x33EC42, size: 0x8, addend: 0x0, symName: __ZNKSt3__110__function6__funcINS_6__bindIMN5iplug12IPlugAPIBaseEFvRNS3_5TimerEEJPS4_RKNS_12placeholders4__phILi1EEEEEEFvS6_EE11target_typeEv, symObjAddr: 0x16BC, symBinAddr: 0x55B50, symSize: 0xC }
  - { offset: 0x340E51, size: 0x8, addend: 0x0, symName: __ZN3dsp3wav23GetMsgForLoadReturnCodeENS0_14LoadReturnCodeE, symObjAddr: 0x0, symBinAddr: 0x55B5C, symSize: 0x1D4 }
  - { offset: 0x3534A6, size: 0x8, addend: 0x0, symName: __ZN3dsp3wav23GetMsgForLoadReturnCodeENS0_14LoadReturnCodeE, symObjAddr: 0x0, symBinAddr: 0x55B5C, symSize: 0x1D4 }
  - { offset: 0x353994, size: 0x8, addend: 0x0, symName: __ZN3dsp3wav27_LoadSamples32FloatingPointERNSt3__114basic_ifstreamIcNS1_11char_traitsIcEEEEiRNS1_6vectorIfNS1_9allocatorIfEEEE, symObjAddr: 0x21C, symBinAddr: 0x55D78, symSize: 0x88 }
  - { offset: 0x353A93, size: 0x8, addend: 0x0, symName: __ZN3dsp3wav14_LoadSamples16ERNSt3__114basic_ifstreamIcNS1_11char_traitsIcEEEEiRNS1_6vectorIfNS1_9allocatorIfEEEE, symObjAddr: 0x2A4, symBinAddr: 0x55E00, symSize: 0x238 }
  - { offset: 0x353EDD, size: 0x8, addend: 0x0, symName: __ZN3dsp3wav14_LoadSamples24ERNSt3__114basic_ifstreamIcNS1_11char_traitsIcEEEEiRNS1_6vectorIfNS1_9allocatorIfEEEE, symObjAddr: 0x4DC, symBinAddr: 0x56038, symSize: 0x244 }
  - { offset: 0x354344, size: 0x8, addend: 0x0, symName: __ZN3dsp3wav24_LoadSamples32FixedPointERNSt3__114basic_ifstreamIcNS1_11char_traitsIcEEEEiRNS1_6vectorIfNS1_9allocatorIfEEEE, symObjAddr: 0x720, symBinAddr: 0x5627C, symSize: 0x1FC }
  - { offset: 0x354746, size: 0x8, addend: 0x0, symName: __ZN3dsp3wav4LoadEPKcRNSt3__16vectorIfNS3_9allocatorIfEEEERd, symObjAddr: 0x91C, symBinAddr: 0x56478, symSize: 0x134C }
  - { offset: 0x35765C, size: 0x8, addend: 0x0, symName: __ZNSt3__113unordered_setItNS_4hashItEENS_8equal_toItEENS_9allocatorItEEED1B9nqe210106Ev, symObjAddr: 0x1D4, symBinAddr: 0x55D30, symSize: 0x48 }
  - { offset: 0x358B86, size: 0x8, addend: 0x0, symName: __ZNSt3__112__hash_tableItNS_4hashItEENS_8equal_toItEENS_9allocatorItEEE25__emplace_unique_key_argsItJRKtEEENS_4pairINS_15__hash_iteratorIPNS_11__hash_nodeItPvEEEEbEERKT_DpOT0_, symObjAddr: 0x1CC4, symBinAddr: 0x577C4, symSize: 0x460 }
  - { offset: 0x35B7CB, size: 0x8, addend: 0x0, symName: __ZTVN3dsp3DSPE, symObjAddr: 0x5B8, symBinAddr: 0x124AB0, symSize: 0x0 }
  - { offset: 0x35F1FB, size: 0x8, addend: 0x0, symName: __ZTVN3dsp7HistoryE, symObjAddr: 0x5E8, symBinAddr: 0x124AE0, symSize: 0x0 }
  - { offset: 0x35F553, size: 0x8, addend: 0x0, symName: __ZN3dsp3DSPD2Ev, symObjAddr: 0x20, symBinAddr: 0x57C24, symSize: 0x94 }
  - { offset: 0x35F809, size: 0x8, addend: 0x0, symName: __ZN3dsp3DSPD1Ev, symObjAddr: 0xB4, symBinAddr: 0xFACFC, symSize: 0x4 }
  - { offset: 0x35F836, size: 0x8, addend: 0x0, symName: __ZN3dsp3DSPD0Ev, symObjAddr: 0xB8, symBinAddr: 0xFAD00, symSize: 0x4 }
  - { offset: 0x35F9D6, size: 0x8, addend: 0x0, symName: __ZN3dsp3DSP15_PrepareBuffersEmm, symObjAddr: 0x178, symBinAddr: 0x57CB8, symSize: 0x168 }
  - { offset: 0x35FFD2, size: 0x8, addend: 0x0, symName: __ZN3dsp7History14_UpdateHistoryEPPdmm, symObjAddr: 0x380, symBinAddr: 0x57E20, symSize: 0x21C }
  - { offset: 0x360387, size: 0x8, addend: 0x0, symName: __ZN3dsp7HistoryD1Ev, symObjAddr: 0x59C, symBinAddr: 0x5803C, symSize: 0x4 }
  - { offset: 0x3603B6, size: 0x8, addend: 0x0, symName: __ZN3dsp7HistoryD0Ev, symObjAddr: 0x5A0, symBinAddr: 0x58040, symSize: 0x4 }
  - { offset: 0x3621BB, size: 0x8, addend: 0x0, symName: __ZN12_GLOBAL__N_117_register_WaveNetE, symObjAddr: 0x304279, symBinAddr: 0x2B4ED0, symSize: 0x0 }
  - { offset: 0x3635B4, size: 0x8, addend: 0x0, symName: __ZN3nam7wavenet17parse_config_jsonERKN8nlohmann16json_abi_v3_11_210basic_jsonINSt3__13mapENS4_6vectorENS4_12basic_stringIcNS4_11char_traitsIcEENS4_9allocatorIcEEEEbxydSA_NS2_14adl_serializerENS6_IhNSA_IhEEEEEEd, symObjAddr: 0xA674, symBinAddr: 0x626B4, symSize: 0x5950 }
  - { offset: 0x37BFBA, size: 0x8, addend: 0x0, symName: __ZN3nam7wavenet13create_configERKN8nlohmann16json_abi_v3_11_210basic_jsonINSt3__13mapENS4_6vectorENS4_12basic_stringIcNS4_11char_traitsIcEENS4_9allocatorIcEEEEbxydSA_NS2_14adl_serializerENS6_IhNSA_IhEEEEEEd, symObjAddr: 0x113D4, symBinAddr: 0x69414, symSize: 0x9E8 }
  - { offset: 0x39D3D2, size: 0x8, addend: 0x0, symName: __ZNSt3__112construct_atB9nqe210106IN3nam7wavenet6detail10LayerArrayEJS4_EPS4_EEPT_S7_DpOT0_, symObjAddr: 0x1274C, symBinAddr: 0x6A750, symSize: 0x164 }
  - { offset: 0x39D3FA, size: 0x8, addend: 0x0, symName: __ZNSt3__112construct_atB9nqe210106IN3nam7wavenet6detail10LayerArrayEJS4_EPS4_EEPT_S7_DpOT0_, symObjAddr: 0x1274C, symBinAddr: 0x6A750, symSize: 0x164 }
  - { offset: 0x39D41F, size: 0x8, addend: 0x0, symName: __ZNSt3__112construct_atB9nqe210106IN3nam7wavenet6detail10LayerArrayEJS4_EPS4_EEPT_S7_DpOT0_, symObjAddr: 0x1274C, symBinAddr: 0x6A750, symSize: 0x164 }
  - { offset: 0x39D445, size: 0x8, addend: 0x0, symName: __ZNSt3__112construct_atB9nqe210106IN3nam7wavenet6detail10LayerArrayEJS4_EPS4_EEPT_S7_DpOT0_, symObjAddr: 0x1274C, symBinAddr: 0x6A750, symSize: 0x164 }
  - { offset: 0x39D46B, size: 0x8, addend: 0x0, symName: __ZNSt3__112construct_atB9nqe210106IN3nam7wavenet6detail10LayerArrayEJS4_EPS4_EEPT_S7_DpOT0_, symObjAddr: 0x1274C, symBinAddr: 0x6A750, symSize: 0x164 }
  - { offset: 0x39D491, size: 0x8, addend: 0x0, symName: __ZNSt3__112construct_atB9nqe210106IN3nam7wavenet6detail10LayerArrayEJS4_EPS4_EEPT_S7_DpOT0_, symObjAddr: 0x1274C, symBinAddr: 0x6A750, symSize: 0x164 }
  - { offset: 0x39D4B7, size: 0x8, addend: 0x0, symName: __ZNSt3__112construct_atB9nqe210106IN3nam7wavenet6detail10LayerArrayEJS4_EPS4_EEPT_S7_DpOT0_, symObjAddr: 0x1274C, symBinAddr: 0x6A750, symSize: 0x164 }
  - { offset: 0x39D4DD, size: 0x8, addend: 0x0, symName: __ZNSt3__112construct_atB9nqe210106IN3nam7wavenet6detail10LayerArrayEJS4_EPS4_EEPT_S7_DpOT0_, symObjAddr: 0x1274C, symBinAddr: 0x6A750, symSize: 0x164 }
  - { offset: 0x39D503, size: 0x8, addend: 0x0, symName: __ZNSt3__112construct_atB9nqe210106IN3nam7wavenet6detail10LayerArrayEJS4_EPS4_EEPT_S7_DpOT0_, symObjAddr: 0x1274C, symBinAddr: 0x6A750, symSize: 0x164 }
  - { offset: 0x39D529, size: 0x8, addend: 0x0, symName: __ZNSt3__112construct_atB9nqe210106IN3nam7wavenet6detail10LayerArrayEJS4_EPS4_EEPT_S7_DpOT0_, symObjAddr: 0x1274C, symBinAddr: 0x6A750, symSize: 0x164 }
  - { offset: 0x39D54F, size: 0x8, addend: 0x0, symName: __ZNSt3__112construct_atB9nqe210106IN3nam7wavenet6detail10LayerArrayEJS4_EPS4_EEPT_S7_DpOT0_, symObjAddr: 0x1274C, symBinAddr: 0x6A750, symSize: 0x164 }
  - { offset: 0x39E048, size: 0x8, addend: 0x0, symName: __ZNSt3__112construct_atB9nqe210106IN3nam11activations16ActivationConfigEJRKS3_EPS3_EEPT_S8_DpOT0_, symObjAddr: 0x131A0, symBinAddr: 0x6B17C, symSize: 0xF0 }
  - { offset: 0x39FD61, size: 0x8, addend: 0x0, symName: __ZNSt3__112construct_atB9nqe210106IN3nam11activations16ActivationConfigEJRS3_EPS3_EEPT_S7_DpOT0_, symObjAddr: 0x14BFC, symBinAddr: 0x6CAAC, symSize: 0xF0 }
  - { offset: 0x3A43A9, size: 0x8, addend: 0x0, symName: __ZN8nlohmann16json_abi_v3_11_26detail9from_jsonINS0_10basic_jsonINSt3__13mapENS4_6vectorENS4_12basic_stringIcNS4_11char_traitsIcEENS4_9allocatorIcEEEEbxydSA_NS0_14adl_serializerENS6_IhNSA_IhEEEEEEiLi0EEEvRKT_RT0_, symObjAddr: 0x1296C, symBinAddr: 0x6A95C, symSize: 0x140 }
  - { offset: 0x3A44EC, size: 0x8, addend: 0x0, symName: __ZN8nlohmann16json_abi_v3_11_26detail9from_jsonINS0_10basic_jsonINSt3__13mapENS4_6vectorENS4_12basic_stringIcNS4_11char_traitsIcEENS4_9allocatorIcEEEEbxydSA_NS0_14adl_serializerENS6_IhNSA_IhEEEEEENS6_IiNSA_IiEEEELi0EEEDTcmcmcl20from_json_array_implfp_fp0_tlNS1_12priority_tagILj3EEEEEcldtfp_3getINT0_10value_typeEEEcvv_EERKT_RSL_, symObjAddr: 0x14DEC, symBinAddr: 0x6CC9C, symSize: 0xD8 }
  - { offset: 0x3A466B, size: 0x8, addend: 0x0, symName: __ZN8nlohmann16json_abi_v3_11_26detail6concatINSt3__112basic_stringIcNS3_11char_traitsIcEENS3_9allocatorIcEEEEJRA22_KcPSA_EEET_DpOT0_, symObjAddr: 0x167CC, symBinAddr: 0x6DED8, symSize: 0xE0 }
  - { offset: 0x3A4AD0, size: 0x8, addend: 0x0, symName: __ZN8nlohmann16json_abi_v3_11_26detail6concatINSt3__112basic_stringIcNS3_11char_traitsIcEENS3_9allocatorIcEEEEJRA52_KcPSA_EEET_DpOT0_, symObjAddr: 0x162DC, symBinAddr: 0x6DDF8, symSize: 0xE0 }
  - { offset: 0x3A4F35, size: 0x8, addend: 0x0, symName: __ZN8nlohmann16json_abi_v3_11_26detail6concatINSt3__112basic_stringIcNS3_11char_traitsIcEENS3_9allocatorIcEEEEJRA6_KcS9_RA12_SA_EEET_DpOT0_, symObjAddr: 0x16A7C, symBinAddr: 0x6E188, symSize: 0x118 }
  - { offset: 0x3A5547, size: 0x8, addend: 0x0, symName: __ZN8nlohmann16json_abi_v3_11_26detail6concatINSt3__112basic_stringIcNS3_11char_traitsIcEENS3_9allocatorIcEEEEJRA30_KcPSA_EEET_DpOT0_, symObjAddr: 0x12B88, symBinAddr: 0x6AB78, symSize: 0xE0 }
  - { offset: 0x3A5AB0, size: 0x8, addend: 0x0, symName: __ZN8nlohmann16json_abi_v3_11_26detail20from_json_array_implINS0_10basic_jsonINSt3__13mapENS4_6vectorENS4_12basic_stringIcNS4_11char_traitsIcEENS4_9allocatorIcEEEEbxydSA_NS0_14adl_serializerENS6_IhNSA_IhEEEEEENS6_IiNSA_IiEEEELi0EEEDTcmcmcldtfp0_7reserveclsr3stdE7declvalINT0_9size_typeEEEEcldtfp_3getINSJ_10value_typeEEEcvv_EERKT_RSJ_NS1_12priority_tagILj1EEE, symObjAddr: 0x14EC4, symBinAddr: 0x6CD74, symSize: 0x240 }
  - { offset: 0x3A738E, size: 0x8, addend: 0x0, symName: __ZTVN3nam7wavenet7WaveNetE, symObjAddr: 0x18C08, symBinAddr: 0x124B38, symSize: 0x0 }
  - { offset: 0x3C5F0B, size: 0x8, addend: 0x0, symName: __ZTVN3nam7wavenet13WaveNetConfigE, symObjAddr: 0x18D58, symBinAddr: 0x124C88, symSize: 0x0 }
  - { offset: 0x3C61F1, size: 0x8, addend: 0x0, symName: __ZTVNSt3__110__function6__funcIPFNS_10unique_ptrIN3nam11ModelConfigENS_14default_deleteIS4_EEEERKN8nlohmann16json_abi_v3_11_210basic_jsonINS_3mapENS_6vectorENS_12basic_stringIcNS_11char_traitsIcEENS_9allocatorIcEEEEbxydSG_NS9_14adl_serializerENSC_IhNSG_IhEEEEEEdESP_EE, symObjAddr: 0x18C98, symBinAddr: 0x124BC8, symSize: 0x0 }
  - { offset: 0x3C6AAD, size: 0x8, addend: 0x0, symName: __ZNSt3__110shared_ptrIN3nam11activations10ActivationEED1B9nqe210106Ev, symObjAddr: 0x0, symBinAddr: 0x58044, symSize: 0x5C }
  - { offset: 0x3C6CA8, size: 0x8, addend: 0x0, symName: __ZNSt3__16vectorINS_10shared_ptrIN3nam11activations10ActivationEEENS_9allocatorIS5_EEED1B9nqe210106Ev, symObjAddr: 0x5C, symBinAddr: 0x580A0, symSize: 0x98 }
  - { offset: 0x3C7003, size: 0x8, addend: 0x0, symName: __ZNSt3__16vectorIN3nam6Conv1DENS_9allocatorIS2_EEED1B9nqe210106Ev, symObjAddr: 0xF4, symBinAddr: 0x58138, symSize: 0x58 }
  - { offset: 0x3C71A0, size: 0x8, addend: 0x0, symName: __ZN3nam6Conv1DD2Ev, symObjAddr: 0x11F90, symBinAddr: 0x69FA8, symSize: 0xCC }
  - { offset: 0x3C9862, size: 0x8, addend: 0x0, symName: __ZN3nam7wavenet6detail5Layer7ProcessERKN5Eigen6MatrixIfLin1ELin1ELi0ELin1ELin1EEES7_iPKf, symObjAddr: 0x14C, symBinAddr: 0x58190, symSize: 0x1AE8 }
  - { offset: 0x3D524E, size: 0x8, addend: 0x0, symName: __ZN3nam4FiLM7ProcessERKN5Eigen3RefIKNS1_6MatrixIfLin1ELin1ELi0ELin1ELin1EEELi0ENS1_11OuterStrideILin1EEEEESA_i, symObjAddr: 0x1C34, symBinAddr: 0x59C78, symSize: 0xC1C }
  - { offset: 0x3D556C, size: 0x8, addend: 0x0, symName: __ZN3nam4FiLM8Process_EN5Eigen3RefINS1_6MatrixIfLin1ELin1ELi0ELin1ELin1EEELi0ENS1_11OuterStrideILin1EEEEERKNS2_IKS4_Li0ES6_EEi, symObjAddr: 0x2850, symBinAddr: 0x5A894, symSize: 0x2D4 }
  - { offset: 0x3D80B0, size: 0x8, addend: 0x0, symName: __ZN3nam7wavenet6detail10LayerArrayC2ERKNS0_16LayerArrayParamsE, symObjAddr: 0x2B24, symBinAddr: 0x5AB68, symSize: 0x17E4 }
  - { offset: 0x3E06E3, size: 0x8, addend: 0x0, symName: __ZN3nam6Conv1DC2Eiiiiii, symObjAddr: 0x120F0, symBinAddr: 0x6A108, symSize: 0xDC }
  - { offset: 0x3E0BD0, size: 0x8, addend: 0x0, symName: __ZN5Eigen8internal17DenseStorage_implIfLin1ELin1ELin1ELi0EE6resizeElll, symObjAddr: 0x1205C, symBinAddr: 0x6A074, symSize: 0x94 }
  - { offset: 0x3E0D66, size: 0x8, addend: 0x0, symName: __ZNKSt3__114default_deleteIN3nam18gating_activations16GatingActivationEEclB9nqe210106EPS3_, symObjAddr: 0x12280, symBinAddr: 0x6A284, symSize: 0xA8 }
  - { offset: 0x3E1181, size: 0x8, addend: 0x0, symName: __ZN3nam18gating_activations18BlendingActivationD2Ev, symObjAddr: 0x12328, symBinAddr: 0x6A32C, symSize: 0xB4 }
  - { offset: 0x3E16AD, size: 0x8, addend: 0x0, symName: __ZNSt3__110unique_ptrIN3nam4FiLMENS_14default_deleteIS2_EEE5resetB9nqe210106EPS2_, symObjAddr: 0x123DC, symBinAddr: 0x6A3E0, symSize: 0x70 }
  - { offset: 0x3E1DCF, size: 0x8, addend: 0x0, symName: __ZN3nam7wavenet6detail5LayerD2Ev, symObjAddr: 0x1244C, symBinAddr: 0x6A450, symSize: 0x1B0 }
  - { offset: 0x3E36D6, size: 0x8, addend: 0x0, symName: __ZNSt3__110unique_ptrIN3nam18gating_activations18BlendingActivationENS_14default_deleteIS3_EEED1B9nqe210106Ev, symObjAddr: 0x12244, symBinAddr: 0x6A248, symSize: 0x3C }
  - { offset: 0x3E37A3, size: 0x8, addend: 0x0, symName: __ZNSt3__110unique_ptrIN3nam7Conv1x1ENS_14default_deleteIS2_EEED1B9nqe210106Ev, symObjAddr: 0x121E0, symBinAddr: 0x6A1E4, symSize: 0x64 }
  - { offset: 0x3E3D77, size: 0x8, addend: 0x0, symName: __ZN3nam7Conv1x1D1Ev, symObjAddr: 0x43C8, symBinAddr: 0x5C40C, symSize: 0x50 }
  - { offset: 0x3E42B3, size: 0x8, addend: 0x0, symName: __ZN3nam7wavenet11LayerParamsD1Ev, symObjAddr: 0x4308, symBinAddr: 0x5C34C, symSize: 0x68 }
  - { offset: 0x3E47C4, size: 0x8, addend: 0x0, symName: __ZNSt3__16vectorIN3nam7wavenet6detail5LayerENS_9allocatorIS4_EEED1B9nqe210106Ev, symObjAddr: 0x4370, symBinAddr: 0x5C3B4, symSize: 0x58 }
  - { offset: 0x3E4A6C, size: 0x8, addend: 0x0, symName: __ZN3nam7wavenet6detail10LayerArray12ProcessInnerERKN5Eigen6MatrixIfLin1ELin1ELi0ELin1ELin1EEES7_iPKfi, symObjAddr: 0x4418, symBinAddr: 0x5C45C, symSize: 0x414 }
  - { offset: 0x3E6908, size: 0x8, addend: 0x0, symName: __ZN3nam7wavenet7WaveNetC2EiRKNSt3__16vectorINS0_16LayerArrayParamsENS2_9allocatorIS4_EEEEfbNS2_8optionalINS0_10HeadParamsEEENS3_IfNS5_IfEEEENS2_10unique_ptrINS_3DSPENS2_14default_deleteISG_EEEEdNS0_16RateConditionMLPE, symObjAddr: 0x482C, symBinAddr: 0x5C870, symSize: 0x36B0 }
  - { offset: 0x3ECA97, size: 0x8, addend: 0x0, symName: __ZNKSt3__114default_deleteIN3nam7wavenet6detail4HeadEEclB9nqe210106EPS4_, symObjAddr: 0x16108, symBinAddr: 0x6DD28, symSize: 0xD0 }
  - { offset: 0x3ECE99, size: 0x8, addend: 0x0, symName: __ZNSt3__16vectorIN3nam7wavenet6detail10LayerArrayENS_9allocatorIS4_EEE24__emplace_back_slow_pathIJS4_EEEPS4_DpOT_, symObjAddr: 0x125FC, symBinAddr: 0x6A600, symSize: 0x150 }
  - { offset: 0x3ED321, size: 0x8, addend: 0x0, symName: __ZN3nam7wavenet6detail10LayerArrayD2Ev, symObjAddr: 0x128C4, symBinAddr: 0x6A8B4, symSize: 0xA8 }
  - { offset: 0x3EDCEC, size: 0x8, addend: 0x0, symName: __ZN3nam7wavenet16RateConditionMLPD1Ev, symObjAddr: 0x7EDC, symBinAddr: 0x5FF20, symSize: 0x80 }
  - { offset: 0x3EE3E7, size: 0x8, addend: 0x0, symName: __ZNSt3__16vectorIN3nam7wavenet6detail10LayerArrayENS_9allocatorIS4_EEED1B9nqe210106Ev, symObjAddr: 0x7F5C, symBinAddr: 0x5FFA0, symSize: 0x58 }
  - { offset: 0x3EEBFF, size: 0x8, addend: 0x0, symName: __ZN3nam7wavenet7WaveNet16SetMaxBufferSizeEi, symObjAddr: 0x7FB8, symBinAddr: 0x5FFF8, symSize: 0x132C }
  - { offset: 0x3F3771, size: 0x8, addend: 0x0, symName: __ZN3nam7wavenet7WaveNet18_process_conditionEi, symObjAddr: 0x92E4, symBinAddr: 0x61324, symSize: 0x4E8 }
  - { offset: 0x3F408E, size: 0x8, addend: 0x0, symName: __ZN3nam7wavenet7WaveNet20_set_condition_arrayEPPdi, symObjAddr: 0x97CC, symBinAddr: 0x6180C, symSize: 0x138 }
  - { offset: 0x3F453F, size: 0x8, addend: 0x0, symName: __ZN3nam7wavenet7WaveNet7processEPPdS3_i, symObjAddr: 0x9904, symBinAddr: 0x61944, symSize: 0xD70 }
  - { offset: 0x3F99CA, size: 0x8, addend: 0x0, symName: __ZNK8nlohmann16json_abi_v3_11_210basic_jsonINSt3__13mapENS2_6vectorENS2_12basic_stringIcNS2_11char_traitsIcEENS2_9allocatorIcEEEEbxydS8_NS0_14adl_serializerENS4_IhNS8_IhEEEEEixEm, symObjAddr: 0xFFC4, symBinAddr: 0x68004, symSize: 0xE4 }
  - { offset: 0x3F9B53, size: 0x8, addend: 0x0, symName: __ZNK8nlohmann16json_abi_v3_11_210basic_jsonINSt3__13mapENS2_6vectorENS2_12basic_stringIcNS2_11char_traitsIcEENS2_9allocatorIcEEEEbxydS8_NS0_14adl_serializerENS4_IhNS8_IhEEEEE5valueIiRA13_KciLi0EEET1_OT0_OT_, symObjAddr: 0x100A8, symBinAddr: 0x680E8, symSize: 0x198 }
  - { offset: 0x3FA09C, size: 0x8, addend: 0x0, symName: __ZNK8nlohmann16json_abi_v3_11_210basic_jsonINSt3__13mapENS2_6vectorENS2_12basic_stringIcNS2_11char_traitsIcEENS2_9allocatorIcEEEEbxydS8_NS0_14adl_serializerENS4_IhNS8_IhEEEEE5valueIiRA19_KciLi0EEET1_OT0_OT_, symObjAddr: 0x10240, symBinAddr: 0x68280, symSize: 0x198 }
  - { offset: 0x3FA7FD, size: 0x8, addend: 0x0, symName: __ZNK8nlohmann16json_abi_v3_11_210basic_jsonINSt3__13mapENS2_6vectorENS2_12basic_stringIcNS2_11char_traitsIcEENS2_9allocatorIcEEEEbxydS8_NS0_14adl_serializerENS4_IhNS8_IhEEEEE8get_implIbLi0EEET_NS0_6detail12priority_tagILj0EEE, symObjAddr: 0x12AAC, symBinAddr: 0x6AA9C, symSize: 0xDC }
  - { offset: 0x3FABF3, size: 0x8, addend: 0x0, symName: __ZNK8nlohmann16json_abi_v3_11_210basic_jsonINSt3__13mapENS2_6vectorENS2_12basic_stringIcNS2_11char_traitsIcEENS2_9allocatorIcEEEEbxydS8_NS0_14adl_serializerENS4_IhNS8_IhEEEEE2atIRA13_KcLi0EEERKSE_OT_, symObjAddr: 0x103D8, symBinAddr: 0x68418, symSize: 0x198 }
  - { offset: 0x3FB455, size: 0x8, addend: 0x0, symName: __ZNSt3__16vectorIN3nam11activations16ActivationConfigENS_9allocatorIS3_EEE8__appendEmRKS3_, symObjAddr: 0x12F44, symBinAddr: 0x6AF20, symSize: 0x25C }
  - { offset: 0x3FBF5E, size: 0x8, addend: 0x0, symName: '__ZZN3nam7wavenet17parse_config_jsonERKN8nlohmann16json_abi_v3_11_210basic_jsonINSt3__13mapENS4_6vectorENS4_12basic_stringIcNS4_11char_traitsIcEENS4_9allocatorIcEEEEbxydSA_NS2_14adl_serializerENS6_IhNSA_IhEEEEEEdENK3$_0clERKSC_', symObjAddr: 0x10570, symBinAddr: 0x685B0, symSize: 0x1F0 }
  - { offset: 0x3FC344, size: 0x8, addend: 0x0, symName: __ZNSt3__16vectorIN3nam7wavenet10GatingModeENS_9allocatorIS3_EEE8__appendEmRKS3_, symObjAddr: 0x132A4, symBinAddr: 0x6B26C, symSize: 0x240 }
  - { offset: 0x3FC9DC, size: 0x8, addend: 0x0, symName: __ZNSt3__16vectorIN3nam11activations16ActivationConfigENS_9allocatorIS3_EEE24__emplace_back_slow_pathIJS3_EEEPS3_DpOT_, symObjAddr: 0x12C68, symBinAddr: 0x6AC58, symSize: 0x1EC }
  - { offset: 0x3FD77F, size: 0x8, addend: 0x0, symName: '__ZZN3nam7wavenet17parse_config_jsonERKN8nlohmann16json_abi_v3_11_210basic_jsonINSt3__13mapENS4_6vectorENS4_12basic_stringIcNS4_11char_traitsIcEENS4_9allocatorIcEEEEbxydSA_NS2_14adl_serializerENS6_IhNSA_IhEEEEEEdENK3$_1clERKSC_', symObjAddr: 0x10760, symBinAddr: 0x687A0, symSize: 0x3E4 }
  - { offset: 0x3FE5AA, size: 0x8, addend: 0x0, symName: __ZN3nam7wavenet16LayerArrayParamsC2EiiiiiiOKNSt3__16vectorIiNS2_9allocatorIiEEEES8_OKNS3_INS_11activations16ActivationConfigENS4_ISA_EEEEOKNS3_INS0_10GatingModeENS4_ISF_EEEEbiiRKNS0_14Layer1x1ParamsERKNS0_13Head1x1ParamsESE_RKNS0_11_FiLMParamsESS_SS_SS_SS_SS_SS_SS_, symObjAddr: 0x140B4, symBinAddr: 0x6BF64, symSize: 0x9AC }
  - { offset: 0x4002C3, size: 0x8, addend: 0x0, symName: __ZNSt3__16vectorIN3nam7wavenet16LayerArrayParamsENS_9allocatorIS3_EEE24__emplace_back_slow_pathIJS3_EEEPS3_DpOT_, symObjAddr: 0x13D1C, symBinAddr: 0x6BBE0, symSize: 0x1C8 }
  - { offset: 0x4007FA, size: 0x8, addend: 0x0, symName: __ZN3nam7wavenet16LayerArrayParamsD2Ev, symObjAddr: 0x14CEC, symBinAddr: 0x6CB9C, symSize: 0x100 }
  - { offset: 0x4012F4, size: 0x8, addend: 0x0, symName: __ZNK8nlohmann16json_abi_v3_11_210basic_jsonINSt3__13mapENS2_6vectorENS2_12basic_stringIcNS2_11char_traitsIcEENS2_9allocatorIcEEEEbxydS8_NS0_14adl_serializerENS4_IhNS8_IhEEEEE5valueIiRA12_KciLi0EEET1_OT0_OT_, symObjAddr: 0x10BC0, symBinAddr: 0x68C00, symSize: 0x198 }
  - { offset: 0x401821, size: 0x8, addend: 0x0, symName: __ZN8nlohmann16json_abi_v3_11_26detail12out_of_range6createIPKNS0_10basic_jsonINSt3__13mapENS5_6vectorENS5_12basic_stringIcNS5_11char_traitsIcEENS5_9allocatorIcEEEEbxydSB_NS0_14adl_serializerENS7_IhNSB_IhEEEEEELi0EEES2_iRKSD_T_, symObjAddr: 0x168AC, symBinAddr: 0x6DFB8, symSize: 0x1D0 }
  - { offset: 0x40246E, size: 0x8, addend: 0x0, symName: __ZN3nam7wavenet10HeadParamsD1Ev, symObjAddr: 0x10D58, symBinAddr: 0x68D98, symSize: 0x4C }
  - { offset: 0x402E46, size: 0x8, addend: 0x0, symName: __ZNK8nlohmann16json_abi_v3_11_210basic_jsonINSt3__13mapENS2_6vectorENS2_12basic_stringIcNS2_11char_traitsIcEENS2_9allocatorIcEEEEbxydS8_NS0_14adl_serializerENS4_IhNS8_IhEEEEEeqERKSE_, symObjAddr: 0x13810, symBinAddr: 0x6B7D8, symSize: 0x408 }
  - { offset: 0x403778, size: 0x8, addend: 0x0, symName: __ZNK8nlohmann16json_abi_v3_11_210basic_jsonINSt3__13mapENS2_6vectorENS2_12basic_stringIcNS2_11char_traitsIcEENS2_9allocatorIcEEEEbxydS8_NS0_14adl_serializerENS4_IhNS8_IhEEEEE5valueIbRA7_KcbLi0EEET1_OT0_OT_, symObjAddr: 0x134E4, symBinAddr: 0x6B4AC, symSize: 0x194 }
  - { offset: 0x403C1E, size: 0x8, addend: 0x0, symName: __ZNK8nlohmann16json_abi_v3_11_210basic_jsonINSt3__13mapENS2_6vectorENS2_12basic_stringIcNS2_11char_traitsIcEENS2_9allocatorIcEEEEbxydS8_NS0_14adl_serializerENS4_IhNS8_IhEEEEE5valueIiRA7_KciLi0EEET1_OT0_OT_, symObjAddr: 0x13678, symBinAddr: 0x6B640, symSize: 0x198 }
  - { offset: 0x40413F, size: 0x8, addend: 0x0, symName: __ZNSt3__16vectorIN3nam11activations16ActivationConfigENS_9allocatorIS3_EEED1B9nqe210106Ev, symObjAddr: 0x10B44, symBinAddr: 0x68B84, symSize: 0x7C }
  - { offset: 0x4044F1, size: 0x8, addend: 0x0, symName: __ZN3nam7wavenet13WaveNetConfigD1Ev, symObjAddr: 0x10DA4, symBinAddr: 0x68DE4, symSize: 0xB4 }
  - { offset: 0x40510C, size: 0x8, addend: 0x0, symName: __ZN3nam7wavenet13WaveNetConfig6createENSt3__16vectorIfNS2_9allocatorIfEEEEd, symObjAddr: 0x10E58, symBinAddr: 0x68E98, symSize: 0x57C }
  - { offset: 0x407C28, size: 0x8, addend: 0x0, symName: __ZNSt3__18optionalIN3nam7wavenet10HeadParamsEED1Ev, symObjAddr: 0x15300, symBinAddr: 0x6D1B0, symSize: 0x68 }
  - { offset: 0x407C4E, size: 0x8, addend: 0x0, symName: __ZNSt3__18optionalIN3nam7wavenet10HeadParamsEED1Ev, symObjAddr: 0x15300, symBinAddr: 0x6D1B0, symSize: 0x68 }
  - { offset: 0x407C6E, size: 0x8, addend: 0x0, symName: __ZNSt3__18optionalIN3nam7wavenet10HeadParamsEED1Ev, symObjAddr: 0x15300, symBinAddr: 0x6D1B0, symSize: 0x68 }
  - { offset: 0x407C8E, size: 0x8, addend: 0x0, symName: __ZNSt3__18optionalIN3nam7wavenet10HeadParamsEED1Ev, symObjAddr: 0x15300, symBinAddr: 0x6D1B0, symSize: 0x68 }
  - { offset: 0x407CAE, size: 0x8, addend: 0x0, symName: __ZNSt3__18optionalIN3nam7wavenet10HeadParamsEED1Ev, symObjAddr: 0x15300, symBinAddr: 0x6D1B0, symSize: 0x68 }
  - { offset: 0x407CCE, size: 0x8, addend: 0x0, symName: __ZNSt3__18optionalIN3nam7wavenet10HeadParamsEED1Ev, symObjAddr: 0x15300, symBinAddr: 0x6D1B0, symSize: 0x68 }
  - { offset: 0x407CEE, size: 0x8, addend: 0x0, symName: __ZNSt3__18optionalIN3nam7wavenet10HeadParamsEED1Ev, symObjAddr: 0x15300, symBinAddr: 0x6D1B0, symSize: 0x68 }
  - { offset: 0x407D0E, size: 0x8, addend: 0x0, symName: __ZNSt3__18optionalIN3nam7wavenet10HeadParamsEED1Ev, symObjAddr: 0x15300, symBinAddr: 0x6D1B0, symSize: 0x68 }
  - { offset: 0x4083CA, size: 0x8, addend: 0x0, symName: __ZN3nam7wavenet13WaveNetConfigD0Ev, symObjAddr: 0x11DE4, symBinAddr: 0x69E24, symSize: 0xB4 }
  - { offset: 0x408B5A, size: 0x8, addend: 0x0, symName: __ZN3nam7wavenet7WaveNetD1Ev, symObjAddr: 0x11DBC, symBinAddr: 0x69DFC, symSize: 0x4 }
  - { offset: 0x408B7E, size: 0x8, addend: 0x0, symName: __ZN3nam7wavenet7WaveNetD1Ev, symObjAddr: 0x11DBC, symBinAddr: 0x69DFC, symSize: 0x4 }
  - { offset: 0x408B89, size: 0x8, addend: 0x0, symName: __ZN3nam7wavenet7WaveNetD2Ev, symObjAddr: 0x15F28, symBinAddr: 0x6DB48, symSize: 0x1E0 }
  - { offset: 0x40A1B8, size: 0x8, addend: 0x0, symName: __ZN3nam7wavenet7WaveNetD0Ev, symObjAddr: 0x11DC0, symBinAddr: 0x69E00, symSize: 0x14 }
  - { offset: 0x40A20D, size: 0x8, addend: 0x0, symName: __ZN3nam7wavenet7WaveNet14PrewarmSamplesEv, symObjAddr: 0x11DD4, symBinAddr: 0x69E14, symSize: 0x8 }
  - { offset: 0x40A234, size: 0x8, addend: 0x0, symName: __ZNK3nam7wavenet7WaveNet18_get_condition_dimEv, symObjAddr: 0x11DDC, symBinAddr: 0x69E1C, symSize: 0x8 }
  - { offset: 0x40A25E, size: 0x8, addend: 0x0, symName: __ZNK3nam7wavenet7WaveNet18_get_condition_dimEv, symObjAddr: 0x11DDC, symBinAddr: 0x69E1C, symSize: 0x8 }
  - { offset: 0x40A279, size: 0x8, addend: 0x0, symName: __ZNSt3__16vectorIN5Eigen6MatrixIfLin1ELi1ELi0ELin1ELi1EEENS_9allocatorIS3_EEED1B9nqe210106Ev, symObjAddr: 0x11EAC, symBinAddr: 0x69ED8, symSize: 0x68 }
  - { offset: 0x40A533, size: 0x8, addend: 0x0, symName: __ZNSt3__16vectorIN5Eigen6MatrixIfLin1ELin1ELi0ELin1ELin1EEENS_9allocatorIS3_EEED1B9nqe210106Ev, symObjAddr: 0x11F14, symBinAddr: 0x69F40, symSize: 0x68 }
  - { offset: 0x40ACB9, size: 0x8, addend: 0x0, symName: __ZNSt3__114__split_bufferIN3nam11activations16ActivationConfigERNS_9allocatorIS3_EEED1Ev, symObjAddr: 0x12E54, symBinAddr: 0x6AE44, symSize: 0x70 }
  - { offset: 0x40B046, size: 0x8, addend: 0x0, symName: __ZNSt3__128__exception_guard_exceptionsINS_29_AllocatorDestroyRangeReverseINS_9allocatorIN3nam11activations16ActivationConfigEEEPS5_EEED1B9nqe210106Ev, symObjAddr: 0x12ED8, symBinAddr: 0x6AEB4, symSize: 0x6C }
  - { offset: 0x40BC72, size: 0x8, addend: 0x0, symName: __ZNSt3__16vectorIN3nam7wavenet16LayerArrayParamsENS_9allocatorIS3_EEE26__swap_out_circular_bufferERNS_14__split_bufferIS3_RS5_EE, symObjAddr: 0x13EE4, symBinAddr: 0x6BDA8, symSize: 0x16C }
  - { offset: 0x40C0DB, size: 0x8, addend: 0x0, symName: __ZNSt3__114__split_bufferIN3nam7wavenet16LayerArrayParamsERNS_9allocatorIS3_EEED1Ev, symObjAddr: 0x14050, symBinAddr: 0x6BF14, symSize: 0x50 }
  - { offset: 0x40C66F, size: 0x8, addend: 0x0, symName: __ZNSt3__16vectorIN3nam11activations16ActivationConfigENS_9allocatorIS3_EEE16__init_with_sizeB9nqe210106IPS3_S8_EEvT_T0_m, symObjAddr: 0x14A60, symBinAddr: 0x6C910, symSize: 0x110 }
  - { offset: 0x40CBAE, size: 0x8, addend: 0x0, symName: __ZNSt3__128__exception_guard_exceptionsINS_6vectorIN3nam11activations16ActivationConfigENS_9allocatorIS4_EEE16__destroy_vectorEED1B9nqe210106Ev, symObjAddr: 0x14B70, symBinAddr: 0x6CA20, symSize: 0x8C }
  - { offset: 0x40D04E, size: 0x8, addend: 0x0, symName: __ZNSt3__16vectorIiNS_9allocatorIiEEE6insertENS_11__wrap_iterIPKiEEOi, symObjAddr: 0x15104, symBinAddr: 0x6CFB4, symSize: 0x1FC }
  - { offset: 0x40DD90, size: 0x8, addend: 0x0, symName: __ZN3nam18ConfigParserHelperC2ERKNSt3__112basic_stringIcNS1_11char_traitsIcEENS1_9allocatorIcEEEENS1_8functionIFNS1_10unique_ptrINS_11ModelConfigENS1_14default_deleteISC_EEEERKN8nlohmann16json_abi_v3_11_210basic_jsonINS1_3mapENS1_6vectorES7_bxydS5_NSH_14adl_serializerENSK_IhNS5_IhEEEEEEdEEE, symObjAddr: 0x1546C, symBinAddr: 0x6D218, symSize: 0x180 }
  - { offset: 0x40E0A1, size: 0x8, addend: 0x0, symName: __ZN3nam20ConfigParserRegistry14registerParserERKNSt3__112basic_stringIcNS1_11char_traitsIcEENS1_9allocatorIcEEEENS1_8functionIFNS1_10unique_ptrINS_11ModelConfigENS1_14default_deleteISC_EEEERKN8nlohmann16json_abi_v3_11_210basic_jsonINS1_3mapENS1_6vectorES7_bxydS5_NSH_14adl_serializerENSK_IhNS5_IhEEEEEEdEEE, symObjAddr: 0x155EC, symBinAddr: 0x6D398, symSize: 0x16C }
  - { offset: 0x40E385, size: 0x8, addend: 0x0, symName: __ZNSt3__112__hash_tableINS_17__hash_value_typeINS_12basic_stringIcNS_11char_traitsIcEENS_9allocatorIcEEEENS_8functionIFNS_10unique_ptrIN3nam11ModelConfigENS_14default_deleteISB_EEEERKN8nlohmann16json_abi_v3_11_210basic_jsonINS_3mapENS_6vectorES7_bxydS5_NSG_14adl_serializerENSJ_IhNS5_IhEEEEEEdEEEEENS_22__unordered_map_hasherIS7_NS_4pairIKS7_SR_EENS_4hashIS7_EENS_8equal_toIS7_EELb1EEENS_21__unordered_map_equalIS7_SW_S10_SY_Lb1EEENS5_ISW_EEE4findIS7_EENS_15__hash_iteratorIPNS_11__hash_nodeISS_PvEEEERKT_, symObjAddr: 0x15758, symBinAddr: 0x6D504, symSize: 0x1BC }
  - { offset: 0x40E6CE, size: 0x8, addend: 0x0, symName: __ZNSt3__112__hash_tableINS_17__hash_value_typeINS_12basic_stringIcNS_11char_traitsIcEENS_9allocatorIcEEEENS_8functionIFNS_10unique_ptrIN3nam11ModelConfigENS_14default_deleteISB_EEEERKN8nlohmann16json_abi_v3_11_210basic_jsonINS_3mapENS_6vectorES7_bxydS5_NSG_14adl_serializerENSJ_IhNS5_IhEEEEEEdEEEEENS_22__unordered_map_hasherIS7_NS_4pairIKS7_SR_EENS_4hashIS7_EENS_8equal_toIS7_EELb1EEENS_21__unordered_map_equalIS7_SW_S10_SY_Lb1EEENS5_ISW_EEE25__emplace_unique_key_argsIS7_JRKNS_21piecewise_construct_tENS_5tupleIJRSV_EEENS1A_IJEEEEEENSU_INS_15__hash_iteratorIPNS_11__hash_nodeISS_PvEEEEbEERKT_DpOT0_, symObjAddr: 0x15914, symBinAddr: 0x6D6C0, symSize: 0x40C }
  - { offset: 0x40F862, size: 0x8, addend: 0x0, symName: __ZNSt3__110unique_ptrINS_11__hash_nodeINS_17__hash_value_typeINS_12basic_stringIcNS_11char_traitsIcEENS_9allocatorIcEEEENS_8functionIFNS0_IN3nam11ModelConfigENS_14default_deleteISB_EEEERKN8nlohmann16json_abi_v3_11_210basic_jsonINS_3mapENS_6vectorES8_bxydS6_NSG_14adl_serializerENSJ_IhNS6_IhEEEEEEdEEEEEPvEENS_22__hash_node_destructorINS6_ISU_EEEEED1B9nqe210106Ev, symObjAddr: 0x15D20, symBinAddr: 0x6DACC, symSize: 0x7C }
  - { offset: 0x4107E5, size: 0x8, addend: 0x0, symName: __ZNSt3__110__function6__funcIPFNS_10unique_ptrIN3nam11ModelConfigENS_14default_deleteIS4_EEEERKN8nlohmann16json_abi_v3_11_210basic_jsonINS_3mapENS_6vectorENS_12basic_stringIcNS_11char_traitsIcEENS_9allocatorIcEEEEbxydSG_NS9_14adl_serializerENSC_IhNSG_IhEEEEEEdESP_ED1Ev, symObjAddr: 0x16C98, symBinAddr: 0x6E2A0, symSize: 0x4 }
  - { offset: 0x410814, size: 0x8, addend: 0x0, symName: __ZNSt3__110__function6__funcIPFNS_10unique_ptrIN3nam11ModelConfigENS_14default_deleteIS4_EEEERKN8nlohmann16json_abi_v3_11_210basic_jsonINS_3mapENS_6vectorENS_12basic_stringIcNS_11char_traitsIcEENS_9allocatorIcEEEEbxydSG_NS9_14adl_serializerENSC_IhNSG_IhEEEEEEdESP_ED0Ev, symObjAddr: 0x16C9C, symBinAddr: 0x6E2A4, symSize: 0x4 }
  - { offset: 0x410891, size: 0x8, addend: 0x0, symName: __ZNKSt3__110__function6__funcIPFNS_10unique_ptrIN3nam11ModelConfigENS_14default_deleteIS4_EEEERKN8nlohmann16json_abi_v3_11_210basic_jsonINS_3mapENS_6vectorENS_12basic_stringIcNS_11char_traitsIcEENS_9allocatorIcEEEEbxydSG_NS9_14adl_serializerENSC_IhNSG_IhEEEEEEdESP_E7__cloneEv, symObjAddr: 0x16CA0, symBinAddr: 0x6E2A8, symSize: 0x34 }
  - { offset: 0x410908, size: 0x8, addend: 0x0, symName: __ZNKSt3__110__function6__funcIPFNS_10unique_ptrIN3nam11ModelConfigENS_14default_deleteIS4_EEEERKN8nlohmann16json_abi_v3_11_210basic_jsonINS_3mapENS_6vectorENS_12basic_stringIcNS_11char_traitsIcEENS_9allocatorIcEEEEbxydSG_NS9_14adl_serializerENSC_IhNSG_IhEEEEEEdESP_E7__cloneEPNS0_6__baseISP_EE, symObjAddr: 0x16CD4, symBinAddr: 0x6E2DC, symSize: 0x14 }
  - { offset: 0x41093E, size: 0x8, addend: 0x0, symName: __ZNKSt3__110__function6__funcIPFNS_10unique_ptrIN3nam11ModelConfigENS_14default_deleteIS4_EEEERKN8nlohmann16json_abi_v3_11_210basic_jsonINS_3mapENS_6vectorENS_12basic_stringIcNS_11char_traitsIcEENS_9allocatorIcEEEEbxydSG_NS9_14adl_serializerENSC_IhNSG_IhEEEEEEdESP_E7__cloneEPNS0_6__baseISP_EE, symObjAddr: 0x16CD4, symBinAddr: 0x6E2DC, symSize: 0x14 }
  - { offset: 0x410965, size: 0x8, addend: 0x0, symName: __ZNKSt3__110__function6__funcIPFNS_10unique_ptrIN3nam11ModelConfigENS_14default_deleteIS4_EEEERKN8nlohmann16json_abi_v3_11_210basic_jsonINS_3mapENS_6vectorENS_12basic_stringIcNS_11char_traitsIcEENS_9allocatorIcEEEEbxydSG_NS9_14adl_serializerENSC_IhNSG_IhEEEEEEdESP_E7__cloneEPNS0_6__baseISP_EE, symObjAddr: 0x16CD4, symBinAddr: 0x6E2DC, symSize: 0x14 }
  - { offset: 0x41098B, size: 0x8, addend: 0x0, symName: __ZNSt3__110__function6__funcIPFNS_10unique_ptrIN3nam11ModelConfigENS_14default_deleteIS4_EEEERKN8nlohmann16json_abi_v3_11_210basic_jsonINS_3mapENS_6vectorENS_12basic_stringIcNS_11char_traitsIcEENS_9allocatorIcEEEEbxydSG_NS9_14adl_serializerENSC_IhNSG_IhEEEEEEdESP_E7destroyEv, symObjAddr: 0x16CE8, symBinAddr: 0x6E2F0, symSize: 0x4 }
  - { offset: 0x4109B0, size: 0x8, addend: 0x0, symName: __ZNSt3__110__function6__funcIPFNS_10unique_ptrIN3nam11ModelConfigENS_14default_deleteIS4_EEEERKN8nlohmann16json_abi_v3_11_210basic_jsonINS_3mapENS_6vectorENS_12basic_stringIcNS_11char_traitsIcEENS_9allocatorIcEEEEbxydSG_NS9_14adl_serializerENSC_IhNSG_IhEEEEEEdESP_E18destroy_deallocateEv, symObjAddr: 0x16CEC, symBinAddr: 0x6E2F4, symSize: 0x14 }
  - { offset: 0x410A2F, size: 0x8, addend: 0x0, symName: __ZNSt3__110__function6__funcIPFNS_10unique_ptrIN3nam11ModelConfigENS_14default_deleteIS4_EEEERKN8nlohmann16json_abi_v3_11_210basic_jsonINS_3mapENS_6vectorENS_12basic_stringIcNS_11char_traitsIcEENS_9allocatorIcEEEEbxydSG_NS9_14adl_serializerENSC_IhNSG_IhEEEEEEdESP_EclESO_Od, symObjAddr: 0x16D00, symBinAddr: 0x6E308, symSize: 0x10 }
  - { offset: 0x410A77, size: 0x8, addend: 0x0, symName: __ZNSt3__110__function6__funcIPFNS_10unique_ptrIN3nam11ModelConfigENS_14default_deleteIS4_EEEERKN8nlohmann16json_abi_v3_11_210basic_jsonINS_3mapENS_6vectorENS_12basic_stringIcNS_11char_traitsIcEENS_9allocatorIcEEEEbxydSG_NS9_14adl_serializerENSC_IhNSG_IhEEEEEEdESP_EclESO_Od, symObjAddr: 0x16D00, symBinAddr: 0x6E308, symSize: 0x10 }
  - { offset: 0x410AA6, size: 0x8, addend: 0x0, symName: __ZNSt3__110__function6__funcIPFNS_10unique_ptrIN3nam11ModelConfigENS_14default_deleteIS4_EEEERKN8nlohmann16json_abi_v3_11_210basic_jsonINS_3mapENS_6vectorENS_12basic_stringIcNS_11char_traitsIcEENS_9allocatorIcEEEEbxydSG_NS9_14adl_serializerENSC_IhNSG_IhEEEEEEdESP_EclESO_Od, symObjAddr: 0x16D00, symBinAddr: 0x6E308, symSize: 0x10 }
  - { offset: 0x410AD6, size: 0x8, addend: 0x0, symName: __ZNSt3__110__function6__funcIPFNS_10unique_ptrIN3nam11ModelConfigENS_14default_deleteIS4_EEEERKN8nlohmann16json_abi_v3_11_210basic_jsonINS_3mapENS_6vectorENS_12basic_stringIcNS_11char_traitsIcEENS_9allocatorIcEEEEbxydSG_NS9_14adl_serializerENSC_IhNSG_IhEEEEEEdESP_EclESO_Od, symObjAddr: 0x16D00, symBinAddr: 0x6E308, symSize: 0x10 }
  - { offset: 0x410B6F, size: 0x8, addend: 0x0, symName: __ZNKSt3__110__function6__funcIPFNS_10unique_ptrIN3nam11ModelConfigENS_14default_deleteIS4_EEEERKN8nlohmann16json_abi_v3_11_210basic_jsonINS_3mapENS_6vectorENS_12basic_stringIcNS_11char_traitsIcEENS_9allocatorIcEEEEbxydSG_NS9_14adl_serializerENSC_IhNSG_IhEEEEEEdESP_E6targetERKSt9type_info, symObjAddr: 0x16D10, symBinAddr: 0x6E318, symSize: 0x60 }
  - { offset: 0x410C42, size: 0x8, addend: 0x0, symName: __ZNKSt3__110__function6__funcIPFNS_10unique_ptrIN3nam11ModelConfigENS_14default_deleteIS4_EEEERKN8nlohmann16json_abi_v3_11_210basic_jsonINS_3mapENS_6vectorENS_12basic_stringIcNS_11char_traitsIcEENS_9allocatorIcEEEEbxydSG_NS9_14adl_serializerENSC_IhNSG_IhEEEEEEdESP_E11target_typeEv, symObjAddr: 0x16D70, symBinAddr: 0x6E378, symSize: 0xC }
  - { offset: 0x410DC4, size: 0x8, addend: 0x0, symName: __GLOBAL__sub_I_model.cpp, symObjAddr: 0x17E60, symBinAddr: 0x6E384, symSize: 0x130 }
  - { offset: 0x414310, size: 0x8, addend: 0x0, symName: __ZN3nam17slimmable_wavenet16SlimmableWavenet14_rebuild_modelERKNSt3__16vectorIiNS2_9allocatorIiEEEE, symObjAddr: 0x0, symBinAddr: 0x6E4B4, symSize: 0x13D8 }
  - { offset: 0x41433B, size: 0x8, addend: 0x0, symName: __ZTVN3nam17slimmable_wavenet16SlimmableWavenetE, symObjAddr: 0x3500, symBinAddr: 0x124D00, symSize: 0x0 }
  - { offset: 0x414A46, size: 0x8, addend: 0x0, symName: __ZN3nam17slimmable_wavenet12_GLOBAL__N_115extract_conv1x1ERNSt3__111__wrap_iterIPKfEEiiiibRNS2_6vectorIfNS2_9allocatorIfEEEE, symObjAddr: 0x2CD8, symBinAddr: 0x71084, symSize: 0x26C }
  - { offset: 0x42D7ED, size: 0x8, addend: 0x0, symName: __ZTVN3nam17slimmable_wavenet22SlimmableWavenetConfigE, symObjAddr: 0x35C0, symBinAddr: 0x124DC0, symSize: 0x0 }
  - { offset: 0x42FD02, size: 0x8, addend: 0x0, symName: __ZN3nam17slimmable_wavenet16SlimmableWavenet14_rebuild_modelERKNSt3__16vectorIiNS2_9allocatorIiEEEE, symObjAddr: 0x0, symBinAddr: 0x6E4B4, symSize: 0x13D8 }
  - { offset: 0x4358C4, size: 0x8, addend: 0x0, symName: __ZNSt3__16vectorIN3nam7wavenet16LayerArrayParamsENS_9allocatorIS3_EEED1B9nqe210106Ev, symObjAddr: 0x144C, symBinAddr: 0x6F88C, symSize: 0x58 }
  - { offset: 0x435D01, size: 0x8, addend: 0x0, symName: __ZN3nam17slimmable_wavenet16SlimmableWavenet7processEPPdS3_i, symObjAddr: 0x14A4, symBinAddr: 0x6F8E4, symSize: 0x18 }
  - { offset: 0x435D5B, size: 0x8, addend: 0x0, symName: __ZN3nam17slimmable_wavenet16SlimmableWavenet7processEPPdS3_i, symObjAddr: 0x14A4, symBinAddr: 0x6F8E4, symSize: 0x18 }
  - { offset: 0x435D86, size: 0x8, addend: 0x0, symName: __ZN3nam17slimmable_wavenet16SlimmableWavenet7prewarmEv, symObjAddr: 0x14BC, symBinAddr: 0x6F8FC, symSize: 0x18 }
  - { offset: 0x435DB3, size: 0x8, addend: 0x0, symName: __ZN3nam17slimmable_wavenet16SlimmableWavenet7prewarmEv, symObjAddr: 0x14BC, symBinAddr: 0x6F8FC, symSize: 0x18 }
  - { offset: 0x435DDE, size: 0x8, addend: 0x0, symName: __ZN3nam17slimmable_wavenet16SlimmableWavenet5ResetEdi, symObjAddr: 0x14D4, symBinAddr: 0x6F914, symSize: 0x20 }
  - { offset: 0x435F47, size: 0x8, addend: 0x0, symName: __ZN3nam17slimmable_wavenet16SlimmableWavenet16SetSlimmableSizeEd, symObjAddr: 0x14F4, symBinAddr: 0x6F934, symSize: 0x134 }
  - { offset: 0x4363EA, size: 0x8, addend: 0x0, symName: __ZThn80_N3nam17slimmable_wavenet16SlimmableWavenet16SetSlimmableSizeEd, symObjAddr: 0x1628, symBinAddr: 0x6FA68, symSize: 0x8 }
  - { offset: 0x437CF8, size: 0x8, addend: 0x0, symName: __ZN3nam17slimmable_wavenet22SlimmableWavenetConfig6createENSt3__16vectorIfNS2_9allocatorIfEEEEd, symObjAddr: 0x1630, symBinAddr: 0x6FA70, symSize: 0x155C }
  - { offset: 0x43C720, size: 0x8, addend: 0x0, symName: __ZN3nam17slimmable_wavenet22SlimmableWavenetConfigD0Ev, symObjAddr: 0x2C9C, symBinAddr: 0x71048, symSize: 0x3C }
  - { offset: 0x43C7AE, size: 0x8, addend: 0x0, symName: __ZN3nam17slimmable_wavenet16SlimmableWavenetD1Ev, symObjAddr: 0x2C20, symBinAddr: 0x70FCC, symSize: 0x4 }
  - { offset: 0x43C7D2, size: 0x8, addend: 0x0, symName: __ZN3nam17slimmable_wavenet16SlimmableWavenetD1Ev, symObjAddr: 0x2C20, symBinAddr: 0x70FCC, symSize: 0x4 }
  - { offset: 0x43C7DD, size: 0x8, addend: 0x0, symName: __ZN3nam17slimmable_wavenet16SlimmableWavenetD2Ev, symObjAddr: 0x30A0, symBinAddr: 0x712F0, symSize: 0x108 }
  - { offset: 0x43CF4D, size: 0x8, addend: 0x0, symName: __ZN3nam17slimmable_wavenet16SlimmableWavenetD0Ev, symObjAddr: 0x2C24, symBinAddr: 0x70FD0, symSize: 0x14 }
  - { offset: 0x43CF9A, size: 0x8, addend: 0x0, symName: __ZN3nam17slimmable_wavenet16SlimmableWavenet14PrewarmSamplesEv, symObjAddr: 0x2C38, symBinAddr: 0x70FE4, symSize: 0x8 }
  - { offset: 0x43CFBD, size: 0x8, addend: 0x0, symName: __ZThn80_N3nam17slimmable_wavenet16SlimmableWavenetD1Ev, symObjAddr: 0x2C40, symBinAddr: 0x70FEC, symSize: 0x8 }
  - { offset: 0x43D01B, size: 0x8, addend: 0x0, symName: __ZThn80_N3nam17slimmable_wavenet16SlimmableWavenetD0Ev, symObjAddr: 0x2C48, symBinAddr: 0x70FF4, symSize: 0x18 }
  - { offset: 0x43D09B, size: 0x8, addend: 0x0, symName: __ZN3nam17slimmable_wavenet22SlimmableWavenetConfigD1Ev, symObjAddr: 0x2C60, symBinAddr: 0x7100C, symSize: 0x3C }
  - { offset: 0x43F04C, size: 0x8, addend: 0x0, symName: __ZN3nam7wavenet7a2_fast11is_a2_shapeERKN8nlohmann16json_abi_v3_11_210basic_jsonINSt3__13mapENS5_6vectorENS5_12basic_stringIcNS5_11char_traitsIcEENS5_9allocatorIcEEEEbxydSB_NS3_14adl_serializerENS7_IhNSB_IhEEEEEEPi, symObjAddr: 0x0, symBinAddr: 0x713F8, symSize: 0xD74 }
  - { offset: 0x43F0C7, size: 0x8, addend: 0x0, symName: __ZN3nam7wavenet7a2_fast12kKernelSizesE, symObjAddr: 0xE988, symBinAddr: 0x103D58, symSize: 0x0 }
  - { offset: 0x43F0E1, size: 0x8, addend: 0x0, symName: __ZN3nam7wavenet7a2_fast10kDilationsE, symObjAddr: 0xE9E4, symBinAddr: 0x103DB4, symSize: 0x0 }
  - { offset: 0x43F853, size: 0x8, addend: 0x0, symName: __ZN3nam7wavenet7a2_fast12_GLOBAL__N_116all_none_stringsERKN8nlohmann16json_abi_v3_11_210basic_jsonINSt3__13mapENS6_6vectorENS6_12basic_stringIcNS6_11char_traitsIcEENS6_9allocatorIcEEEEbxydSC_NS4_14adl_serializerENS8_IhNSC_IhEEEEEE, symObjAddr: 0x18D0, symBinAddr: 0x72CC8, symSize: 0x17C }
  - { offset: 0x44000C, size: 0x8, addend: 0x0, symName: __ZN3nam7wavenet7a2_fast12_GLOBAL__N_18all_nullERKN8nlohmann16json_abi_v3_11_210basic_jsonINSt3__13mapENS6_6vectorENS6_12basic_stringIcNS6_11char_traitsIcEENS6_9allocatorIcEEEEbxydSC_NS4_14adl_serializerENS8_IhNSC_IhEEEEEE, symObjAddr: 0x1ACC, symBinAddr: 0x72EC4, symSize: 0x110 }
  - { offset: 0x4404A4, size: 0x8, addend: 0x0, symName: __ZN3nam7wavenet7a2_fast12_GLOBAL__N_113film_inactiveERKN8nlohmann16json_abi_v3_11_210basic_jsonINSt3__13mapENS6_6vectorENS6_12basic_stringIcNS6_11char_traitsIcEENS6_9allocatorIcEEEEbxydSC_NS4_14adl_serializerENS8_IhNSC_IhEEEEEEPKc, symObjAddr: 0x1E64, symBinAddr: 0x7325C, symSize: 0x268 }
  - { offset: 0x440BE5, size: 0x8, addend: 0x0, symName: __ZN3nam7wavenet7a2_fast11is_a2_shapeERKN8nlohmann16json_abi_v3_11_210basic_jsonINSt3__13mapENS5_6vectorENS5_12basic_stringIcNS5_11char_traitsIcEENS5_9allocatorIcEEEEbxydSB_NS3_14adl_serializerENS7_IhNSB_IhEEEEEEPi, symObjAddr: 0x0, symBinAddr: 0x713F8, symSize: 0xD74 }
  - { offset: 0x44EA79, size: 0x8, addend: 0x0, symName: __ZNSt3__1eqB9nqe210106IcNS_11char_traitsIcEENS_9allocatorIcEEEEbRKNS_12basic_stringIT_T0_T1_EEPKS6_, symObjAddr: 0x1418, symBinAddr: 0x72810, symSize: 0x58 }
  - { offset: 0x45011B, size: 0x8, addend: 0x0, symName: __ZTVN3nam7wavenet7a2_fast12_GLOBAL__N_112A2FastConfigE, symObjAddr: 0xEB28, symBinAddr: 0x124E40, symSize: 0x0 }
  - { offset: 0x4501F2, size: 0x8, addend: 0x0, symName: __ZTVN3nam7wavenet7a2_fast12_GLOBAL__N_111A2FastModelILi3EEE, symObjAddr: 0xEB68, symBinAddr: 0x124E80, symSize: 0x0 }
  - { offset: 0x45047F, size: 0x8, addend: 0x0, symName: __ZTVN3nam7wavenet7a2_fast12_GLOBAL__N_111A2FastModelILi8EEE, symObjAddr: 0xEBC8, symBinAddr: 0x124EE0, symSize: 0x0 }
  - { offset: 0x454168, size: 0x8, addend: 0x0, symName: __ZN5Eigen8internal37evaluateProductBlockingSizesHeuristicIffLi1ElEEvRT2_S3_S3_S2_, symObjAddr: 0x92C0, symBinAddr: 0x7A620, symSize: 0x3AC }
  - { offset: 0x4BE7B0, size: 0x8, addend: 0x0, symName: __ZN5Eigen8internal29general_matrix_vector_productIlfNS0_22const_blas_data_mapperIflLi0EEELi0ELb0EfNS2_IflLi1EEELb0ELi0EE3runEllRKS3_RKS4_Pflf, symObjAddr: 0x8AB0, symBinAddr: 0x79E10, symSize: 0x6EC }
  - { offset: 0x4BFE49, size: 0x8, addend: 0x0, symName: __ZNK5Eigen8internal13gemm_pack_lhsIflNS0_22const_blas_data_mapperIflLi0EEELi12ELi4E19__simd128_float32_tLi0ELb0ELb0EEclEPfRKS3_llll, symObjAddr: 0x9D0C, symBinAddr: 0x7B06C, symSize: 0x36C }
  - { offset: 0x4C0473, size: 0x8, addend: 0x0, symName: __ZNK5Eigen8internal11gebp_kernelIfflNS0_16blas_data_mapperIflLi0ELi0ELi1EEELi12ELi8ELb0ELb0EEclERKS3_PKfS8_lllfllll, symObjAddr: 0xAB98, symBinAddr: 0x7BEF8, symSize: 0x3628 }
  - { offset: 0x4DA2CD, size: 0x8, addend: 0x0, symName: __ZNK8nlohmann16json_abi_v3_11_210basic_jsonINSt3__13mapENS2_6vectorENS2_12basic_stringIcNS2_11char_traitsIcEENS2_9allocatorIcEEEEbxydS8_NS0_14adl_serializerENS4_IhNS8_IhEEEEE5valueIiRA11_KciLi0EEET1_OT0_OT_, symObjAddr: 0xE74, symBinAddr: 0x7226C, symSize: 0x188 }
  - { offset: 0x4DA7F6, size: 0x8, addend: 0x0, symName: __ZNK8nlohmann16json_abi_v3_11_210basic_jsonINSt3__13mapENS2_6vectorENS2_12basic_stringIcNS2_11char_traitsIcEENS2_9allocatorIcEEEEbxydS8_NS0_14adl_serializerENS4_IhNS8_IhEEEEE5valueIiRA15_KciLi0EEET1_OT0_OT_, symObjAddr: 0xFFC, symBinAddr: 0x723F4, symSize: 0x190 }
  - { offset: 0x4DAD1D, size: 0x8, addend: 0x0, symName: __ZNK8nlohmann16json_abi_v3_11_210basic_jsonINSt3__13mapENS2_6vectorENS2_12basic_stringIcNS2_11char_traitsIcEENS2_9allocatorIcEEEEbxydS8_NS0_14adl_serializerENS4_IhNS8_IhEEEEE5valueIiRA9_KciLi0EEET1_OT0_OT_, symObjAddr: 0x118C, symBinAddr: 0x72584, symSize: 0x190 }
  - { offset: 0x4DB244, size: 0x8, addend: 0x0, symName: __ZNK8nlohmann16json_abi_v3_11_210basic_jsonINSt3__13mapENS2_6vectorENS2_12basic_stringIcNS2_11char_traitsIcEENS2_9allocatorIcEEEEbxydS8_NS0_14adl_serializerENS4_IhNS8_IhEEEEE4findIRA13_KcLi0EEENS0_6detail9iter_implIKSE_EEOT_, symObjAddr: 0x131C, symBinAddr: 0x72714, symSize: 0x80 }
  - { offset: 0x4DB3D7, size: 0x8, addend: 0x0, symName: __ZNK8nlohmann16json_abi_v3_11_210basic_jsonINSt3__13mapENS2_6vectorENS2_12basic_stringIcNS2_11char_traitsIcEENS2_9allocatorIcEEEEbxydS8_NS0_14adl_serializerENS4_IhNS8_IhEEEEE4findIRA10_KcLi0EEENS0_6detail9iter_implIKSE_EEOT_, symObjAddr: 0x139C, symBinAddr: 0x72794, symSize: 0x7C }
  - { offset: 0x4DB552, size: 0x8, addend: 0x0, symName: __ZNK8nlohmann16json_abi_v3_11_210basic_jsonINSt3__13mapENS2_6vectorENS2_12basic_stringIcNS2_11char_traitsIcEENS2_9allocatorIcEEEEbxydS8_NS0_14adl_serializerENS4_IhNS8_IhEEEEE4findIRA11_KcLi0EEENS0_6detail9iter_implIKSE_EEOT_, symObjAddr: 0xDF4, symBinAddr: 0x721EC, symSize: 0x80 }
  - { offset: 0x4DB6C3, size: 0x8, addend: 0x0, symName: __ZNK8nlohmann16json_abi_v3_11_210basic_jsonINSt3__13mapENS2_6vectorENS2_12basic_stringIcNS2_11char_traitsIcEENS2_9allocatorIcEEEEbxydS8_NS0_14adl_serializerENS4_IhNS8_IhEEEEE4findIRA12_KcLi0EEENS0_6detail9iter_implIKSE_EEOT_, symObjAddr: 0x1850, symBinAddr: 0x72C48, symSize: 0x80 }
  - { offset: 0x4DB842, size: 0x8, addend: 0x0, symName: __ZNK8nlohmann16json_abi_v3_11_210basic_jsonINSt3__13mapENS2_6vectorENS2_12basic_stringIcNS2_11char_traitsIcEENS2_9allocatorIcEEEEbxydS8_NS0_14adl_serializerENS4_IhNS8_IhEEEEE5valueISA_RA5_KcSA_Li0EEET1_OT0_OT_, symObjAddr: 0x1470, symBinAddr: 0x72868, symSize: 0x1D8 }
  - { offset: 0x4DBEBA, size: 0x8, addend: 0x0, symName: __ZNK8nlohmann16json_abi_v3_11_210basic_jsonINSt3__13mapENS2_6vectorENS2_12basic_stringIcNS2_11char_traitsIcEENS2_9allocatorIcEEEEbxydS8_NS0_14adl_serializerENS4_IhNS8_IhEEEEE5valueIfRA15_KcfLi0EEET1_OT0_OT_, symObjAddr: 0x1648, symBinAddr: 0x72A40, symSize: 0x198 }
  - { offset: 0x4DC3CD, size: 0x8, addend: 0x0, symName: __ZN8nlohmann16json_abi_v3_11_26detail9iter_implIKNS0_10basic_jsonINSt3__13mapENS4_6vectorENS4_12basic_stringIcNS4_11char_traitsIcEENS4_9allocatorIcEEEEbxydSA_NS0_14adl_serializerENS6_IhNSA_IhEEEEEEEppEv, symObjAddr: 0x17E0, symBinAddr: 0x72BD8, symSize: 0x70 }
  - { offset: 0x4DC59D, size: 0x8, addend: 0x0, symName: __ZNK8nlohmann16json_abi_v3_11_210basic_jsonINSt3__13mapENS2_6vectorENS2_12basic_stringIcNS2_11char_traitsIcEENS2_9allocatorIcEEEEbxydS8_NS0_14adl_serializerENS4_IhNS8_IhEEEEE4findIRA21_KcLi0EEENS0_6detail9iter_implIKSE_EEOT_, symObjAddr: 0x1A4C, symBinAddr: 0x72E44, symSize: 0x80 }
  - { offset: 0x4DC730, size: 0x8, addend: 0x0, symName: __ZNK8nlohmann16json_abi_v3_11_210basic_jsonINSt3__13mapENS2_6vectorENS2_12basic_stringIcNS2_11char_traitsIcEENS2_9allocatorIcEEEEbxydS8_NS0_14adl_serializerENS4_IhNS8_IhEEEEE4findIRA8_KcLi0EEENS0_6detail9iter_implIKSE_EEOT_, symObjAddr: 0x1BDC, symBinAddr: 0x72FD4, symSize: 0x80 }
  - { offset: 0x4DC8A9, size: 0x8, addend: 0x0, symName: __ZNK8nlohmann16json_abi_v3_11_210basic_jsonINSt3__13mapENS2_6vectorENS2_12basic_stringIcNS2_11char_traitsIcEENS2_9allocatorIcEEEEbxydS8_NS0_14adl_serializerENS4_IhNS8_IhEEEEE4findIRA9_KcLi0EEENS0_6detail9iter_implIKSE_EEOT_, symObjAddr: 0x1C5C, symBinAddr: 0x73054, symSize: 0x80 }
  - { offset: 0x4DCA00, size: 0x8, addend: 0x0, symName: __ZNK8nlohmann16json_abi_v3_11_210basic_jsonINSt3__13mapENS2_6vectorENS2_12basic_stringIcNS2_11char_traitsIcEENS2_9allocatorIcEEEEbxydS8_NS0_14adl_serializerENS4_IhNS8_IhEEEEE4findIRA5_KcLi0EEENS0_6detail9iter_implIKSE_EEOT_, symObjAddr: 0xD74, symBinAddr: 0x7216C, symSize: 0x80 }
  - { offset: 0x4DCB5D, size: 0x8, addend: 0x0, symName: __ZNK8nlohmann16json_abi_v3_11_210basic_jsonINSt3__13mapENS2_6vectorENS2_12basic_stringIcNS2_11char_traitsIcEENS2_9allocatorIcEEEEbxydS8_NS0_14adl_serializerENS4_IhNS8_IhEEEEE5valueIbRA5_KcbLi0EEET1_OT0_OT_, symObjAddr: 0x1CDC, symBinAddr: 0x730D4, symSize: 0x188 }
  - { offset: 0x4DD7CC, size: 0x8, addend: 0x0, symName: __ZN3nam7wavenet7a2_fast12_GLOBAL__N_112A2FastConfigD1Ev, symObjAddr: 0x2164, symBinAddr: 0x734C4, symSize: 0x4 }
  - { offset: 0x4DD7FC, size: 0x8, addend: 0x0, symName: __ZN3nam7wavenet7a2_fast12_GLOBAL__N_112A2FastConfigD0Ev, symObjAddr: 0x2168, symBinAddr: 0x734C8, symSize: 0x4 }
  - { offset: 0x4DE049, size: 0x8, addend: 0x0, symName: __ZN3nam7wavenet7a2_fast12_GLOBAL__N_112A2FastConfig6createENSt3__16vectorIfNS4_9allocatorIfEEEEd, symObjAddr: 0x216C, symBinAddr: 0x734CC, symSize: 0x29A4 }
  - { offset: 0x4E00B2, size: 0x8, addend: 0x0, symName: __ZNSt3__16vectorIfNS_9allocatorIfEEE6assignEmRKf, symObjAddr: 0x4B10, symBinAddr: 0x75E70, symSize: 0x2BC }
  - { offset: 0x4E059E, size: 0x8, addend: 0x0, symName: __ZNSt3__15arrayIN3nam7wavenet7a2_fast12_GLOBAL__N_111A2FastModelILi3EE5LayerELm23EED1Ev, symObjAddr: 0x4DCC, symBinAddr: 0x7612C, symSize: 0x64 }
  - { offset: 0x4E0BF8, size: 0x8, addend: 0x0, symName: __ZN3nam7wavenet7a2_fast12_GLOBAL__N_111A2FastModelILi3EED1Ev, symObjAddr: 0x4E30, symBinAddr: 0x76190, symSize: 0xD4 }
  - { offset: 0x4E162B, size: 0x8, addend: 0x0, symName: __ZN3nam7wavenet7a2_fast12_GLOBAL__N_111A2FastModelILi3EED0Ev, symObjAddr: 0x4F04, symBinAddr: 0x76264, symSize: 0x14 }
  - { offset: 0x4E22D2, size: 0x8, addend: 0x0, symName: __ZN3nam7wavenet7a2_fast12_GLOBAL__N_111A2FastModelILi3EE7processEPPdS6_i, symObjAddr: 0x4F18, symBinAddr: 0x76278, symSize: 0x153C }
  - { offset: 0x4E2EAF, size: 0x8, addend: 0x0, symName: __ZN3nam7wavenet7a2_fast12_GLOBAL__N_111A2FastModelILi3EE14PrewarmSamplesEv, symObjAddr: 0x6454, symBinAddr: 0x777B4, symSize: 0x8 }
  - { offset: 0x4E2ED6, size: 0x8, addend: 0x0, symName: __ZN3nam7wavenet7a2_fast12_GLOBAL__N_111A2FastModelILi3EE16SetMaxBufferSizeEi, symObjAddr: 0x645C, symBinAddr: 0x777BC, symSize: 0x148 }
  - { offset: 0x4E3070, size: 0x8, addend: 0x0, symName: __ZN3nam7wavenet7a2_fast12_GLOBAL__N_111A2FastModelILi8EED1Ev, symObjAddr: 0x65A4, symBinAddr: 0x77904, symSize: 0xD4 }
  - { offset: 0x4E3A9D, size: 0x8, addend: 0x0, symName: __ZN3nam7wavenet7a2_fast12_GLOBAL__N_111A2FastModelILi8EED0Ev, symObjAddr: 0x6678, symBinAddr: 0x779D8, symSize: 0x14 }
  - { offset: 0x4E6BC9, size: 0x8, addend: 0x0, symName: __ZN3nam7wavenet7a2_fast12_GLOBAL__N_111A2FastModelILi8EE7processEPPdS6_i, symObjAddr: 0x668C, symBinAddr: 0x779EC, symSize: 0x227C }
  - { offset: 0x4EF3DF, size: 0x8, addend: 0x0, symName: __ZN5Eigen8internal29general_matrix_matrix_productIlfLi0ELb0EfLi0ELb0ELi0ELi1EE3runElllPKflS4_lPfllfRNS0_15level3_blockingIffEEPNS0_16GemmParallelInfoIlEE, symObjAddr: 0x966C, symBinAddr: 0x7A9CC, symSize: 0x6A0 }
  - { offset: 0x4EFA09, size: 0x8, addend: 0x0, symName: __ZN5Eigen8internal20generic_product_implINS_3MapIKNS_6MatrixIfLi8ELi8ELi0ELi8ELi8EEELi0ENS_6StrideILi0ELi0EEEEENS2_INS3_IfLi8ELin1ELi0ELi8ELin1EEELi0ES7_EENS_10DenseShapeESB_Li8EE13scaleAndAddToISA_EEvRT_RKS8_RKSA_RKf, symObjAddr: 0xE1C0, symBinAddr: 0x7F520, symSize: 0x12C }
  - { offset: 0x4EFEC0, size: 0x8, addend: 0x0, symName: __ZN5Eigen8internal19gemm_blocking_spaceILi0EffLi8ELin1ELi8ELi1ELb0EED1Ev, symObjAddr: 0x8A78, symBinAddr: 0x79DD8, symSize: 0x38 }
  - { offset: 0x4EFFBE, size: 0x8, addend: 0x0, symName: __ZN3nam7wavenet7a2_fast12_GLOBAL__N_111A2FastModelILi8EE14PrewarmSamplesEv, symObjAddr: 0x8908, symBinAddr: 0x79C68, symSize: 0x8 }
  - { offset: 0x4EFFE5, size: 0x8, addend: 0x0, symName: __ZN3nam7wavenet7a2_fast12_GLOBAL__N_111A2FastModelILi8EE16SetMaxBufferSizeEi, symObjAddr: 0x8910, symBinAddr: 0x79C70, symSize: 0x168 }
  - { offset: 0x4F1769, size: 0x8, addend: 0x0, symName: __ZN5Eigen8internal10CacheSizesC2Ev, symObjAddr: 0x919C, symBinAddr: 0x7A4FC, symSize: 0x124 }
  - { offset: 0x4F1A62, size: 0x8, addend: 0x0, symName: __ZNK5Eigen8internal13gemm_pack_rhsIflNS0_22const_blas_data_mapperIflLi0EEELi8ELi0ELb0ELb0EEclEPfRKS3_llll, symObjAddr: 0xA078, symBinAddr: 0x7B3D8, symSize: 0xB20 }
  - { offset: 0x4FCE1A, size: 0x8, addend: 0x0, symName: __ZN3nam9containerL28_register_SlimmableContainerE, symObjAddr: 0xB9F33, symBinAddr: 0x2B4ED1, symSize: 0x0 }
  - { offset: 0x4FD02D, size: 0x8, addend: 0x0, symName: __ZN3nam9container13create_configERKN8nlohmann16json_abi_v3_11_210basic_jsonINSt3__13mapENS4_6vectorENS4_12basic_stringIcNS4_11char_traitsIcEENS4_9allocatorIcEEEEbxydSA_NS2_14adl_serializerENS6_IhNSA_IhEEEEEEd, symObjAddr: 0xC58, symBinAddr: 0x802A4, symSize: 0x94 }
  - { offset: 0x508FE0, size: 0x8, addend: 0x0, symName: __ZTVN3nam9container14ContainerModelE, symObjAddr: 0x1260, symBinAddr: 0x124F40, symSize: 0x0 }
  - { offset: 0x5090F7, size: 0x8, addend: 0x0, symName: __ZTVN3nam9container15ContainerConfigE, symObjAddr: 0x1310, symBinAddr: 0x124FF0, symSize: 0x0 }
  - { offset: 0x5094D5, size: 0x8, addend: 0x0, symName: __ZNSt3__16vectorIN3nam9container8SubmodelENS_9allocatorIS3_EEED1B9nqe210106Ev, symObjAddr: 0x0, symBinAddr: 0x7F64C, symSize: 0x78 }
  - { offset: 0x509761, size: 0x8, addend: 0x0, symName: __ZN3nam9container14ContainerModel7processEPPdS3_i, symObjAddr: 0x78, symBinAddr: 0x7F6C4, symSize: 0x1C }
  - { offset: 0x5097B7, size: 0x8, addend: 0x0, symName: __ZN3nam9container14ContainerModel7processEPPdS3_i, symObjAddr: 0x78, symBinAddr: 0x7F6C4, symSize: 0x1C }
  - { offset: 0x50986F, size: 0x8, addend: 0x0, symName: __ZN3nam9container14ContainerModel7prewarmEv, symObjAddr: 0x94, symBinAddr: 0x7F6E0, symSize: 0x40 }
  - { offset: 0x509950, size: 0x8, addend: 0x0, symName: __ZN3nam9container14ContainerModel5ResetEdi, symObjAddr: 0xD4, symBinAddr: 0x7F720, symSize: 0x8C }
  - { offset: 0x509AE2, size: 0x8, addend: 0x0, symName: __ZN3nam9container14ContainerModel16SetSlimmableSizeEd, symObjAddr: 0x160, symBinAddr: 0x7F7AC, symSize: 0xA0 }
  - { offset: 0x509C36, size: 0x8, addend: 0x0, symName: __ZThn80_N3nam9container14ContainerModel16SetSlimmableSizeEd, symObjAddr: 0x200, symBinAddr: 0x7F84C, symSize: 0xA4 }
  - { offset: 0x50A8E2, size: 0x8, addend: 0x0, symName: __ZN3nam9container15ContainerConfig6createENSt3__16vectorIfNS2_9allocatorIfEEEEd, symObjAddr: 0x2A4, symBinAddr: 0x7F8F0, symSize: 0x9B4 }
  - { offset: 0x50C47A, size: 0x8, addend: 0x0, symName: __ZN3nam9container15ContainerConfigD0Ev, symObjAddr: 0xF7C, symBinAddr: 0x805C8, symSize: 0x3C }
  - { offset: 0x50C528, size: 0x8, addend: 0x0, symName: __ZN3nam9container14ContainerModelD1Ev, symObjAddr: 0xCEC, symBinAddr: 0x80338, symSize: 0x8C }
  - { offset: 0x50C7C7, size: 0x8, addend: 0x0, symName: __ZN3nam9container14ContainerModelD0Ev, symObjAddr: 0xD78, symBinAddr: 0x803C4, symSize: 0x8C }
  - { offset: 0x50CA64, size: 0x8, addend: 0x0, symName: __ZN3nam9container14ContainerModel14PrewarmSamplesEv, symObjAddr: 0xE04, symBinAddr: 0x80450, symSize: 0x8 }
  - { offset: 0x50CA87, size: 0x8, addend: 0x0, symName: __ZThn80_N3nam9container14ContainerModelD1Ev, symObjAddr: 0xE0C, symBinAddr: 0x80458, symSize: 0xA4 }
  - { offset: 0x50CD24, size: 0x8, addend: 0x0, symName: __ZThn80_N3nam9container14ContainerModelD0Ev, symObjAddr: 0xEB0, symBinAddr: 0x804FC, symSize: 0x90 }
  - { offset: 0x50CFF4, size: 0x8, addend: 0x0, symName: __ZN3nam9container15ContainerConfigD1Ev, symObjAddr: 0xF40, symBinAddr: 0x8058C, symSize: 0x3C }
  - { offset: 0x50D381, size: 0x8, addend: 0x0, symName: __GLOBAL__sub_I_container.cpp, symObjAddr: 0x1130, symBinAddr: 0x80604, symSize: 0x130 }
  - { offset: 0x50F7A2, size: 0x8, addend: 0x0, symName: __ZN3nam6Conv1D12set_weights_ERNSt3__111__wrap_iterIPfEE, symObjAddr: 0x0, symBinAddr: 0x80734, symSize: 0x1F0 }
  - { offset: 0x54DC8D, size: 0x8, addend: 0x0, symName: __ZN5Eigen8internal29general_matrix_vector_productIlfNS0_22const_blas_data_mapperIflLi1EEELi1ELb0EfNS2_IflLi0EEELb0ELi0EE3runEllRKS3_RKS4_Pflf, symObjAddr: 0x476C, symBinAddr: 0x84D70, symSize: 0xDF0 }
  - { offset: 0x54F16E, size: 0x8, addend: 0x0, symName: __ZN5Eigen8internal29general_matrix_vector_productIlfNS0_22const_blas_data_mapperIflLi1EEELi1ELb0EfNS2_IflLi0EEELb0ELi0EE14run_small_colsEllRKS3_RKS4_Pflf, symObjAddr: 0x555C, symBinAddr: 0x85B60, symSize: 0xC9C }
  - { offset: 0x551CC9, size: 0x8, addend: 0x0, symName: __ZN5Eigen8internal19gemv_dense_selectorILi2ELi1ELb1EE3runINS_9TransposeIKNS_5BlockINS_6MatrixIfLin1ELin1ELi0ELin1ELin1EEELin1ELin1ELb0EEEEENS4_IKNS5_IKS7_Li1ELin1ELb0EEEEENS4_INS5_INS5_IS7_Lin1ELin1ELb1EEELi1ELin1ELb0EEEEEEEvRKT_RKT0_RT1_RKNSO_6ScalarE, symObjAddr: 0x455C, symBinAddr: 0x84B60, symSize: 0x210 }
  - { offset: 0x55322C, size: 0x8, addend: 0x0, symName: __ZN3nam6Conv1D12set_weights_ERNSt3__111__wrap_iterIPfEE, symObjAddr: 0x0, symBinAddr: 0x80734, symSize: 0x1F0 }
  - { offset: 0x554402, size: 0x8, addend: 0x0, symName: __ZN3nam6Conv1D9set_size_Eiiibii, symObjAddr: 0x1F0, symBinAddr: 0x80924, symSize: 0x718 }
  - { offset: 0x5560CC, size: 0x8, addend: 0x0, symName: __ZNSt3__16vectorIN5Eigen6MatrixIfLin1ELin1ELi0ELin1ELin1EEENS_9allocatorIS3_EEE8__appendEm, symObjAddr: 0x4348, symBinAddr: 0x84998, symSize: 0x1C8 }
  - { offset: 0x55693F, size: 0x8, addend: 0x0, symName: __ZN5Eigen8internal17DenseStorage_implIfLin1ELin1ELi1ELi0EE6resizeElll, symObjAddr: 0x42BC, symBinAddr: 0x8490C, symSize: 0x8C }
  - { offset: 0x556B96, size: 0x8, addend: 0x0, symName: __ZN3nam6Conv1D16SetMaxBufferSizeEi, symObjAddr: 0x940, symBinAddr: 0x8103C, symSize: 0x178 }
  - { offset: 0x55747B, size: 0x8, addend: 0x0, symName: __ZN3nam6Conv1D7ProcessERKN5Eigen6MatrixIfLin1ELin1ELi0ELin1ELin1EEEi, symObjAddr: 0xB50, symBinAddr: 0x811B4, symSize: 0x2B94 }
  - { offset: 0x55B02D, size: 0x8, addend: 0x0, symName: __ZN5Eigen7NoAliasINS_5BlockINS_6MatrixIfLin1ELin1ELi0ELin1ELin1EEELin1ELin1ELb1EEENS_10MatrixBaseEEpLINS_7ProductIS3_NS1_IS3_Lin1ELin1ELb0EEELi0EEEEERS4_RKNS5_IT_EE, symObjAddr: 0x36E4, symBinAddr: 0x83D48, symSize: 0xBC4 }
  - { offset: 0x56D9B3, size: 0x8, addend: 0x0, symName: __ZN3nam10RingBuffer5WriteERKN5Eigen6MatrixIfLin1ELin1ELi0ELin1ELin1EEEi, symObjAddr: 0x9C, symBinAddr: 0x867FC, symSize: 0x454 }
  - { offset: 0x56D9FB, size: 0x8, addend: 0x0, symName: __ZN3nam10RingBuffer5WriteERKN5Eigen6MatrixIfLin1ELin1ELi0ELin1ELin1EEEi, symObjAddr: 0x9C, symBinAddr: 0x867FC, symSize: 0x454 }
  - { offset: 0x57030A, size: 0x8, addend: 0x0, symName: __ZNK5iplug6IParam11ShapeLinear17NormalizedToValueEdRKS0_, symObjAddr: 0x0, symBinAddr: 0x86C50, symSize: 0x10 }
  - { offset: 0x57119A, size: 0x8, addend: 0x0, symName: __ZTVN5iplug6IParam11ShapeLinearE, symObjAddr: 0x1398, symBinAddr: 0x125058, symSize: 0x0 }
  - { offset: 0x57216D, size: 0x8, addend: 0x0, symName: __ZNK5iplug6IParam11ShapeLinear17NormalizedToValueEdRKS0_, symObjAddr: 0x0, symBinAddr: 0x86C50, symSize: 0x10 }
  - { offset: 0x5721B0, size: 0x8, addend: 0x0, symName: __ZNK5iplug6IParam11ShapeLinear17ValueToNormalizedEdRKS0_, symObjAddr: 0x10, symBinAddr: 0x86C60, symSize: 0x14 }
  - { offset: 0x5724BF, size: 0x8, addend: 0x0, symName: __ZN5iplug6IParam8InitBoolEPKcbS2_iS2_S2_S2_, symObjAddr: 0xB0, symBinAddr: 0x86C74, symSize: 0x144 }
  - { offset: 0x572897, size: 0x8, addend: 0x0, symName: __ZN5iplug6IParam10InitDoubleEPKcddddS2_iS2_RKNS0_5ShapeENS0_10EParamUnitENSt3__18functionIFvdR10WDL_StringEEE, symObjAddr: 0x3DC, symBinAddr: 0x86DB8, symSize: 0x3C4 }
  - { offset: 0x5730C8, size: 0x8, addend: 0x0, symName: __ZN5iplug6IParam11ShapeLinearD1Ev, symObjAddr: 0x7A0, symBinAddr: 0x8717C, symSize: 0x4 }
  - { offset: 0x573281, size: 0x8, addend: 0x0, symName: __ZNK5iplug6IParam10GetDisplayEdbR10WDL_Stringb, symObjAddr: 0xC6C, symBinAddr: 0x87180, symSize: 0x3EC }
  - { offset: 0x57364D, size: 0x8, addend: 0x0, symName: __ZN5iplug6IParam11ShapeLinearD0Ev, symObjAddr: 0x1214, symBinAddr: 0x8756C, symSize: 0x4 }
  - { offset: 0x5736C0, size: 0x8, addend: 0x0, symName: __ZNK5iplug6IParam11ShapeLinear5CloneEv, symObjAddr: 0x1218, symBinAddr: 0x87570, symSize: 0x38 }
  - { offset: 0x573733, size: 0x8, addend: 0x0, symName: __ZN5iplug6IParam5Shape4InitERKS0_, symObjAddr: 0x1250, symBinAddr: 0x875A8, symSize: 0x4 }
  - { offset: 0x573766, size: 0x8, addend: 0x0, symName: __ZNK5iplug6IParam11ShapeLinear14GetDisplayTypeEv, symObjAddr: 0x1254, symBinAddr: 0x875AC, symSize: 0x8 }
  - { offset: 0x5754D1, size: 0x8, addend: 0x0, symName: __ZTVN9Steinberg11CPluginViewE, symObjAddr: 0x6D0, symBinAddr: 0x1250A0, symSize: 0x0 }
  - { offset: 0x5759D1, size: 0x8, addend: 0x0, symName: __ZN9Steinberg11CPluginViewD2Ev, symObjAddr: 0x3C, symBinAddr: 0x875B4, symSize: 0x54 }
  - { offset: 0x575A56, size: 0x8, addend: 0x0, symName: __ZN9Steinberg11CPluginViewD1Ev, symObjAddr: 0x90, symBinAddr: 0x87608, symSize: 0x54 }
  - { offset: 0x575AED, size: 0x8, addend: 0x0, symName: __ZN9Steinberg11CPluginViewD0Ev, symObjAddr: 0xE4, symBinAddr: 0x8765C, symSize: 0x50 }
  - { offset: 0x575B86, size: 0x8, addend: 0x0, symName: __ZN9Steinberg11CPluginView23isPlatformTypeSupportedEPKc, symObjAddr: 0x134, symBinAddr: 0x876AC, symSize: 0x8 }
  - { offset: 0x575BB3, size: 0x8, addend: 0x0, symName: __ZThn16_N9Steinberg11CPluginView23isPlatformTypeSupportedEPKc, symObjAddr: 0x13C, symBinAddr: 0x876B4, symSize: 0x8 }
  - { offset: 0x575BC9, size: 0x8, addend: 0x0, symName: __ZN9Steinberg11CPluginView8attachedEPvPKc, symObjAddr: 0x144, symBinAddr: 0x876BC, symSize: 0x24 }
  - { offset: 0x575C34, size: 0x8, addend: 0x0, symName: __ZThn16_N9Steinberg11CPluginView8attachedEPvPKc, symObjAddr: 0x168, symBinAddr: 0x876E0, symSize: 0x24 }
  - { offset: 0x575C7E, size: 0x8, addend: 0x0, symName: __ZN9Steinberg11CPluginView7removedEv, symObjAddr: 0x18C, symBinAddr: 0x87704, symSize: 0x24 }
  - { offset: 0x575CC5, size: 0x8, addend: 0x0, symName: __ZThn16_N9Steinberg11CPluginView7removedEv, symObjAddr: 0x1B0, symBinAddr: 0x87728, symSize: 0x24 }
  - { offset: 0x575D07, size: 0x8, addend: 0x0, symName: __ZN9Steinberg11CPluginView6onSizeEPNS_8ViewRectE, symObjAddr: 0x1D4, symBinAddr: 0x8774C, symSize: 0x14 }
  - { offset: 0x575D56, size: 0x8, addend: 0x0, symName: __ZThn16_N9Steinberg11CPluginView6onSizeEPNS_8ViewRectE, symObjAddr: 0x1E8, symBinAddr: 0x87760, symSize: 0x14 }
  - { offset: 0x575D70, size: 0x8, addend: 0x0, symName: __ZThn16_N9Steinberg11CPluginView6onSizeEPNS_8ViewRectE, symObjAddr: 0x1E8, symBinAddr: 0x87760, symSize: 0x14 }
  - { offset: 0x575D94, size: 0x8, addend: 0x0, symName: __ZN9Steinberg11CPluginView7getSizeEPNS_8ViewRectE, symObjAddr: 0x1FC, symBinAddr: 0x87774, symSize: 0x20 }
  - { offset: 0x575DE3, size: 0x8, addend: 0x0, symName: __ZThn16_N9Steinberg11CPluginView7getSizeEPNS_8ViewRectE, symObjAddr: 0x21C, symBinAddr: 0x87794, symSize: 0x20 }
  - { offset: 0x575DFD, size: 0x8, addend: 0x0, symName: __ZThn16_N9Steinberg11CPluginView7getSizeEPNS_8ViewRectE, symObjAddr: 0x21C, symBinAddr: 0x87794, symSize: 0x20 }
  - { offset: 0x575E29, size: 0x8, addend: 0x0, symName: __ZN9Steinberg11CPluginView14queryInterfaceEPKcPPv, symObjAddr: 0x23C, symBinAddr: 0x877B4, symSize: 0x104 }
  - { offset: 0x575F3E, size: 0x8, addend: 0x0, symName: __ZN9Steinberg11CPluginView6addRefEv, symObjAddr: 0x340, symBinAddr: 0x878B8, symSize: 0x14 }
  - { offset: 0x575F64, size: 0x8, addend: 0x0, symName: __ZN9Steinberg11CPluginView6addRefEv, symObjAddr: 0x340, symBinAddr: 0x878B8, symSize: 0x14 }
  - { offset: 0x575FA6, size: 0x8, addend: 0x0, symName: __ZN9Steinberg11CPluginView7releaseEv, symObjAddr: 0x354, symBinAddr: 0x878CC, symSize: 0x54 }
  - { offset: 0x57601E, size: 0x8, addend: 0x0, symName: __ZNK9Steinberg11CPluginView3isAEv, symObjAddr: 0x3A8, symBinAddr: 0x87920, symSize: 0xC }
  - { offset: 0x576045, size: 0x8, addend: 0x0, symName: __ZNK9Steinberg11CPluginView3isAEPKc, symObjAddr: 0x3B4, symBinAddr: 0x8792C, symSize: 0x10 }
  - { offset: 0x5760D5, size: 0x8, addend: 0x0, symName: __ZNK9Steinberg11CPluginView8isTypeOfEPKcb, symObjAddr: 0x3C4, symBinAddr: 0x8793C, symSize: 0x68 }
  - { offset: 0x57611F, size: 0x8, addend: 0x0, symName: __ZNK9Steinberg11CPluginView8isTypeOfEPKcb, symObjAddr: 0x3C4, symBinAddr: 0x8793C, symSize: 0x68 }
  - { offset: 0x5761BE, size: 0x8, addend: 0x0, symName: __ZN9Steinberg11CPluginView16attachedToParentEv, symObjAddr: 0x42C, symBinAddr: 0x879A4, symSize: 0x4 }
  - { offset: 0x5761E3, size: 0x8, addend: 0x0, symName: __ZN9Steinberg11CPluginView17removedFromParentEv, symObjAddr: 0x430, symBinAddr: 0x879A8, symSize: 0x4 }
  - { offset: 0x576208, size: 0x8, addend: 0x0, symName: __ZN9Steinberg11CPluginView7onWheelEf, symObjAddr: 0x434, symBinAddr: 0x879AC, symSize: 0x8 }
  - { offset: 0x57623A, size: 0x8, addend: 0x0, symName: __ZN9Steinberg11CPluginView9onKeyDownEDsss, symObjAddr: 0x43C, symBinAddr: 0x879B4, symSize: 0x8 }
  - { offset: 0x57627F, size: 0x8, addend: 0x0, symName: __ZN9Steinberg11CPluginView7onKeyUpEDsss, symObjAddr: 0x444, symBinAddr: 0x879BC, symSize: 0x8 }
  - { offset: 0x5762C4, size: 0x8, addend: 0x0, symName: __ZN9Steinberg11CPluginView7onFocusEh, symObjAddr: 0x44C, symBinAddr: 0x879C4, symSize: 0x8 }
  - { offset: 0x576318, size: 0x8, addend: 0x0, symName: __ZN9Steinberg11CPluginView8setFrameEPNS_10IPlugFrameE, symObjAddr: 0x454, symBinAddr: 0x879CC, symSize: 0x58 }
  - { offset: 0x576387, size: 0x8, addend: 0x0, symName: __ZN9Steinberg11CPluginView9canResizeEv, symObjAddr: 0x4AC, symBinAddr: 0x87A24, symSize: 0x8 }
  - { offset: 0x5763AE, size: 0x8, addend: 0x0, symName: __ZN9Steinberg11CPluginView19checkSizeConstraintEPNS_8ViewRectE, symObjAddr: 0x4B4, symBinAddr: 0x87A2C, symSize: 0x8 }
  - { offset: 0x57640D, size: 0x8, addend: 0x0, symName: __ZThn16_N9Steinberg11CPluginView14queryInterfaceEPKcPPv, symObjAddr: 0x4BC, symBinAddr: 0x87A34, symSize: 0xF4 }
  - { offset: 0x57652D, size: 0x8, addend: 0x0, symName: __ZThn16_N9Steinberg11CPluginView6addRefEv, symObjAddr: 0x5B0, symBinAddr: 0x87B28, symSize: 0x14 }
  - { offset: 0x576547, size: 0x8, addend: 0x0, symName: __ZThn16_N9Steinberg11CPluginView6addRefEv, symObjAddr: 0x5B0, symBinAddr: 0x87B28, symSize: 0x14 }
  - { offset: 0x576565, size: 0x8, addend: 0x0, symName: __ZThn16_N9Steinberg11CPluginView6addRefEv, symObjAddr: 0x5B0, symBinAddr: 0x87B28, symSize: 0x14 }
  - { offset: 0x5765C0, size: 0x8, addend: 0x0, symName: __ZThn16_N9Steinberg11CPluginView7releaseEv, symObjAddr: 0x5C4, symBinAddr: 0x87B3C, symSize: 0x54 }
  - { offset: 0x576643, size: 0x8, addend: 0x0, symName: __ZThn16_N9Steinberg11CPluginView7onWheelEf, symObjAddr: 0x618, symBinAddr: 0x87B90, symSize: 0x8 }
  - { offset: 0x576659, size: 0x8, addend: 0x0, symName: __ZThn16_N9Steinberg11CPluginView9onKeyDownEDsss, symObjAddr: 0x620, symBinAddr: 0x87B98, symSize: 0x8 }
  - { offset: 0x57666F, size: 0x8, addend: 0x0, symName: __ZThn16_N9Steinberg11CPluginView7onKeyUpEDsss, symObjAddr: 0x628, symBinAddr: 0x87BA0, symSize: 0x8 }
  - { offset: 0x576685, size: 0x8, addend: 0x0, symName: __ZThn16_N9Steinberg11CPluginView7onFocusEh, symObjAddr: 0x630, symBinAddr: 0x87BA8, symSize: 0x8 }
  - { offset: 0x5766BD, size: 0x8, addend: 0x0, symName: __ZThn16_N9Steinberg11CPluginView8setFrameEPNS_10IPlugFrameE, symObjAddr: 0x638, symBinAddr: 0x87BB0, symSize: 0x58 }
  - { offset: 0x57673F, size: 0x8, addend: 0x0, symName: __ZThn16_N9Steinberg11CPluginView9canResizeEv, symObjAddr: 0x690, symBinAddr: 0x87C08, symSize: 0x8 }
  - { offset: 0x576755, size: 0x8, addend: 0x0, symName: __ZThn16_N9Steinberg11CPluginView19checkSizeConstraintEPNS_8ViewRectE, symObjAddr: 0x698, symBinAddr: 0x87C10, symSize: 0x8 }
  - { offset: 0x57803B, size: 0x8, addend: 0x0, symName: __ZN9Steinberg22kDefaultSystemEncodingE, symObjAddr: 0x25528, symBinAddr: 0x1329C8, symSize: 0x0 }
  - { offset: 0x57A0DD, size: 0x8, addend: 0x0, symName: __ZN9SteinbergL12kCFAllocatorE, symObjAddr: 0x25520, symBinAddr: 0x1329C0, symSize: 0x0 }
  - { offset: 0x57A0F7, size: 0x8, addend: 0x0, symName: __ZN9SteinbergL14kEmptyString16E, symObjAddr: 0x33B2, symBinAddr: 0x103F64, symSize: 0x0 }
  - { offset: 0x57A351, size: 0x8, addend: 0x0, symName: __ZTVN9Steinberg6StringE, symObjAddr: 0x3318, symBinAddr: 0x125270, symSize: 0x0 }
  - { offset: 0x57B103, size: 0x8, addend: 0x0, symName: __ZN9Steinberg11ConstString21multiByteToWideStringEPDsPKcij, symObjAddr: 0xF4, symBinAddr: 0x87C18, symSize: 0x1E4 }
  - { offset: 0x57B35C, size: 0x8, addend: 0x0, symName: __ZN9Steinberg11ConstString21wideStringToMultiByteEPcPKDsij, symObjAddr: 0x2D8, symBinAddr: 0x87DFC, symSize: 0x214 }
  - { offset: 0x57B53C, size: 0x8, addend: 0x0, symName: __ZN9Steinberg6String6resizeEjbb, symObjAddr: 0x1F3C, symBinAddr: 0x88414, symSize: 0x190 }
  - { offset: 0x57B6F2, size: 0x8, addend: 0x0, symName: __ZN9Steinberg6String11toMultiByteEj, symObjAddr: 0x76C, symBinAddr: 0x88010, symSize: 0x1BC }
  - { offset: 0x57B8A8, size: 0x8, addend: 0x0, symName: __ZN9Steinberg6String13_toWideStringEPKcij, symObjAddr: 0x1B18, symBinAddr: 0x88300, symSize: 0x114 }
  - { offset: 0x57BAEE, size: 0x8, addend: 0x0, symName: __ZN9Steinberg6StringD1Ev, symObjAddr: 0x928, symBinAddr: 0x881CC, symSize: 0x4C }
  - { offset: 0x57BB14, size: 0x8, addend: 0x0, symName: __ZN9Steinberg6StringD1Ev, symObjAddr: 0x928, symBinAddr: 0x881CC, symSize: 0x4C }
  - { offset: 0x57BC08, size: 0x8, addend: 0x0, symName: __ZNK9Steinberg6String5text8Ev, symObjAddr: 0x9A8, symBinAddr: 0x88218, symSize: 0x64 }
  - { offset: 0x57BCB9, size: 0x8, addend: 0x0, symName: __ZNK9Steinberg6String6text16Ev, symObjAddr: 0xA0C, symBinAddr: 0x8827C, symSize: 0x78 }
  - { offset: 0x57BD50, size: 0x8, addend: 0x0, symName: __ZNK9Steinberg11ConstString6lengthEv, symObjAddr: 0xA84, symBinAddr: 0x882F4, symSize: 0xC }
  - { offset: 0x57BEFF, size: 0x8, addend: 0x0, symName: __ZN9Steinberg6StringD0Ev, symObjAddr: 0x20CC, symBinAddr: 0x885A4, symSize: 0x3C }
  - { offset: 0x57BF30, size: 0x8, addend: 0x0, symName: __ZN9Steinberg6StringD0Ev, symObjAddr: 0x20CC, symBinAddr: 0x885A4, symSize: 0x3C }
  - { offset: 0x57BF50, size: 0x8, addend: 0x0, symName: __ZN9Steinberg6StringD0Ev, symObjAddr: 0x20CC, symBinAddr: 0x885A4, symSize: 0x3C }
  - { offset: 0x57BFD8, size: 0x8, addend: 0x0, symName: __ZNK9Steinberg6String16checkToMultiByteEj, symObjAddr: 0x2178, symBinAddr: 0x885E0, symSize: 0x28 }
  - { offset: 0x57C036, size: 0x8, addend: 0x0, symName: __ZN9Steinberg6String9setChar16EjDs, symObjAddr: 0x21A0, symBinAddr: 0x88608, symSize: 0x1E8 }
  - { offset: 0x57C267, size: 0x8, addend: 0x0, symName: __ZN9Steinberg6String15fromCFStringRefEPKvj, symObjAddr: 0x2DA0, symBinAddr: 0x887F0, symSize: 0x184 }
  - { offset: 0x57C3D2, size: 0x8, addend: 0x0, symName: __ZNK9Steinberg11ConstString13toCFStringRefEjb, symObjAddr: 0x2F24, symBinAddr: 0x88974, symSize: 0x110 }
  - { offset: 0x57C505, size: 0x8, addend: 0x0, symName: __ZNK9Steinberg11ConstString4textEv, symObjAddr: 0x3080, symBinAddr: 0x88A84, symSize: 0xC }
  - { offset: 0x57C538, size: 0x8, addend: 0x0, symName: __ZNK9Steinberg11ConstString3ptrEv, symObjAddr: 0x308C, symBinAddr: 0x88A90, symSize: 0x8 }
  - { offset: 0x57C584, size: 0x8, addend: 0x0, symName: __ZNK9Steinberg6String8getChar8Ej, symObjAddr: 0x3100, symBinAddr: 0x88A98, symSize: 0x88 }
  - { offset: 0x57C663, size: 0x8, addend: 0x0, symName: __ZNK9Steinberg6String9getChar16Ej, symObjAddr: 0x3188, symBinAddr: 0x88B20, symSize: 0x8C }
  - { offset: 0x57C724, size: 0x8, addend: 0x0, symName: __GLOBAL__sub_I_fstring.cpp, symObjAddr: 0x329C, symBinAddr: 0x88BAC, symSize: 0x18 }
  - { offset: 0x57C73C, size: 0x8, addend: 0x0, symName: __GLOBAL__sub_I_fstring.cpp, symObjAddr: 0x329C, symBinAddr: 0x88BAC, symSize: 0x18 }
  - { offset: 0x57E38C, size: 0x8, addend: 0x0, symName: __MergedGlobals.20, symObjAddr: 0x139710, symBinAddr: 0x2B4EE0, symSize: 0x0 }
  - { offset: 0x595E8C, size: 0x8, addend: 0x0, symName: __MergedGlobals.20, symObjAddr: 0x139710, symBinAddr: 0x2B4EE0, symSize: 0x0 }
  - { offset: 0x595EA8, size: 0x8, addend: 0x0, symName: __ZN3nam11activations10Activation15using_fast_tanhE, symObjAddr: 0x139703, symBinAddr: 0x1329CC, symSize: 0x0 }
  - { offset: 0x595EBC, size: 0x8, addend: 0x0, symName: __MergedGlobals.20, symObjAddr: 0x139710, symBinAddr: 0x2B4EE0, symSize: 0x0 }
  - { offset: 0x595ED8, size: 0x8, addend: 0x0, symName: __MergedGlobals.20, symObjAddr: 0x139710, symBinAddr: 0x2B4EE0, symSize: 0x0 }
  - { offset: 0x595EF0, size: 0x8, addend: 0x0, symName: __MergedGlobals.20, symObjAddr: 0x139710, symBinAddr: 0x2B4EE0, symSize: 0x0 }
  - { offset: 0x595F08, size: 0x8, addend: 0x0, symName: __MergedGlobals.20, symObjAddr: 0x139710, symBinAddr: 0x2B4EE0, symSize: 0x0 }
  - { offset: 0x595F14, size: 0x8, addend: 0x0, symName: __ZN3nam11activations16ActivationConfig9from_jsonERKN8nlohmann16json_abi_v3_11_210basic_jsonINSt3__13mapENS5_6vectorENS5_12basic_stringIcNS5_11char_traitsIcEENS5_9allocatorIcEEEEbxydSB_NS3_14adl_serializerENS7_IhNSB_IhEEEEEE, symObjAddr: 0x1AC, symBinAddr: 0x88D38, symSize: 0xAF8 }
  - { offset: 0x595F36, size: 0x8, addend: 0x0, symName: __MergedGlobals.20, symObjAddr: 0x139710, symBinAddr: 0x2B4EE0, symSize: 0x0 }
  - { offset: 0x5985D8, size: 0x8, addend: 0x0, symName: __ZTVN3nam11activations19ActivationLeakyReLUE, symObjAddr: 0x61B0, symBinAddr: 0x125300, symSize: 0x0 }
  - { offset: 0x5985ED, size: 0x8, addend: 0x0, symName: __ZTVN3nam11activations15ActivationPReLUE, symObjAddr: 0x6218, symBinAddr: 0x125368, symSize: 0x0 }
  - { offset: 0x59860D, size: 0x8, addend: 0x0, symName: __MergedGlobals, symObjAddr: 0x69F0, symBinAddr: 0x12F2A0, symSize: 0x0 }
  - { offset: 0x598628, size: 0x8, addend: 0x0, symName: __ZTVN3nam11activations14ActivationTanhE, symObjAddr: 0x6270, symBinAddr: 0x1253C0, symSize: 0x0 }
  - { offset: 0x598642, size: 0x8, addend: 0x0, symName: __MergedGlobals, symObjAddr: 0x69F0, symBinAddr: 0x12F2A0, symSize: 0x0 }
  - { offset: 0x59865F, size: 0x8, addend: 0x0, symName: __ZTVN3nam11activations18ActivationHardTanhE, symObjAddr: 0x62C8, symBinAddr: 0x125418, symSize: 0x0 }
  - { offset: 0x598679, size: 0x8, addend: 0x0, symName: __MergedGlobals, symObjAddr: 0x69F0, symBinAddr: 0x12F2A0, symSize: 0x0 }
  - { offset: 0x598696, size: 0x8, addend: 0x0, symName: __ZTVN3nam11activations18ActivationFastTanhE, symObjAddr: 0x6320, symBinAddr: 0x125470, symSize: 0x0 }
  - { offset: 0x5986B0, size: 0x8, addend: 0x0, symName: __MergedGlobals, symObjAddr: 0x69F0, symBinAddr: 0x12F2A0, symSize: 0x0 }
  - { offset: 0x5986CD, size: 0x8, addend: 0x0, symName: __ZTVN3nam11activations14ActivationReLUE, symObjAddr: 0x6378, symBinAddr: 0x1254C8, symSize: 0x0 }
  - { offset: 0x5986E7, size: 0x8, addend: 0x0, symName: __MergedGlobals, symObjAddr: 0x69F0, symBinAddr: 0x12F2A0, symSize: 0x0 }
  - { offset: 0x598704, size: 0x8, addend: 0x0, symName: __ZTVN3nam11activations17ActivationSigmoidE, symObjAddr: 0x63D0, symBinAddr: 0x125520, symSize: 0x0 }
  - { offset: 0x59871E, size: 0x8, addend: 0x0, symName: __MergedGlobals, symObjAddr: 0x69F0, symBinAddr: 0x12F2A0, symSize: 0x0 }
  - { offset: 0x59873B, size: 0x8, addend: 0x0, symName: __ZTVN3nam11activations15ActivationSwishE, symObjAddr: 0x6428, symBinAddr: 0x125578, symSize: 0x0 }
  - { offset: 0x598755, size: 0x8, addend: 0x0, symName: __MergedGlobals, symObjAddr: 0x69F0, symBinAddr: 0x12F2A0, symSize: 0x0 }
  - { offset: 0x598772, size: 0x8, addend: 0x0, symName: __ZTVN3nam11activations19ActivationHardSwishE, symObjAddr: 0x6480, symBinAddr: 0x1255D0, symSize: 0x0 }
  - { offset: 0x59878C, size: 0x8, addend: 0x0, symName: __MergedGlobals, symObjAddr: 0x69F0, symBinAddr: 0x12F2A0, symSize: 0x0 }
  - { offset: 0x5987A9, size: 0x8, addend: 0x0, symName: __ZTVN3nam11activations23ActivationLeakyHardTanhE, symObjAddr: 0x64D8, symBinAddr: 0x125628, symSize: 0x0 }
  - { offset: 0x5987C3, size: 0x8, addend: 0x0, symName: __MergedGlobals, symObjAddr: 0x69F0, symBinAddr: 0x12F2A0, symSize: 0x0 }
  - { offset: 0x5987E0, size: 0x8, addend: 0x0, symName: __ZTVN3nam11activations18ActivationSoftsignE, symObjAddr: 0x6530, symBinAddr: 0x125680, symSize: 0x0 }
  - { offset: 0x5987FB, size: 0x8, addend: 0x0, symName: __ZTVNSt3__120__shared_ptr_pointerIPN3nam11activations14ActivationTanhEZ18make_singleton_ptrIS3_ENS_10shared_ptrINS2_10ActivationEEERT_EUlPS7_E_NS_9allocatorIS3_EEEE, symObjAddr: 0x6588, symBinAddr: 0x1256D8, symSize: 0x0 }
  - { offset: 0x59883D, size: 0x8, addend: 0x0, symName: __ZTVNSt3__120__shared_ptr_pointerIPN3nam11activations18ActivationHardTanhEZ18make_singleton_ptrIS3_ENS_10shared_ptrINS2_10ActivationEEERT_EUlPS7_E_NS_9allocatorIS3_EEEE, symObjAddr: 0x65D8, symBinAddr: 0x125728, symSize: 0x0 }
  - { offset: 0x59887F, size: 0x8, addend: 0x0, symName: __ZTVNSt3__120__shared_ptr_pointerIPN3nam11activations18ActivationFastTanhEZ18make_singleton_ptrIS3_ENS_10shared_ptrINS2_10ActivationEEERT_EUlPS7_E_NS_9allocatorIS3_EEEE, symObjAddr: 0x6628, symBinAddr: 0x125778, symSize: 0x0 }
  - { offset: 0x5988C1, size: 0x8, addend: 0x0, symName: __ZTVNSt3__120__shared_ptr_pointerIPN3nam11activations14ActivationReLUEZ18make_singleton_ptrIS3_ENS_10shared_ptrINS2_10ActivationEEERT_EUlPS7_E_NS_9allocatorIS3_EEEE, symObjAddr: 0x6678, symBinAddr: 0x1257C8, symSize: 0x0 }
  - { offset: 0x598903, size: 0x8, addend: 0x0, symName: __ZTVNSt3__120__shared_ptr_pointerIPN3nam11activations19ActivationLeakyReLUEZ18make_singleton_ptrIS3_ENS_10shared_ptrINS2_10ActivationEEERT_EUlPS7_E_NS_9allocatorIS3_EEEE, symObjAddr: 0x66C8, symBinAddr: 0x125818, symSize: 0x0 }
  - { offset: 0x598945, size: 0x8, addend: 0x0, symName: __ZTVNSt3__120__shared_ptr_pointerIPN3nam11activations17ActivationSigmoidEZ18make_singleton_ptrIS3_ENS_10shared_ptrINS2_10ActivationEEERT_EUlPS7_E_NS_9allocatorIS3_EEEE, symObjAddr: 0x6718, symBinAddr: 0x125868, symSize: 0x0 }
  - { offset: 0x598987, size: 0x8, addend: 0x0, symName: __ZTVNSt3__120__shared_ptr_pointerIPN3nam11activations15ActivationSwishEZ18make_singleton_ptrIS3_ENS_10shared_ptrINS2_10ActivationEEERT_EUlPS7_E_NS_9allocatorIS3_EEEE, symObjAddr: 0x6768, symBinAddr: 0x1258B8, symSize: 0x0 }
  - { offset: 0x5989C9, size: 0x8, addend: 0x0, symName: __ZTVNSt3__120__shared_ptr_pointerIPN3nam11activations19ActivationHardSwishEZ18make_singleton_ptrIS3_ENS_10shared_ptrINS2_10ActivationEEERT_EUlPS7_E_NS_9allocatorIS3_EEEE, symObjAddr: 0x67B8, symBinAddr: 0x125908, symSize: 0x0 }
  - { offset: 0x598A0B, size: 0x8, addend: 0x0, symName: __ZTVNSt3__120__shared_ptr_pointerIPN3nam11activations23ActivationLeakyHardTanhEZ18make_singleton_ptrIS3_ENS_10shared_ptrINS2_10ActivationEEERT_EUlPS7_E_NS_9allocatorIS3_EEEE, symObjAddr: 0x6808, symBinAddr: 0x125958, symSize: 0x0 }
  - { offset: 0x598A4D, size: 0x8, addend: 0x0, symName: __ZTVNSt3__120__shared_ptr_pointerIPN3nam11activations15ActivationPReLUEZ18make_singleton_ptrIS3_ENS_10shared_ptrINS2_10ActivationEEERT_EUlPS7_E_NS_9allocatorIS3_EEEE, symObjAddr: 0x6858, symBinAddr: 0x1259A8, symSize: 0x0 }
  - { offset: 0x598A8F, size: 0x8, addend: 0x0, symName: __ZTVNSt3__120__shared_ptr_pointerIPN3nam11activations18ActivationSoftsignEZ18make_singleton_ptrIS3_ENS_10shared_ptrINS2_10ActivationEEERT_EUlPS7_E_NS_9allocatorIS3_EEEE, symObjAddr: 0x68A8, symBinAddr: 0x1259F8, symSize: 0x0 }
  - { offset: 0x598AD7, size: 0x8, addend: 0x0, symName: __ZTVNSt3__120__shared_ptr_emplaceIN3nam11activations19ActivationLeakyReLUENS_9allocatorIS3_EEEE, symObjAddr: 0x68F8, symBinAddr: 0x125A48, symSize: 0x0 }
  - { offset: 0x598B12, size: 0x8, addend: 0x0, symName: __ZTVNSt3__120__shared_ptr_emplaceIN3nam11activations15ActivationPReLUENS_9allocatorIS3_EEEE, symObjAddr: 0x6948, symBinAddr: 0x125A98, symSize: 0x0 }
  - { offset: 0x598B4D, size: 0x8, addend: 0x0, symName: __ZTVNSt3__120__shared_ptr_emplaceIN3nam11activations23ActivationLeakyHardTanhENS_9allocatorIS3_EEEE, symObjAddr: 0x6998, symBinAddr: 0x125AE8, symSize: 0x0 }
  - { offset: 0x598D5A, size: 0x8, addend: 0x0, symName: __ZN3nam11activations15ActivationPReLUD1Ev, symObjAddr: 0x0, symBinAddr: 0x88BC4, symSize: 0x40 }
  - { offset: 0x598D80, size: 0x8, addend: 0x0, symName: __ZN3nam11activations15ActivationPReLUD1Ev, symObjAddr: 0x0, symBinAddr: 0x88BC4, symSize: 0x40 }
  - { offset: 0x599021, size: 0x8, addend: 0x0, symName: __ZNSt3__14pairIKNS_12basic_stringIcNS_11char_traitsIcEENS_9allocatorIcEEEENS_10shared_ptrIN3nam11activations10ActivationEEEED1Ev, symObjAddr: 0x40, symBinAddr: 0x88C04, symSize: 0x80 }
  - { offset: 0x59943E, size: 0x8, addend: 0x0, symName: __ZNSt3__113unordered_mapINS_12basic_stringIcNS_11char_traitsIcEENS_9allocatorIcEEEENS_10shared_ptrIN3nam11activations10ActivationEEENS_4hashIS6_EENS_8equal_toIS6_EENS4_INS_4pairIKS6_SB_EEEEED1B9nqe210106Ev, symObjAddr: 0xC0, symBinAddr: 0x88C84, symSize: 0xB4 }
  - { offset: 0x59A8C5, size: 0x8, addend: 0x0, symName: __ZNKSt3__112__hash_tableINS_17__hash_value_typeINS_12basic_stringIcNS_11char_traitsIcEENS_9allocatorIcEEEEN3nam11activations14ActivationTypeEEENS_22__unordered_map_hasherIS7_NS_4pairIKS7_SA_EENS_4hashIS7_EENS_8equal_toIS7_EELb1EEENS_21__unordered_map_equalIS7_SF_SJ_SH_Lb1EEENS5_ISF_EEE4findIS7_EENS_21__hash_const_iteratorIPNS_11__hash_nodeISB_PvEEEERKT_, symObjAddr: 0x3A64, symBinAddr: 0x8C380, symSize: 0x1CC }
  - { offset: 0x59ABD2, size: 0x8, addend: 0x0, symName: __ZNK8nlohmann16json_abi_v3_11_210basic_jsonINSt3__13mapENS2_6vectorENS2_12basic_stringIcNS2_11char_traitsIcEENS2_9allocatorIcEEEEbxydS8_NS0_14adl_serializerENS4_IhNS8_IhEEEEE5valueIfRA8_KcfLi0EEET1_OT0_OT_, symObjAddr: 0x15F4, symBinAddr: 0x89F70, symSize: 0x190 }
  - { offset: 0x59B0FB, size: 0x8, addend: 0x0, symName: __ZNK8nlohmann16json_abi_v3_11_210basic_jsonINSt3__13mapENS2_6vectorENS2_12basic_stringIcNS2_11char_traitsIcEENS2_9allocatorIcEEEEbxydS8_NS0_14adl_serializerENS4_IhNS8_IhEEEEE5valueIfRA10_KcfLi0EEET1_OT0_OT_, symObjAddr: 0x1784, symBinAddr: 0x8A100, symSize: 0x190 }
  - { offset: 0x59B640, size: 0x8, addend: 0x0, symName: __ZNSt3__14pairIKNS_12basic_stringIcNS_11char_traitsIcEENS_9allocatorIcEEEEN3nam11activations14ActivationTypeEEC1B9nqe210106IRA5_KcSA_Li0EEEOT_OT0_, symObjAddr: 0xCA4, symBinAddr: 0x89830, symSize: 0xB0 }
  - { offset: 0x59BECD, size: 0x8, addend: 0x0, symName: __ZNSt3__113unordered_mapINS_12basic_stringIcNS_11char_traitsIcEENS_9allocatorIcEEEEN3nam11activations14ActivationTypeENS_4hashIS6_EENS_8equal_toIS6_EENS4_INS_4pairIKS6_S9_EEEEEC1ESt16initializer_listISG_E, symObjAddr: 0xF64, symBinAddr: 0x898E0, symSize: 0x628 }
  - { offset: 0x59D66B, size: 0x8, addend: 0x0, symName: __ZNSt3__112__hash_tableINS_17__hash_value_typeINS_12basic_stringIcNS_11char_traitsIcEENS_9allocatorIcEEEEN3nam11activations14ActivationTypeEEENS_22__unordered_map_hasherIS7_NS_4pairIKS7_SA_EENS_4hashIS7_EENS_8equal_toIS7_EELb1EEENS_21__unordered_map_equalIS7_SF_SJ_SH_Lb1EEENS5_ISF_EEED1Ev, symObjAddr: 0x399C, symBinAddr: 0x8C318, symSize: 0x68 }
  - { offset: 0x59DB5D, size: 0x8, addend: 0x0, symName: __ZNSt3__113unordered_mapINS_12basic_stringIcNS_11char_traitsIcEENS_9allocatorIcEEEEN3nam11activations14ActivationTypeENS_4hashIS6_EENS_8equal_toIS6_EENS4_INS_4pairIKS6_S9_EEEEED1B9nqe210106Ev, symObjAddr: 0x158C, symBinAddr: 0x89F08, symSize: 0x68 }
  - { offset: 0x59F0F6, size: 0x8, addend: 0x0, symName: __ZN3nam11activations10Activation14get_activationERKNS0_16ActivationConfigE, symObjAddr: 0x1914, symBinAddr: 0x8A290, symSize: 0x4E8 }
  - { offset: 0x5A139E, size: 0x8, addend: 0x0, symName: __ZNSt3__112__hash_tableINS_17__hash_value_typeINS_12basic_stringIcNS_11char_traitsIcEENS_9allocatorIcEEEENS_10shared_ptrIN3nam11activations10ActivationEEEEENS_22__unordered_map_hasherIS7_NS_4pairIKS7_SC_EENS_4hashIS7_EENS_8equal_toIS7_EELb1EEENS_21__unordered_map_equalIS7_SH_SL_SJ_Lb1EEENS5_ISH_EEE25__emplace_unique_key_argsIS7_JRKNS_21piecewise_construct_tENS_5tupleIJOS7_EEENSV_IJEEEEEENSF_INS_15__hash_iteratorIPNS_11__hash_nodeISD_PvEEEEbEERKT_DpOT0_, symObjAddr: 0x3C30, symBinAddr: 0x8C54C, symSize: 0x3C8 }
  - { offset: 0x5A1C87, size: 0x8, addend: 0x0, symName: __ZN3nam11activations10Activation16enable_fast_tanhEv, symObjAddr: 0x1DFC, symBinAddr: 0x8A778, symSize: 0x294 }
  - { offset: 0x5A2AF0, size: 0x8, addend: 0x0, symName: __ZN3nam11activations19ActivationLeakyReLUD1Ev, symObjAddr: 0x2090, symBinAddr: 0x8AA0C, symSize: 0x4 }
  - { offset: 0x5A2B1F, size: 0x8, addend: 0x0, symName: __ZN3nam11activations19ActivationLeakyReLUD0Ev, symObjAddr: 0x2094, symBinAddr: 0x8AA10, symSize: 0x4 }
  - { offset: 0x5A2BBA, size: 0x8, addend: 0x0, symName: __ZN3nam11activations10Activation5applyERN5Eigen6MatrixIfLin1ELin1ELi0ELin1ELin1EEE, symObjAddr: 0x2098, symBinAddr: 0x8AA14, symSize: 0x1C }
  - { offset: 0x5A2BF2, size: 0x8, addend: 0x0, symName: __ZN3nam11activations10Activation5applyERN5Eigen6MatrixIfLin1ELin1ELi0ELin1ELin1EEE, symObjAddr: 0x2098, symBinAddr: 0x8AA14, symSize: 0x1C }
  - { offset: 0x5A2C0F, size: 0x8, addend: 0x0, symName: __ZN3nam11activations10Activation5applyERN5Eigen6MatrixIfLin1ELin1ELi0ELin1ELin1EEE, symObjAddr: 0x2098, symBinAddr: 0x8AA14, symSize: 0x1C }
  - { offset: 0x5A2CC7, size: 0x8, addend: 0x0, symName: __ZN3nam11activations10Activation5applyEN5Eigen5BlockINS2_6MatrixIfLin1ELin1ELi0ELin1ELin1EEELin1ELin1ELb0EEE, symObjAddr: 0x20B4, symBinAddr: 0x8AA30, symSize: 0x1C }
  - { offset: 0x5A2CFF, size: 0x8, addend: 0x0, symName: __ZN3nam11activations10Activation5applyEN5Eigen5BlockINS2_6MatrixIfLin1ELin1ELi0ELin1ELin1EEELin1ELin1ELb0EEE, symObjAddr: 0x20B4, symBinAddr: 0x8AA30, symSize: 0x1C }
  - { offset: 0x5A2D9C, size: 0x8, addend: 0x0, symName: __ZN3nam11activations10Activation5applyEN5Eigen5BlockINS2_6MatrixIfLin1ELin1ELi0ELin1ELin1EEELin1ELin1ELb1EEE, symObjAddr: 0x20D0, symBinAddr: 0x8AA4C, symSize: 0x1C }
  - { offset: 0x5A2DD4, size: 0x8, addend: 0x0, symName: __ZN3nam11activations10Activation5applyEN5Eigen5BlockINS2_6MatrixIfLin1ELin1ELi0ELin1ELin1EEELin1ELin1ELb1EEE, symObjAddr: 0x20D0, symBinAddr: 0x8AA4C, symSize: 0x1C }
  - { offset: 0x5A2E39, size: 0x8, addend: 0x0, symName: __ZN3nam11activations19ActivationLeakyReLU5applyEPfl, symObjAddr: 0x20EC, symBinAddr: 0x8AA68, symSize: 0x118 }
  - { offset: 0x5A2ED8, size: 0x8, addend: 0x0, symName: __ZN3nam11activations15ActivationPReLUD0Ev, symObjAddr: 0x2204, symBinAddr: 0x8AB80, symSize: 0x40 }
  - { offset: 0x5A2F09, size: 0x8, addend: 0x0, symName: __ZN3nam11activations15ActivationPReLUD0Ev, symObjAddr: 0x2204, symBinAddr: 0x8AB80, symSize: 0x40 }
  - { offset: 0x5A2F29, size: 0x8, addend: 0x0, symName: __ZN3nam11activations15ActivationPReLUD0Ev, symObjAddr: 0x2204, symBinAddr: 0x8AB80, symSize: 0x40 }
  - { offset: 0x5A3092, size: 0x8, addend: 0x0, symName: __ZN3nam11activations15ActivationPReLU5applyERN5Eigen6MatrixIfLin1ELin1ELi0ELin1ELin1EEE, symObjAddr: 0x2244, symBinAddr: 0x8ABC0, symSize: 0x1C8 }
  - { offset: 0x5A34F3, size: 0x8, addend: 0x0, symName: __ZN3nam11activations15ActivationPReLU5applyEPfl, symObjAddr: 0x240C, symBinAddr: 0x8AD88, symSize: 0x54 }
  - { offset: 0x5A3535, size: 0x8, addend: 0x0, symName: __ZN3nam11activations15ActivationPReLU5applyEPfl, symObjAddr: 0x240C, symBinAddr: 0x8AD88, symSize: 0x54 }
  - { offset: 0x5A35A0, size: 0x8, addend: 0x0, symName: __ZN3nam11activations14ActivationTanhD1Ev, symObjAddr: 0x2460, symBinAddr: 0x8ADDC, symSize: 0x4 }
  - { offset: 0x5A35CF, size: 0x8, addend: 0x0, symName: __ZN3nam11activations14ActivationTanhD0Ev, symObjAddr: 0x2464, symBinAddr: 0x8ADE0, symSize: 0x4 }
  - { offset: 0x5A35FA, size: 0x8, addend: 0x0, symName: __ZN3nam11activations14ActivationTanh5applyEPfl, symObjAddr: 0x2468, symBinAddr: 0x8ADE4, symSize: 0xB4 }
  - { offset: 0x5A3674, size: 0x8, addend: 0x0, symName: __ZN3nam11activations18ActivationHardTanhD1Ev, symObjAddr: 0x251C, symBinAddr: 0x8AE98, symSize: 0x4 }
  - { offset: 0x5A36A3, size: 0x8, addend: 0x0, symName: __ZN3nam11activations18ActivationHardTanhD0Ev, symObjAddr: 0x2520, symBinAddr: 0x8AE9C, symSize: 0x4 }
  - { offset: 0x5A36CE, size: 0x8, addend: 0x0, symName: __ZN3nam11activations18ActivationHardTanh5applyEPfl, symObjAddr: 0x2524, symBinAddr: 0x8AEA0, symSize: 0xE0 }
  - { offset: 0x5A370C, size: 0x8, addend: 0x0, symName: __ZN3nam11activations18ActivationHardTanh5applyEPfl, symObjAddr: 0x2524, symBinAddr: 0x8AEA0, symSize: 0xE0 }
  - { offset: 0x5A374E, size: 0x8, addend: 0x0, symName: __ZN3nam11activations18ActivationFastTanhD1Ev, symObjAddr: 0x2604, symBinAddr: 0x8AF80, symSize: 0x4 }
  - { offset: 0x5A377D, size: 0x8, addend: 0x0, symName: __ZN3nam11activations18ActivationFastTanhD0Ev, symObjAddr: 0x2608, symBinAddr: 0x8AF84, symSize: 0x4 }
  - { offset: 0x5A37A8, size: 0x8, addend: 0x0, symName: __ZN3nam11activations18ActivationFastTanh5applyEPfl, symObjAddr: 0x260C, symBinAddr: 0x8AF88, symSize: 0x13C }
  - { offset: 0x5A37E6, size: 0x8, addend: 0x0, symName: __ZN3nam11activations18ActivationFastTanh5applyEPfl, symObjAddr: 0x260C, symBinAddr: 0x8AF88, symSize: 0x13C }
  - { offset: 0x5A3832, size: 0x8, addend: 0x0, symName: __ZN3nam11activations14ActivationReLUD1Ev, symObjAddr: 0x2748, symBinAddr: 0x8B0C4, symSize: 0x4 }
  - { offset: 0x5A3861, size: 0x8, addend: 0x0, symName: __ZN3nam11activations14ActivationReLUD0Ev, symObjAddr: 0x274C, symBinAddr: 0x8B0C8, symSize: 0x4 }
  - { offset: 0x5A388C, size: 0x8, addend: 0x0, symName: __ZN3nam11activations14ActivationReLU5applyEPfl, symObjAddr: 0x2750, symBinAddr: 0x8B0CC, symSize: 0xC4 }
  - { offset: 0x5A38CA, size: 0x8, addend: 0x0, symName: __ZN3nam11activations14ActivationReLU5applyEPfl, symObjAddr: 0x2750, symBinAddr: 0x8B0CC, symSize: 0xC4 }
  - { offset: 0x5A3902, size: 0x8, addend: 0x0, symName: __ZN3nam11activations17ActivationSigmoidD1Ev, symObjAddr: 0x2814, symBinAddr: 0x8B190, symSize: 0x4 }
  - { offset: 0x5A3932, size: 0x8, addend: 0x0, symName: __ZN3nam11activations17ActivationSigmoidD0Ev, symObjAddr: 0x2818, symBinAddr: 0x8B194, symSize: 0x4 }
  - { offset: 0x5A395E, size: 0x8, addend: 0x0, symName: __ZN3nam11activations17ActivationSigmoid5applyEPfl, symObjAddr: 0x281C, symBinAddr: 0x8B198, symSize: 0x114 }
  - { offset: 0x5A39A2, size: 0x8, addend: 0x0, symName: __ZN3nam11activations17ActivationSigmoid5applyEPfl, symObjAddr: 0x281C, symBinAddr: 0x8B198, symSize: 0x114 }
  - { offset: 0x5A39DC, size: 0x8, addend: 0x0, symName: __ZN3nam11activations15ActivationSwishD1Ev, symObjAddr: 0x2930, symBinAddr: 0x8B2AC, symSize: 0x4 }
  - { offset: 0x5A3A0C, size: 0x8, addend: 0x0, symName: __ZN3nam11activations15ActivationSwishD0Ev, symObjAddr: 0x2934, symBinAddr: 0x8B2B0, symSize: 0x4 }
  - { offset: 0x5A3A38, size: 0x8, addend: 0x0, symName: __ZN3nam11activations15ActivationSwish5applyEPfl, symObjAddr: 0x2938, symBinAddr: 0x8B2B4, symSize: 0x120 }
  - { offset: 0x5A3A7C, size: 0x8, addend: 0x0, symName: __ZN3nam11activations15ActivationSwish5applyEPfl, symObjAddr: 0x2938, symBinAddr: 0x8B2B4, symSize: 0x120 }
  - { offset: 0x5A3ACE, size: 0x8, addend: 0x0, symName: __ZN3nam11activations19ActivationHardSwishD1Ev, symObjAddr: 0x2A58, symBinAddr: 0x8B3D4, symSize: 0x4 }
  - { offset: 0x5A3AFE, size: 0x8, addend: 0x0, symName: __ZN3nam11activations19ActivationHardSwishD0Ev, symObjAddr: 0x2A5C, symBinAddr: 0x8B3D8, symSize: 0x4 }
  - { offset: 0x5A3B2A, size: 0x8, addend: 0x0, symName: __ZN3nam11activations19ActivationHardSwish5applyEPfl, symObjAddr: 0x2A60, symBinAddr: 0x8B3DC, symSize: 0x168 }
  - { offset: 0x5A3B6A, size: 0x8, addend: 0x0, symName: __ZN3nam11activations19ActivationHardSwish5applyEPfl, symObjAddr: 0x2A60, symBinAddr: 0x8B3DC, symSize: 0x168 }
  - { offset: 0x5A3BB8, size: 0x8, addend: 0x0, symName: __ZN3nam11activations23ActivationLeakyHardTanhD1Ev, symObjAddr: 0x2BC8, symBinAddr: 0x8B544, symSize: 0x4 }
  - { offset: 0x5A3BE7, size: 0x8, addend: 0x0, symName: __ZN3nam11activations23ActivationLeakyHardTanhD0Ev, symObjAddr: 0x2BCC, symBinAddr: 0x8B548, symSize: 0x4 }
  - { offset: 0x5A3C12, size: 0x8, addend: 0x0, symName: __ZN3nam11activations23ActivationLeakyHardTanh5applyEPfl, symObjAddr: 0x2BD0, symBinAddr: 0x8B54C, symSize: 0x48 }
  - { offset: 0x5A3C9A, size: 0x8, addend: 0x0, symName: __ZN3nam11activations18ActivationSoftsignD1Ev, symObjAddr: 0x2C18, symBinAddr: 0x8B594, symSize: 0x4 }
  - { offset: 0x5A3CCA, size: 0x8, addend: 0x0, symName: __ZN3nam11activations18ActivationSoftsignD0Ev, symObjAddr: 0x2C1C, symBinAddr: 0x8B598, symSize: 0x4 }
  - { offset: 0x5A3CF6, size: 0x8, addend: 0x0, symName: __ZN3nam11activations18ActivationSoftsign5applyEPfl, symObjAddr: 0x2C20, symBinAddr: 0x8B59C, symSize: 0xF0 }
  - { offset: 0x5A3D36, size: 0x8, addend: 0x0, symName: __ZN3nam11activations18ActivationSoftsign5applyEPfl, symObjAddr: 0x2C20, symBinAddr: 0x8B59C, symSize: 0xF0 }
  - { offset: 0x5A3D96, size: 0x8, addend: 0x0, symName: __ZNSt3__120__shared_ptr_pointerIPN3nam11activations14ActivationTanhEZ18make_singleton_ptrIS3_ENS_10shared_ptrINS2_10ActivationEEERT_EUlPS7_E_NS_9allocatorIS3_EEED1Ev, symObjAddr: 0x2D10, symBinAddr: 0x8B68C, symSize: 0x4 }
  - { offset: 0x5A3DBA, size: 0x8, addend: 0x0, symName: __ZNSt3__120__shared_ptr_pointerIPN3nam11activations14ActivationTanhEZ18make_singleton_ptrIS3_ENS_10shared_ptrINS2_10ActivationEEERT_EUlPS7_E_NS_9allocatorIS3_EEED1Ev, symObjAddr: 0x2D10, symBinAddr: 0x8B68C, symSize: 0x4 }
  - { offset: 0x5A3DF5, size: 0x8, addend: 0x0, symName: __ZNSt3__120__shared_ptr_pointerIPN3nam11activations14ActivationTanhEZ18make_singleton_ptrIS3_ENS_10shared_ptrINS2_10ActivationEEERT_EUlPS7_E_NS_9allocatorIS3_EEED0Ev, symObjAddr: 0x2D14, symBinAddr: 0x8B690, symSize: 0x14 }
  - { offset: 0x5A3E5C, size: 0x8, addend: 0x0, symName: __ZNSt3__120__shared_ptr_pointerIPN3nam11activations14ActivationTanhEZ18make_singleton_ptrIS3_ENS_10shared_ptrINS2_10ActivationEEERT_EUlPS7_E_NS_9allocatorIS3_EEE16__on_zero_sharedEv, symObjAddr: 0x2D28, symBinAddr: 0x8B6A4, symSize: 0x4 }
  - { offset: 0x5A3EDC, size: 0x8, addend: 0x0, symName: __ZNKSt3__120__shared_ptr_pointerIPN3nam11activations14ActivationTanhEZ18make_singleton_ptrIS3_ENS_10shared_ptrINS2_10ActivationEEERT_EUlPS7_E_NS_9allocatorIS3_EEE13__get_deleterERKSt9type_info, symObjAddr: 0x2D2C, symBinAddr: 0x8B6A8, symSize: 0x60 }
  - { offset: 0x5A3FF5, size: 0x8, addend: 0x0, symName: __ZNSt3__120__shared_ptr_pointerIPN3nam11activations14ActivationTanhEZ18make_singleton_ptrIS3_ENS_10shared_ptrINS2_10ActivationEEERT_EUlPS7_E_NS_9allocatorIS3_EEE21__on_zero_shared_weakEv, symObjAddr: 0x2D8C, symBinAddr: 0x8B708, symSize: 0x4 }
  - { offset: 0x5A4029, size: 0x8, addend: 0x0, symName: __ZNSt3__120__shared_ptr_pointerIPN3nam11activations14ActivationTanhEZ18make_singleton_ptrIS3_ENS_10shared_ptrINS2_10ActivationEEERT_EUlPS7_E_NS_9allocatorIS3_EEE21__on_zero_shared_weakEv, symObjAddr: 0x2D8C, symBinAddr: 0x8B708, symSize: 0x4 }
  - { offset: 0x5A404D, size: 0x8, addend: 0x0, symName: __ZNSt3__120__shared_ptr_pointerIPN3nam11activations14ActivationTanhEZ18make_singleton_ptrIS3_ENS_10shared_ptrINS2_10ActivationEEERT_EUlPS7_E_NS_9allocatorIS3_EEE21__on_zero_shared_weakEv, symObjAddr: 0x2D8C, symBinAddr: 0x8B708, symSize: 0x4 }
  - { offset: 0x5A40B4, size: 0x8, addend: 0x0, symName: __ZNSt3__120__shared_ptr_pointerIPN3nam11activations18ActivationHardTanhEZ18make_singleton_ptrIS3_ENS_10shared_ptrINS2_10ActivationEEERT_EUlPS7_E_NS_9allocatorIS3_EEED1Ev, symObjAddr: 0x2D90, symBinAddr: 0x8B70C, symSize: 0x4 }
  - { offset: 0x5A40D8, size: 0x8, addend: 0x0, symName: __ZNSt3__120__shared_ptr_pointerIPN3nam11activations18ActivationHardTanhEZ18make_singleton_ptrIS3_ENS_10shared_ptrINS2_10ActivationEEERT_EUlPS7_E_NS_9allocatorIS3_EEED1Ev, symObjAddr: 0x2D90, symBinAddr: 0x8B70C, symSize: 0x4 }
  - { offset: 0x5A4113, size: 0x8, addend: 0x0, symName: __ZNSt3__120__shared_ptr_pointerIPN3nam11activations18ActivationHardTanhEZ18make_singleton_ptrIS3_ENS_10shared_ptrINS2_10ActivationEEERT_EUlPS7_E_NS_9allocatorIS3_EEED0Ev, symObjAddr: 0x2D94, symBinAddr: 0x8B710, symSize: 0x14 }
  - { offset: 0x5A417A, size: 0x8, addend: 0x0, symName: __ZNSt3__120__shared_ptr_pointerIPN3nam11activations18ActivationHardTanhEZ18make_singleton_ptrIS3_ENS_10shared_ptrINS2_10ActivationEEERT_EUlPS7_E_NS_9allocatorIS3_EEE16__on_zero_sharedEv, symObjAddr: 0x2DA8, symBinAddr: 0x8B724, symSize: 0x4 }
  - { offset: 0x5A419D, size: 0x8, addend: 0x0, symName: __ZNKSt3__120__shared_ptr_pointerIPN3nam11activations18ActivationHardTanhEZ18make_singleton_ptrIS3_ENS_10shared_ptrINS2_10ActivationEEERT_EUlPS7_E_NS_9allocatorIS3_EEE13__get_deleterERKSt9type_info, symObjAddr: 0x2DAC, symBinAddr: 0x8B728, symSize: 0x60 }
  - { offset: 0x5A429F, size: 0x8, addend: 0x0, symName: __ZNSt3__120__shared_ptr_pointerIPN3nam11activations18ActivationHardTanhEZ18make_singleton_ptrIS3_ENS_10shared_ptrINS2_10ActivationEEERT_EUlPS7_E_NS_9allocatorIS3_EEE21__on_zero_shared_weakEv, symObjAddr: 0x2E0C, symBinAddr: 0x8B788, symSize: 0x4 }
  - { offset: 0x5A42D3, size: 0x8, addend: 0x0, symName: __ZNSt3__120__shared_ptr_pointerIPN3nam11activations18ActivationHardTanhEZ18make_singleton_ptrIS3_ENS_10shared_ptrINS2_10ActivationEEERT_EUlPS7_E_NS_9allocatorIS3_EEE21__on_zero_shared_weakEv, symObjAddr: 0x2E0C, symBinAddr: 0x8B788, symSize: 0x4 }
  - { offset: 0x5A42F7, size: 0x8, addend: 0x0, symName: __ZNSt3__120__shared_ptr_pointerIPN3nam11activations18ActivationHardTanhEZ18make_singleton_ptrIS3_ENS_10shared_ptrINS2_10ActivationEEERT_EUlPS7_E_NS_9allocatorIS3_EEE21__on_zero_shared_weakEv, symObjAddr: 0x2E0C, symBinAddr: 0x8B788, symSize: 0x4 }
  - { offset: 0x5A435E, size: 0x8, addend: 0x0, symName: __ZNSt3__120__shared_ptr_pointerIPN3nam11activations18ActivationFastTanhEZ18make_singleton_ptrIS3_ENS_10shared_ptrINS2_10ActivationEEERT_EUlPS7_E_NS_9allocatorIS3_EEED1Ev, symObjAddr: 0x2E10, symBinAddr: 0x8B78C, symSize: 0x4 }
  - { offset: 0x5A4382, size: 0x8, addend: 0x0, symName: __ZNSt3__120__shared_ptr_pointerIPN3nam11activations18ActivationFastTanhEZ18make_singleton_ptrIS3_ENS_10shared_ptrINS2_10ActivationEEERT_EUlPS7_E_NS_9allocatorIS3_EEED1Ev, symObjAddr: 0x2E10, symBinAddr: 0x8B78C, symSize: 0x4 }
  - { offset: 0x5A43BD, size: 0x8, addend: 0x0, symName: __ZNSt3__120__shared_ptr_pointerIPN3nam11activations18ActivationFastTanhEZ18make_singleton_ptrIS3_ENS_10shared_ptrINS2_10ActivationEEERT_EUlPS7_E_NS_9allocatorIS3_EEED0Ev, symObjAddr: 0x2E14, symBinAddr: 0x8B790, symSize: 0x14 }
  - { offset: 0x5A4424, size: 0x8, addend: 0x0, symName: __ZNSt3__120__shared_ptr_pointerIPN3nam11activations18ActivationFastTanhEZ18make_singleton_ptrIS3_ENS_10shared_ptrINS2_10ActivationEEERT_EUlPS7_E_NS_9allocatorIS3_EEE16__on_zero_sharedEv, symObjAddr: 0x2E28, symBinAddr: 0x8B7A4, symSize: 0x4 }
  - { offset: 0x5A4447, size: 0x8, addend: 0x0, symName: __ZNKSt3__120__shared_ptr_pointerIPN3nam11activations18ActivationFastTanhEZ18make_singleton_ptrIS3_ENS_10shared_ptrINS2_10ActivationEEERT_EUlPS7_E_NS_9allocatorIS3_EEE13__get_deleterERKSt9type_info, symObjAddr: 0x2E2C, symBinAddr: 0x8B7A8, symSize: 0x60 }
  - { offset: 0x5A4549, size: 0x8, addend: 0x0, symName: __ZNSt3__120__shared_ptr_pointerIPN3nam11activations18ActivationFastTanhEZ18make_singleton_ptrIS3_ENS_10shared_ptrINS2_10ActivationEEERT_EUlPS7_E_NS_9allocatorIS3_EEE21__on_zero_shared_weakEv, symObjAddr: 0x2E8C, symBinAddr: 0x8B808, symSize: 0x4 }
  - { offset: 0x5A457D, size: 0x8, addend: 0x0, symName: __ZNSt3__120__shared_ptr_pointerIPN3nam11activations18ActivationFastTanhEZ18make_singleton_ptrIS3_ENS_10shared_ptrINS2_10ActivationEEERT_EUlPS7_E_NS_9allocatorIS3_EEE21__on_zero_shared_weakEv, symObjAddr: 0x2E8C, symBinAddr: 0x8B808, symSize: 0x4 }
  - { offset: 0x5A45A1, size: 0x8, addend: 0x0, symName: __ZNSt3__120__shared_ptr_pointerIPN3nam11activations18ActivationFastTanhEZ18make_singleton_ptrIS3_ENS_10shared_ptrINS2_10ActivationEEERT_EUlPS7_E_NS_9allocatorIS3_EEE21__on_zero_shared_weakEv, symObjAddr: 0x2E8C, symBinAddr: 0x8B808, symSize: 0x4 }
  - { offset: 0x5A4608, size: 0x8, addend: 0x0, symName: __ZNSt3__120__shared_ptr_pointerIPN3nam11activations14ActivationReLUEZ18make_singleton_ptrIS3_ENS_10shared_ptrINS2_10ActivationEEERT_EUlPS7_E_NS_9allocatorIS3_EEED1Ev, symObjAddr: 0x2E90, symBinAddr: 0x8B80C, symSize: 0x4 }
  - { offset: 0x5A462C, size: 0x8, addend: 0x0, symName: __ZNSt3__120__shared_ptr_pointerIPN3nam11activations14ActivationReLUEZ18make_singleton_ptrIS3_ENS_10shared_ptrINS2_10ActivationEEERT_EUlPS7_E_NS_9allocatorIS3_EEED1Ev, symObjAddr: 0x2E90, symBinAddr: 0x8B80C, symSize: 0x4 }
  - { offset: 0x5A4667, size: 0x8, addend: 0x0, symName: __ZNSt3__120__shared_ptr_pointerIPN3nam11activations14ActivationReLUEZ18make_singleton_ptrIS3_ENS_10shared_ptrINS2_10ActivationEEERT_EUlPS7_E_NS_9allocatorIS3_EEED0Ev, symObjAddr: 0x2E94, symBinAddr: 0x8B810, symSize: 0x14 }
  - { offset: 0x5A46CE, size: 0x8, addend: 0x0, symName: __ZNSt3__120__shared_ptr_pointerIPN3nam11activations14ActivationReLUEZ18make_singleton_ptrIS3_ENS_10shared_ptrINS2_10ActivationEEERT_EUlPS7_E_NS_9allocatorIS3_EEE16__on_zero_sharedEv, symObjAddr: 0x2EA8, symBinAddr: 0x8B824, symSize: 0x4 }
  - { offset: 0x5A46F1, size: 0x8, addend: 0x0, symName: __ZNKSt3__120__shared_ptr_pointerIPN3nam11activations14ActivationReLUEZ18make_singleton_ptrIS3_ENS_10shared_ptrINS2_10ActivationEEERT_EUlPS7_E_NS_9allocatorIS3_EEE13__get_deleterERKSt9type_info, symObjAddr: 0x2EAC, symBinAddr: 0x8B828, symSize: 0x60 }
  - { offset: 0x5A47F3, size: 0x8, addend: 0x0, symName: __ZNSt3__120__shared_ptr_pointerIPN3nam11activations14ActivationReLUEZ18make_singleton_ptrIS3_ENS_10shared_ptrINS2_10ActivationEEERT_EUlPS7_E_NS_9allocatorIS3_EEE21__on_zero_shared_weakEv, symObjAddr: 0x2F0C, symBinAddr: 0x8B888, symSize: 0x4 }
  - { offset: 0x5A4827, size: 0x8, addend: 0x0, symName: __ZNSt3__120__shared_ptr_pointerIPN3nam11activations14ActivationReLUEZ18make_singleton_ptrIS3_ENS_10shared_ptrINS2_10ActivationEEERT_EUlPS7_E_NS_9allocatorIS3_EEE21__on_zero_shared_weakEv, symObjAddr: 0x2F0C, symBinAddr: 0x8B888, symSize: 0x4 }
  - { offset: 0x5A484B, size: 0x8, addend: 0x0, symName: __ZNSt3__120__shared_ptr_pointerIPN3nam11activations14ActivationReLUEZ18make_singleton_ptrIS3_ENS_10shared_ptrINS2_10ActivationEEERT_EUlPS7_E_NS_9allocatorIS3_EEE21__on_zero_shared_weakEv, symObjAddr: 0x2F0C, symBinAddr: 0x8B888, symSize: 0x4 }
  - { offset: 0x5A48B2, size: 0x8, addend: 0x0, symName: __ZNSt3__120__shared_ptr_pointerIPN3nam11activations19ActivationLeakyReLUEZ18make_singleton_ptrIS3_ENS_10shared_ptrINS2_10ActivationEEERT_EUlPS7_E_NS_9allocatorIS3_EEED1Ev, symObjAddr: 0x2F10, symBinAddr: 0x8B88C, symSize: 0x4 }
  - { offset: 0x5A48D6, size: 0x8, addend: 0x0, symName: __ZNSt3__120__shared_ptr_pointerIPN3nam11activations19ActivationLeakyReLUEZ18make_singleton_ptrIS3_ENS_10shared_ptrINS2_10ActivationEEERT_EUlPS7_E_NS_9allocatorIS3_EEED1Ev, symObjAddr: 0x2F10, symBinAddr: 0x8B88C, symSize: 0x4 }
  - { offset: 0x5A4911, size: 0x8, addend: 0x0, symName: __ZNSt3__120__shared_ptr_pointerIPN3nam11activations19ActivationLeakyReLUEZ18make_singleton_ptrIS3_ENS_10shared_ptrINS2_10ActivationEEERT_EUlPS7_E_NS_9allocatorIS3_EEED0Ev, symObjAddr: 0x2F14, symBinAddr: 0x8B890, symSize: 0x14 }
  - { offset: 0x5A4978, size: 0x8, addend: 0x0, symName: __ZNSt3__120__shared_ptr_pointerIPN3nam11activations19ActivationLeakyReLUEZ18make_singleton_ptrIS3_ENS_10shared_ptrINS2_10ActivationEEERT_EUlPS7_E_NS_9allocatorIS3_EEE16__on_zero_sharedEv, symObjAddr: 0x2F28, symBinAddr: 0x8B8A4, symSize: 0x4 }
  - { offset: 0x5A499B, size: 0x8, addend: 0x0, symName: __ZNKSt3__120__shared_ptr_pointerIPN3nam11activations19ActivationLeakyReLUEZ18make_singleton_ptrIS3_ENS_10shared_ptrINS2_10ActivationEEERT_EUlPS7_E_NS_9allocatorIS3_EEE13__get_deleterERKSt9type_info, symObjAddr: 0x2F2C, symBinAddr: 0x8B8A8, symSize: 0x60 }
  - { offset: 0x5A4A9D, size: 0x8, addend: 0x0, symName: __ZNSt3__120__shared_ptr_pointerIPN3nam11activations19ActivationLeakyReLUEZ18make_singleton_ptrIS3_ENS_10shared_ptrINS2_10ActivationEEERT_EUlPS7_E_NS_9allocatorIS3_EEE21__on_zero_shared_weakEv, symObjAddr: 0x2F8C, symBinAddr: 0x8B908, symSize: 0x4 }
  - { offset: 0x5A4AD1, size: 0x8, addend: 0x0, symName: __ZNSt3__120__shared_ptr_pointerIPN3nam11activations19ActivationLeakyReLUEZ18make_singleton_ptrIS3_ENS_10shared_ptrINS2_10ActivationEEERT_EUlPS7_E_NS_9allocatorIS3_EEE21__on_zero_shared_weakEv, symObjAddr: 0x2F8C, symBinAddr: 0x8B908, symSize: 0x4 }
  - { offset: 0x5A4AF5, size: 0x8, addend: 0x0, symName: __ZNSt3__120__shared_ptr_pointerIPN3nam11activations19ActivationLeakyReLUEZ18make_singleton_ptrIS3_ENS_10shared_ptrINS2_10ActivationEEERT_EUlPS7_E_NS_9allocatorIS3_EEE21__on_zero_shared_weakEv, symObjAddr: 0x2F8C, symBinAddr: 0x8B908, symSize: 0x4 }
  - { offset: 0x5A4B5C, size: 0x8, addend: 0x0, symName: __ZNSt3__120__shared_ptr_pointerIPN3nam11activations17ActivationSigmoidEZ18make_singleton_ptrIS3_ENS_10shared_ptrINS2_10ActivationEEERT_EUlPS7_E_NS_9allocatorIS3_EEED1Ev, symObjAddr: 0x2F90, symBinAddr: 0x8B90C, symSize: 0x4 }
  - { offset: 0x5A4B80, size: 0x8, addend: 0x0, symName: __ZNSt3__120__shared_ptr_pointerIPN3nam11activations17ActivationSigmoidEZ18make_singleton_ptrIS3_ENS_10shared_ptrINS2_10ActivationEEERT_EUlPS7_E_NS_9allocatorIS3_EEED1Ev, symObjAddr: 0x2F90, symBinAddr: 0x8B90C, symSize: 0x4 }
  - { offset: 0x5A4BBB, size: 0x8, addend: 0x0, symName: __ZNSt3__120__shared_ptr_pointerIPN3nam11activations17ActivationSigmoidEZ18make_singleton_ptrIS3_ENS_10shared_ptrINS2_10ActivationEEERT_EUlPS7_E_NS_9allocatorIS3_EEED0Ev, symObjAddr: 0x2F94, symBinAddr: 0x8B910, symSize: 0x14 }
  - { offset: 0x5A4C22, size: 0x8, addend: 0x0, symName: __ZNSt3__120__shared_ptr_pointerIPN3nam11activations17ActivationSigmoidEZ18make_singleton_ptrIS3_ENS_10shared_ptrINS2_10ActivationEEERT_EUlPS7_E_NS_9allocatorIS3_EEE16__on_zero_sharedEv, symObjAddr: 0x2FA8, symBinAddr: 0x8B924, symSize: 0x4 }
  - { offset: 0x5A4C45, size: 0x8, addend: 0x0, symName: __ZNKSt3__120__shared_ptr_pointerIPN3nam11activations17ActivationSigmoidEZ18make_singleton_ptrIS3_ENS_10shared_ptrINS2_10ActivationEEERT_EUlPS7_E_NS_9allocatorIS3_EEE13__get_deleterERKSt9type_info, symObjAddr: 0x2FAC, symBinAddr: 0x8B928, symSize: 0x60 }
  - { offset: 0x5A4D47, size: 0x8, addend: 0x0, symName: __ZNSt3__120__shared_ptr_pointerIPN3nam11activations17ActivationSigmoidEZ18make_singleton_ptrIS3_ENS_10shared_ptrINS2_10ActivationEEERT_EUlPS7_E_NS_9allocatorIS3_EEE21__on_zero_shared_weakEv, symObjAddr: 0x300C, symBinAddr: 0x8B988, symSize: 0x4 }
  - { offset: 0x5A4D7B, size: 0x8, addend: 0x0, symName: __ZNSt3__120__shared_ptr_pointerIPN3nam11activations17ActivationSigmoidEZ18make_singleton_ptrIS3_ENS_10shared_ptrINS2_10ActivationEEERT_EUlPS7_E_NS_9allocatorIS3_EEE21__on_zero_shared_weakEv, symObjAddr: 0x300C, symBinAddr: 0x8B988, symSize: 0x4 }
  - { offset: 0x5A4D9F, size: 0x8, addend: 0x0, symName: __ZNSt3__120__shared_ptr_pointerIPN3nam11activations17ActivationSigmoidEZ18make_singleton_ptrIS3_ENS_10shared_ptrINS2_10ActivationEEERT_EUlPS7_E_NS_9allocatorIS3_EEE21__on_zero_shared_weakEv, symObjAddr: 0x300C, symBinAddr: 0x8B988, symSize: 0x4 }
  - { offset: 0x5A4E06, size: 0x8, addend: 0x0, symName: __ZNSt3__120__shared_ptr_pointerIPN3nam11activations15ActivationSwishEZ18make_singleton_ptrIS3_ENS_10shared_ptrINS2_10ActivationEEERT_EUlPS7_E_NS_9allocatorIS3_EEED1Ev, symObjAddr: 0x3010, symBinAddr: 0x8B98C, symSize: 0x4 }
  - { offset: 0x5A4E2A, size: 0x8, addend: 0x0, symName: __ZNSt3__120__shared_ptr_pointerIPN3nam11activations15ActivationSwishEZ18make_singleton_ptrIS3_ENS_10shared_ptrINS2_10ActivationEEERT_EUlPS7_E_NS_9allocatorIS3_EEED1Ev, symObjAddr: 0x3010, symBinAddr: 0x8B98C, symSize: 0x4 }
  - { offset: 0x5A4E65, size: 0x8, addend: 0x0, symName: __ZNSt3__120__shared_ptr_pointerIPN3nam11activations15ActivationSwishEZ18make_singleton_ptrIS3_ENS_10shared_ptrINS2_10ActivationEEERT_EUlPS7_E_NS_9allocatorIS3_EEED0Ev, symObjAddr: 0x3014, symBinAddr: 0x8B990, symSize: 0x14 }
  - { offset: 0x5A4ECC, size: 0x8, addend: 0x0, symName: __ZNSt3__120__shared_ptr_pointerIPN3nam11activations15ActivationSwishEZ18make_singleton_ptrIS3_ENS_10shared_ptrINS2_10ActivationEEERT_EUlPS7_E_NS_9allocatorIS3_EEE16__on_zero_sharedEv, symObjAddr: 0x3028, symBinAddr: 0x8B9A4, symSize: 0x4 }
  - { offset: 0x5A4EEF, size: 0x8, addend: 0x0, symName: __ZNKSt3__120__shared_ptr_pointerIPN3nam11activations15ActivationSwishEZ18make_singleton_ptrIS3_ENS_10shared_ptrINS2_10ActivationEEERT_EUlPS7_E_NS_9allocatorIS3_EEE13__get_deleterERKSt9type_info, symObjAddr: 0x302C, symBinAddr: 0x8B9A8, symSize: 0x60 }
  - { offset: 0x5A4FF1, size: 0x8, addend: 0x0, symName: __ZNSt3__120__shared_ptr_pointerIPN3nam11activations15ActivationSwishEZ18make_singleton_ptrIS3_ENS_10shared_ptrINS2_10ActivationEEERT_EUlPS7_E_NS_9allocatorIS3_EEE21__on_zero_shared_weakEv, symObjAddr: 0x308C, symBinAddr: 0x8BA08, symSize: 0x4 }
  - { offset: 0x5A5025, size: 0x8, addend: 0x0, symName: __ZNSt3__120__shared_ptr_pointerIPN3nam11activations15ActivationSwishEZ18make_singleton_ptrIS3_ENS_10shared_ptrINS2_10ActivationEEERT_EUlPS7_E_NS_9allocatorIS3_EEE21__on_zero_shared_weakEv, symObjAddr: 0x308C, symBinAddr: 0x8BA08, symSize: 0x4 }
  - { offset: 0x5A5049, size: 0x8, addend: 0x0, symName: __ZNSt3__120__shared_ptr_pointerIPN3nam11activations15ActivationSwishEZ18make_singleton_ptrIS3_ENS_10shared_ptrINS2_10ActivationEEERT_EUlPS7_E_NS_9allocatorIS3_EEE21__on_zero_shared_weakEv, symObjAddr: 0x308C, symBinAddr: 0x8BA08, symSize: 0x4 }
  - { offset: 0x5A50B0, size: 0x8, addend: 0x0, symName: __ZNSt3__120__shared_ptr_pointerIPN3nam11activations19ActivationHardSwishEZ18make_singleton_ptrIS3_ENS_10shared_ptrINS2_10ActivationEEERT_EUlPS7_E_NS_9allocatorIS3_EEED1Ev, symObjAddr: 0x3090, symBinAddr: 0x8BA0C, symSize: 0x4 }
  - { offset: 0x5A50D4, size: 0x8, addend: 0x0, symName: __ZNSt3__120__shared_ptr_pointerIPN3nam11activations19ActivationHardSwishEZ18make_singleton_ptrIS3_ENS_10shared_ptrINS2_10ActivationEEERT_EUlPS7_E_NS_9allocatorIS3_EEED1Ev, symObjAddr: 0x3090, symBinAddr: 0x8BA0C, symSize: 0x4 }
  - { offset: 0x5A510F, size: 0x8, addend: 0x0, symName: __ZNSt3__120__shared_ptr_pointerIPN3nam11activations19ActivationHardSwishEZ18make_singleton_ptrIS3_ENS_10shared_ptrINS2_10ActivationEEERT_EUlPS7_E_NS_9allocatorIS3_EEED0Ev, symObjAddr: 0x3094, symBinAddr: 0x8BA10, symSize: 0x14 }
  - { offset: 0x5A5176, size: 0x8, addend: 0x0, symName: __ZNSt3__120__shared_ptr_pointerIPN3nam11activations19ActivationHardSwishEZ18make_singleton_ptrIS3_ENS_10shared_ptrINS2_10ActivationEEERT_EUlPS7_E_NS_9allocatorIS3_EEE16__on_zero_sharedEv, symObjAddr: 0x30A8, symBinAddr: 0x8BA24, symSize: 0x4 }
  - { offset: 0x5A5199, size: 0x8, addend: 0x0, symName: __ZNKSt3__120__shared_ptr_pointerIPN3nam11activations19ActivationHardSwishEZ18make_singleton_ptrIS3_ENS_10shared_ptrINS2_10ActivationEEERT_EUlPS7_E_NS_9allocatorIS3_EEE13__get_deleterERKSt9type_info, symObjAddr: 0x30AC, symBinAddr: 0x8BA28, symSize: 0x60 }
  - { offset: 0x5A529B, size: 0x8, addend: 0x0, symName: __ZNSt3__120__shared_ptr_pointerIPN3nam11activations19ActivationHardSwishEZ18make_singleton_ptrIS3_ENS_10shared_ptrINS2_10ActivationEEERT_EUlPS7_E_NS_9allocatorIS3_EEE21__on_zero_shared_weakEv, symObjAddr: 0x310C, symBinAddr: 0x8BA88, symSize: 0x4 }
  - { offset: 0x5A52CF, size: 0x8, addend: 0x0, symName: __ZNSt3__120__shared_ptr_pointerIPN3nam11activations19ActivationHardSwishEZ18make_singleton_ptrIS3_ENS_10shared_ptrINS2_10ActivationEEERT_EUlPS7_E_NS_9allocatorIS3_EEE21__on_zero_shared_weakEv, symObjAddr: 0x310C, symBinAddr: 0x8BA88, symSize: 0x4 }
  - { offset: 0x5A52F3, size: 0x8, addend: 0x0, symName: __ZNSt3__120__shared_ptr_pointerIPN3nam11activations19ActivationHardSwishEZ18make_singleton_ptrIS3_ENS_10shared_ptrINS2_10ActivationEEERT_EUlPS7_E_NS_9allocatorIS3_EEE21__on_zero_shared_weakEv, symObjAddr: 0x310C, symBinAddr: 0x8BA88, symSize: 0x4 }
  - { offset: 0x5A535A, size: 0x8, addend: 0x0, symName: __ZNSt3__120__shared_ptr_pointerIPN3nam11activations23ActivationLeakyHardTanhEZ18make_singleton_ptrIS3_ENS_10shared_ptrINS2_10ActivationEEERT_EUlPS7_E_NS_9allocatorIS3_EEED1Ev, symObjAddr: 0x3110, symBinAddr: 0x8BA8C, symSize: 0x4 }
  - { offset: 0x5A537E, size: 0x8, addend: 0x0, symName: __ZNSt3__120__shared_ptr_pointerIPN3nam11activations23ActivationLeakyHardTanhEZ18make_singleton_ptrIS3_ENS_10shared_ptrINS2_10ActivationEEERT_EUlPS7_E_NS_9allocatorIS3_EEED1Ev, symObjAddr: 0x3110, symBinAddr: 0x8BA8C, symSize: 0x4 }
  - { offset: 0x5A53B9, size: 0x8, addend: 0x0, symName: __ZNSt3__120__shared_ptr_pointerIPN3nam11activations23ActivationLeakyHardTanhEZ18make_singleton_ptrIS3_ENS_10shared_ptrINS2_10ActivationEEERT_EUlPS7_E_NS_9allocatorIS3_EEED0Ev, symObjAddr: 0x3114, symBinAddr: 0x8BA90, symSize: 0x14 }
  - { offset: 0x5A5420, size: 0x8, addend: 0x0, symName: __ZNSt3__120__shared_ptr_pointerIPN3nam11activations23ActivationLeakyHardTanhEZ18make_singleton_ptrIS3_ENS_10shared_ptrINS2_10ActivationEEERT_EUlPS7_E_NS_9allocatorIS3_EEE16__on_zero_sharedEv, symObjAddr: 0x3128, symBinAddr: 0x8BAA4, symSize: 0x4 }
  - { offset: 0x5A5443, size: 0x8, addend: 0x0, symName: __ZNKSt3__120__shared_ptr_pointerIPN3nam11activations23ActivationLeakyHardTanhEZ18make_singleton_ptrIS3_ENS_10shared_ptrINS2_10ActivationEEERT_EUlPS7_E_NS_9allocatorIS3_EEE13__get_deleterERKSt9type_info, symObjAddr: 0x312C, symBinAddr: 0x8BAA8, symSize: 0x60 }
  - { offset: 0x5A5545, size: 0x8, addend: 0x0, symName: __ZNSt3__120__shared_ptr_pointerIPN3nam11activations23ActivationLeakyHardTanhEZ18make_singleton_ptrIS3_ENS_10shared_ptrINS2_10ActivationEEERT_EUlPS7_E_NS_9allocatorIS3_EEE21__on_zero_shared_weakEv, symObjAddr: 0x318C, symBinAddr: 0x8BB08, symSize: 0x4 }
  - { offset: 0x5A5579, size: 0x8, addend: 0x0, symName: __ZNSt3__120__shared_ptr_pointerIPN3nam11activations23ActivationLeakyHardTanhEZ18make_singleton_ptrIS3_ENS_10shared_ptrINS2_10ActivationEEERT_EUlPS7_E_NS_9allocatorIS3_EEE21__on_zero_shared_weakEv, symObjAddr: 0x318C, symBinAddr: 0x8BB08, symSize: 0x4 }
  - { offset: 0x5A559D, size: 0x8, addend: 0x0, symName: __ZNSt3__120__shared_ptr_pointerIPN3nam11activations23ActivationLeakyHardTanhEZ18make_singleton_ptrIS3_ENS_10shared_ptrINS2_10ActivationEEERT_EUlPS7_E_NS_9allocatorIS3_EEE21__on_zero_shared_weakEv, symObjAddr: 0x318C, symBinAddr: 0x8BB08, symSize: 0x4 }
  - { offset: 0x5A5604, size: 0x8, addend: 0x0, symName: __ZNSt3__120__shared_ptr_pointerIPN3nam11activations15ActivationPReLUEZ18make_singleton_ptrIS3_ENS_10shared_ptrINS2_10ActivationEEERT_EUlPS7_E_NS_9allocatorIS3_EEED1Ev, symObjAddr: 0x3190, symBinAddr: 0x8BB0C, symSize: 0x4 }
  - { offset: 0x5A5628, size: 0x8, addend: 0x0, symName: __ZNSt3__120__shared_ptr_pointerIPN3nam11activations15ActivationPReLUEZ18make_singleton_ptrIS3_ENS_10shared_ptrINS2_10ActivationEEERT_EUlPS7_E_NS_9allocatorIS3_EEED1Ev, symObjAddr: 0x3190, symBinAddr: 0x8BB0C, symSize: 0x4 }
  - { offset: 0x5A5663, size: 0x8, addend: 0x0, symName: __ZNSt3__120__shared_ptr_pointerIPN3nam11activations15ActivationPReLUEZ18make_singleton_ptrIS3_ENS_10shared_ptrINS2_10ActivationEEERT_EUlPS7_E_NS_9allocatorIS3_EEED0Ev, symObjAddr: 0x3194, symBinAddr: 0x8BB10, symSize: 0x14 }
  - { offset: 0x5A56CA, size: 0x8, addend: 0x0, symName: __ZNSt3__120__shared_ptr_pointerIPN3nam11activations15ActivationPReLUEZ18make_singleton_ptrIS3_ENS_10shared_ptrINS2_10ActivationEEERT_EUlPS7_E_NS_9allocatorIS3_EEE16__on_zero_sharedEv, symObjAddr: 0x31A8, symBinAddr: 0x8BB24, symSize: 0x4 }
  - { offset: 0x5A56ED, size: 0x8, addend: 0x0, symName: __ZNKSt3__120__shared_ptr_pointerIPN3nam11activations15ActivationPReLUEZ18make_singleton_ptrIS3_ENS_10shared_ptrINS2_10ActivationEEERT_EUlPS7_E_NS_9allocatorIS3_EEE13__get_deleterERKSt9type_info, symObjAddr: 0x31AC, symBinAddr: 0x8BB28, symSize: 0x60 }
  - { offset: 0x5A57EF, size: 0x8, addend: 0x0, symName: __ZNSt3__120__shared_ptr_pointerIPN3nam11activations15ActivationPReLUEZ18make_singleton_ptrIS3_ENS_10shared_ptrINS2_10ActivationEEERT_EUlPS7_E_NS_9allocatorIS3_EEE21__on_zero_shared_weakEv, symObjAddr: 0x320C, symBinAddr: 0x8BB88, symSize: 0x4 }
  - { offset: 0x5A5823, size: 0x8, addend: 0x0, symName: __ZNSt3__120__shared_ptr_pointerIPN3nam11activations15ActivationPReLUEZ18make_singleton_ptrIS3_ENS_10shared_ptrINS2_10ActivationEEERT_EUlPS7_E_NS_9allocatorIS3_EEE21__on_zero_shared_weakEv, symObjAddr: 0x320C, symBinAddr: 0x8BB88, symSize: 0x4 }
  - { offset: 0x5A5847, size: 0x8, addend: 0x0, symName: __ZNSt3__120__shared_ptr_pointerIPN3nam11activations15ActivationPReLUEZ18make_singleton_ptrIS3_ENS_10shared_ptrINS2_10ActivationEEERT_EUlPS7_E_NS_9allocatorIS3_EEE21__on_zero_shared_weakEv, symObjAddr: 0x320C, symBinAddr: 0x8BB88, symSize: 0x4 }
  - { offset: 0x5A58AE, size: 0x8, addend: 0x0, symName: __ZNSt3__120__shared_ptr_pointerIPN3nam11activations18ActivationSoftsignEZ18make_singleton_ptrIS3_ENS_10shared_ptrINS2_10ActivationEEERT_EUlPS7_E_NS_9allocatorIS3_EEED1Ev, symObjAddr: 0x3210, symBinAddr: 0x8BB8C, symSize: 0x4 }
  - { offset: 0x5A58D2, size: 0x8, addend: 0x0, symName: __ZNSt3__120__shared_ptr_pointerIPN3nam11activations18ActivationSoftsignEZ18make_singleton_ptrIS3_ENS_10shared_ptrINS2_10ActivationEEERT_EUlPS7_E_NS_9allocatorIS3_EEED1Ev, symObjAddr: 0x3210, symBinAddr: 0x8BB8C, symSize: 0x4 }
  - { offset: 0x5A590D, size: 0x8, addend: 0x0, symName: __ZNSt3__120__shared_ptr_pointerIPN3nam11activations18ActivationSoftsignEZ18make_singleton_ptrIS3_ENS_10shared_ptrINS2_10ActivationEEERT_EUlPS7_E_NS_9allocatorIS3_EEED0Ev, symObjAddr: 0x3214, symBinAddr: 0x8BB90, symSize: 0x14 }
  - { offset: 0x5A5974, size: 0x8, addend: 0x0, symName: __ZNSt3__120__shared_ptr_pointerIPN3nam11activations18ActivationSoftsignEZ18make_singleton_ptrIS3_ENS_10shared_ptrINS2_10ActivationEEERT_EUlPS7_E_NS_9allocatorIS3_EEE16__on_zero_sharedEv, symObjAddr: 0x3228, symBinAddr: 0x8BBA4, symSize: 0x4 }
  - { offset: 0x5A5997, size: 0x8, addend: 0x0, symName: __ZNKSt3__120__shared_ptr_pointerIPN3nam11activations18ActivationSoftsignEZ18make_singleton_ptrIS3_ENS_10shared_ptrINS2_10ActivationEEERT_EUlPS7_E_NS_9allocatorIS3_EEE13__get_deleterERKSt9type_info, symObjAddr: 0x322C, symBinAddr: 0x8BBA8, symSize: 0x60 }
  - { offset: 0x5A5A99, size: 0x8, addend: 0x0, symName: __ZNSt3__120__shared_ptr_pointerIPN3nam11activations18ActivationSoftsignEZ18make_singleton_ptrIS3_ENS_10shared_ptrINS2_10ActivationEEERT_EUlPS7_E_NS_9allocatorIS3_EEE21__on_zero_shared_weakEv, symObjAddr: 0x328C, symBinAddr: 0x8BC08, symSize: 0x4 }
  - { offset: 0x5A5ACD, size: 0x8, addend: 0x0, symName: __ZNSt3__120__shared_ptr_pointerIPN3nam11activations18ActivationSoftsignEZ18make_singleton_ptrIS3_ENS_10shared_ptrINS2_10ActivationEEERT_EUlPS7_E_NS_9allocatorIS3_EEE21__on_zero_shared_weakEv, symObjAddr: 0x328C, symBinAddr: 0x8BC08, symSize: 0x4 }
  - { offset: 0x5A5AF1, size: 0x8, addend: 0x0, symName: __ZNSt3__120__shared_ptr_pointerIPN3nam11activations18ActivationSoftsignEZ18make_singleton_ptrIS3_ENS_10shared_ptrINS2_10ActivationEEERT_EUlPS7_E_NS_9allocatorIS3_EEE21__on_zero_shared_weakEv, symObjAddr: 0x328C, symBinAddr: 0x8BC08, symSize: 0x4 }
  - { offset: 0x5A5B32, size: 0x8, addend: 0x0, symName: __ZNSt3__112__hash_tableINS_17__hash_value_typeINS_12basic_stringIcNS_11char_traitsIcEENS_9allocatorIcEEEENS_10shared_ptrIN3nam11activations10ActivationEEEEENS_22__unordered_map_hasherIS7_NS_4pairIKS7_SC_EENS_4hashIS7_EENS_8equal_toIS7_EELb1EEENS_21__unordered_map_equalIS7_SH_SL_SJ_Lb1EEENS5_ISH_EEED1Ev, symObjAddr: 0x3290, symBinAddr: 0x8BC0C, symSize: 0xB8 }
  - { offset: 0x5A62BE, size: 0x8, addend: 0x0, symName: __ZNSt3__112__hash_tableINS_17__hash_value_typeINS_12basic_stringIcNS_11char_traitsIcEENS_9allocatorIcEEEENS_10shared_ptrIN3nam11activations10ActivationEEEEENS_22__unordered_map_hasherIS7_NS_4pairIKS7_SC_EENS_4hashIS7_EENS_8equal_toIS7_EELb1EEENS_21__unordered_map_equalIS7_SH_SL_SJ_Lb1EEENS5_ISH_EEE25__emplace_unique_key_argsIS7_JRKSH_EEENSF_INS_15__hash_iteratorIPNS_11__hash_nodeISD_PvEEEEbEERKT_DpOT0_, symObjAddr: 0x3348, symBinAddr: 0x8BCC4, symSize: 0x404 }
  - { offset: 0x5A6B6A, size: 0x8, addend: 0x0, symName: __ZNSt3__112__hash_tableINS_17__hash_value_typeINS_12basic_stringIcNS_11char_traitsIcEENS_9allocatorIcEEEENS_10shared_ptrIN3nam11activations10ActivationEEEEENS_22__unordered_map_hasherIS7_NS_4pairIKS7_SC_EENS_4hashIS7_EENS_8equal_toIS7_EELb1EEENS_21__unordered_map_equalIS7_SH_SL_SJ_Lb1EEENS5_ISH_EEE11__do_rehashILb1EEEvm, symObjAddr: 0x37F0, symBinAddr: 0x8C16C, symSize: 0x1AC }
  - { offset: 0x5A6E7B, size: 0x8, addend: 0x0, symName: __ZNSt3__110unique_ptrINS_11__hash_nodeINS_17__hash_value_typeINS_12basic_stringIcNS_11char_traitsIcEENS_9allocatorIcEEEENS_10shared_ptrIN3nam11activations10ActivationEEEEEPvEENS_22__hash_node_destructorINS6_ISG_EEEEED1B9nqe210106Ev, symObjAddr: 0x374C, symBinAddr: 0x8C0C8, symSize: 0xA4 }
  - { offset: 0x5A75AA, size: 0x8, addend: 0x0, symName: __ZNSt3__120__shared_ptr_emplaceIN3nam11activations19ActivationLeakyReLUENS_9allocatorIS3_EEED1Ev, symObjAddr: 0x3FF8, symBinAddr: 0x8C914, symSize: 0x10 }
  - { offset: 0x5A75CE, size: 0x8, addend: 0x0, symName: __ZNSt3__120__shared_ptr_emplaceIN3nam11activations19ActivationLeakyReLUENS_9allocatorIS3_EEED1Ev, symObjAddr: 0x3FF8, symBinAddr: 0x8C914, symSize: 0x10 }
  - { offset: 0x5A7609, size: 0x8, addend: 0x0, symName: __ZNSt3__120__shared_ptr_emplaceIN3nam11activations19ActivationLeakyReLUENS_9allocatorIS3_EEED0Ev, symObjAddr: 0x4008, symBinAddr: 0x8C924, symSize: 0x20 }
  - { offset: 0x5A76DB, size: 0x8, addend: 0x0, symName: __ZNSt3__120__shared_ptr_emplaceIN3nam11activations19ActivationLeakyReLUENS_9allocatorIS3_EEE16__on_zero_sharedEv, symObjAddr: 0x4028, symBinAddr: 0x8C944, symSize: 0xC }
  - { offset: 0x5A7705, size: 0x8, addend: 0x0, symName: __ZNSt3__120__shared_ptr_emplaceIN3nam11activations19ActivationLeakyReLUENS_9allocatorIS3_EEE16__on_zero_sharedEv, symObjAddr: 0x4028, symBinAddr: 0x8C944, symSize: 0xC }
  - { offset: 0x5A7724, size: 0x8, addend: 0x0, symName: __ZNSt3__120__shared_ptr_emplaceIN3nam11activations19ActivationLeakyReLUENS_9allocatorIS3_EEE16__on_zero_sharedEv, symObjAddr: 0x4028, symBinAddr: 0x8C944, symSize: 0xC }
  - { offset: 0x5A7743, size: 0x8, addend: 0x0, symName: __ZNSt3__120__shared_ptr_emplaceIN3nam11activations19ActivationLeakyReLUENS_9allocatorIS3_EEE16__on_zero_sharedEv, symObjAddr: 0x4028, symBinAddr: 0x8C944, symSize: 0xC }
  - { offset: 0x5A77D2, size: 0x8, addend: 0x0, symName: __ZNSt3__120__shared_ptr_emplaceIN3nam11activations19ActivationLeakyReLUENS_9allocatorIS3_EEE21__on_zero_shared_weakEv, symObjAddr: 0x4034, symBinAddr: 0x8C950, symSize: 0x4 }
  - { offset: 0x5A7806, size: 0x8, addend: 0x0, symName: __ZNSt3__120__shared_ptr_emplaceIN3nam11activations19ActivationLeakyReLUENS_9allocatorIS3_EEE21__on_zero_shared_weakEv, symObjAddr: 0x4034, symBinAddr: 0x8C950, symSize: 0x4 }
  - { offset: 0x5A782A, size: 0x8, addend: 0x0, symName: __ZNSt3__120__shared_ptr_emplaceIN3nam11activations19ActivationLeakyReLUENS_9allocatorIS3_EEE21__on_zero_shared_weakEv, symObjAddr: 0x4034, symBinAddr: 0x8C950, symSize: 0x4 }
  - { offset: 0x5A784F, size: 0x8, addend: 0x0, symName: __ZNSt3__120__shared_ptr_emplaceIN3nam11activations19ActivationLeakyReLUENS_9allocatorIS3_EEE21__on_zero_shared_weakEv, symObjAddr: 0x4034, symBinAddr: 0x8C950, symSize: 0x4 }
  - { offset: 0x5A78B1, size: 0x8, addend: 0x0, symName: __ZNSt3__120__shared_ptr_emplaceIN3nam11activations15ActivationPReLUENS_9allocatorIS3_EEED1Ev, symObjAddr: 0x4038, symBinAddr: 0x8C954, symSize: 0x10 }
  - { offset: 0x5A78D5, size: 0x8, addend: 0x0, symName: __ZNSt3__120__shared_ptr_emplaceIN3nam11activations15ActivationPReLUENS_9allocatorIS3_EEED1Ev, symObjAddr: 0x4038, symBinAddr: 0x8C954, symSize: 0x10 }
  - { offset: 0x5A7910, size: 0x8, addend: 0x0, symName: __ZNSt3__120__shared_ptr_emplaceIN3nam11activations15ActivationPReLUENS_9allocatorIS3_EEED0Ev, symObjAddr: 0x4048, symBinAddr: 0x8C964, symSize: 0x20 }
  - { offset: 0x5A79E2, size: 0x8, addend: 0x0, symName: __ZNSt3__120__shared_ptr_emplaceIN3nam11activations15ActivationPReLUENS_9allocatorIS3_EEE16__on_zero_sharedEv, symObjAddr: 0x4068, symBinAddr: 0x8C984, symSize: 0xC }
  - { offset: 0x5A7A0C, size: 0x8, addend: 0x0, symName: __ZNSt3__120__shared_ptr_emplaceIN3nam11activations15ActivationPReLUENS_9allocatorIS3_EEE16__on_zero_sharedEv, symObjAddr: 0x4068, symBinAddr: 0x8C984, symSize: 0xC }
  - { offset: 0x5A7A2B, size: 0x8, addend: 0x0, symName: __ZNSt3__120__shared_ptr_emplaceIN3nam11activations15ActivationPReLUENS_9allocatorIS3_EEE16__on_zero_sharedEv, symObjAddr: 0x4068, symBinAddr: 0x8C984, symSize: 0xC }
  - { offset: 0x5A7A4A, size: 0x8, addend: 0x0, symName: __ZNSt3__120__shared_ptr_emplaceIN3nam11activations15ActivationPReLUENS_9allocatorIS3_EEE16__on_zero_sharedEv, symObjAddr: 0x4068, symBinAddr: 0x8C984, symSize: 0xC }
  - { offset: 0x5A7AD9, size: 0x8, addend: 0x0, symName: __ZNSt3__120__shared_ptr_emplaceIN3nam11activations15ActivationPReLUENS_9allocatorIS3_EEE21__on_zero_shared_weakEv, symObjAddr: 0x4074, symBinAddr: 0x8C990, symSize: 0x4 }
  - { offset: 0x5A7B0D, size: 0x8, addend: 0x0, symName: __ZNSt3__120__shared_ptr_emplaceIN3nam11activations15ActivationPReLUENS_9allocatorIS3_EEE21__on_zero_shared_weakEv, symObjAddr: 0x4074, symBinAddr: 0x8C990, symSize: 0x4 }
  - { offset: 0x5A7B31, size: 0x8, addend: 0x0, symName: __ZNSt3__120__shared_ptr_emplaceIN3nam11activations15ActivationPReLUENS_9allocatorIS3_EEE21__on_zero_shared_weakEv, symObjAddr: 0x4074, symBinAddr: 0x8C990, symSize: 0x4 }
  - { offset: 0x5A7B56, size: 0x8, addend: 0x0, symName: __ZNSt3__120__shared_ptr_emplaceIN3nam11activations15ActivationPReLUENS_9allocatorIS3_EEE21__on_zero_shared_weakEv, symObjAddr: 0x4074, symBinAddr: 0x8C990, symSize: 0x4 }
  - { offset: 0x5A7BB8, size: 0x8, addend: 0x0, symName: __ZNSt3__120__shared_ptr_emplaceIN3nam11activations23ActivationLeakyHardTanhENS_9allocatorIS3_EEED1Ev, symObjAddr: 0x4078, symBinAddr: 0x8C994, symSize: 0x10 }
  - { offset: 0x5A7BDC, size: 0x8, addend: 0x0, symName: __ZNSt3__120__shared_ptr_emplaceIN3nam11activations23ActivationLeakyHardTanhENS_9allocatorIS3_EEED1Ev, symObjAddr: 0x4078, symBinAddr: 0x8C994, symSize: 0x10 }
  - { offset: 0x5A7C17, size: 0x8, addend: 0x0, symName: __ZNSt3__120__shared_ptr_emplaceIN3nam11activations23ActivationLeakyHardTanhENS_9allocatorIS3_EEED0Ev, symObjAddr: 0x4088, symBinAddr: 0x8C9A4, symSize: 0x20 }
  - { offset: 0x5A7CE9, size: 0x8, addend: 0x0, symName: __ZNSt3__120__shared_ptr_emplaceIN3nam11activations23ActivationLeakyHardTanhENS_9allocatorIS3_EEE16__on_zero_sharedEv, symObjAddr: 0x40A8, symBinAddr: 0x8C9C4, symSize: 0xC }
  - { offset: 0x5A7D13, size: 0x8, addend: 0x0, symName: __ZNSt3__120__shared_ptr_emplaceIN3nam11activations23ActivationLeakyHardTanhENS_9allocatorIS3_EEE16__on_zero_sharedEv, symObjAddr: 0x40A8, symBinAddr: 0x8C9C4, symSize: 0xC }
  - { offset: 0x5A7D32, size: 0x8, addend: 0x0, symName: __ZNSt3__120__shared_ptr_emplaceIN3nam11activations23ActivationLeakyHardTanhENS_9allocatorIS3_EEE16__on_zero_sharedEv, symObjAddr: 0x40A8, symBinAddr: 0x8C9C4, symSize: 0xC }
  - { offset: 0x5A7D51, size: 0x8, addend: 0x0, symName: __ZNSt3__120__shared_ptr_emplaceIN3nam11activations23ActivationLeakyHardTanhENS_9allocatorIS3_EEE16__on_zero_sharedEv, symObjAddr: 0x40A8, symBinAddr: 0x8C9C4, symSize: 0xC }
  - { offset: 0x5A7DE0, size: 0x8, addend: 0x0, symName: __ZNSt3__120__shared_ptr_emplaceIN3nam11activations23ActivationLeakyHardTanhENS_9allocatorIS3_EEE21__on_zero_shared_weakEv, symObjAddr: 0x40B4, symBinAddr: 0x8C9D0, symSize: 0x4 }
  - { offset: 0x5A7E14, size: 0x8, addend: 0x0, symName: __ZNSt3__120__shared_ptr_emplaceIN3nam11activations23ActivationLeakyHardTanhENS_9allocatorIS3_EEE21__on_zero_shared_weakEv, symObjAddr: 0x40B4, symBinAddr: 0x8C9D0, symSize: 0x4 }
  - { offset: 0x5A7E38, size: 0x8, addend: 0x0, symName: __ZNSt3__120__shared_ptr_emplaceIN3nam11activations23ActivationLeakyHardTanhENS_9allocatorIS3_EEE21__on_zero_shared_weakEv, symObjAddr: 0x40B4, symBinAddr: 0x8C9D0, symSize: 0x4 }
  - { offset: 0x5A7E5D, size: 0x8, addend: 0x0, symName: __ZNSt3__120__shared_ptr_emplaceIN3nam11activations23ActivationLeakyHardTanhENS_9allocatorIS3_EEE21__on_zero_shared_weakEv, symObjAddr: 0x40B4, symBinAddr: 0x8C9D0, symSize: 0x4 }
  - { offset: 0x5A91D4, size: 0x8, addend: 0x0, symName: __GLOBAL__sub_I_activations.cpp, symObjAddr: 0x532C, symBinAddr: 0x8C9D4, symSize: 0xD6C }
  - { offset: 0x5AD954, size: 0x8, addend: 0x0, symName: __MergedGlobals, symObjAddr: 0x8700, symBinAddr: 0x2B4FA0, symSize: 0x0 }
  - { offset: 0x5ADB0F, size: 0x8, addend: 0x0, symName: __GLOBAL__sub_I_timer.cpp, symObjAddr: 0x54, symBinAddr: 0x8D740, symSize: 0xB0 }
  - { offset: 0x5B06D3, size: 0x8, addend: 0x0, symName: __MergedGlobals, symObjAddr: 0x117B90, symBinAddr: 0x2B4FC0, symSize: 0x0 }
  - { offset: 0x5B06F0, size: 0x8, addend: 0x0, symName: __MergedGlobals, symObjAddr: 0x117B90, symBinAddr: 0x2B4FC0, symSize: 0x0 }
  - { offset: 0x5B070D, size: 0x8, addend: 0x0, symName: __MergedGlobals, symObjAddr: 0x117B90, symBinAddr: 0x2B4FC0, symSize: 0x0 }
  - { offset: 0x5B072A, size: 0x8, addend: 0x0, symName: __MergedGlobals, symObjAddr: 0x117B90, symBinAddr: 0x2B4FC0, symSize: 0x0 }
  - { offset: 0x5B0747, size: 0x8, addend: 0x0, symName: __MergedGlobals, symObjAddr: 0x117B90, symBinAddr: 0x2B4FC0, symSize: 0x0 }
  - { offset: 0x5B0765, size: 0x8, addend: 0x0, symName: __MergedGlobals, symObjAddr: 0x117B90, symBinAddr: 0x2B4FC0, symSize: 0x0 }
  - { offset: 0x5B0783, size: 0x8, addend: 0x0, symName: __MergedGlobals, symObjAddr: 0x117B90, symBinAddr: 0x2B4FC0, symSize: 0x0 }
  - { offset: 0x5B07A1, size: 0x8, addend: 0x0, symName: __MergedGlobals, symObjAddr: 0x117B90, symBinAddr: 0x2B4FC0, symSize: 0x0 }
  - { offset: 0x5B07BF, size: 0x8, addend: 0x0, symName: __MergedGlobals, symObjAddr: 0x117B90, symBinAddr: 0x2B4FC0, symSize: 0x0 }
  - { offset: 0x5B07DD, size: 0x8, addend: 0x0, symName: __MergedGlobals, symObjAddr: 0x117B90, symBinAddr: 0x2B4FC0, symSize: 0x0 }
  - { offset: 0x5B07FB, size: 0x8, addend: 0x0, symName: __MergedGlobals, symObjAddr: 0x117B90, symBinAddr: 0x2B4FC0, symSize: 0x0 }
  - { offset: 0x5B0819, size: 0x8, addend: 0x0, symName: __MergedGlobals, symObjAddr: 0x117B90, symBinAddr: 0x2B4FC0, symSize: 0x0 }
  - { offset: 0x5B0837, size: 0x8, addend: 0x0, symName: __MergedGlobals, symObjAddr: 0x117B90, symBinAddr: 0x2B4FC0, symSize: 0x0 }
  - { offset: 0x5B0855, size: 0x8, addend: 0x0, symName: __MergedGlobals, symObjAddr: 0x117B90, symBinAddr: 0x2B4FC0, symSize: 0x0 }
  - { offset: 0x5B0873, size: 0x8, addend: 0x0, symName: __MergedGlobals, symObjAddr: 0x117B90, symBinAddr: 0x2B4FC0, symSize: 0x0 }
  - { offset: 0x5B0891, size: 0x8, addend: 0x0, symName: __MergedGlobals, symObjAddr: 0x117B90, symBinAddr: 0x2B4FC0, symSize: 0x0 }
  - { offset: 0x5B08AF, size: 0x8, addend: 0x0, symName: __MergedGlobals, symObjAddr: 0x117B90, symBinAddr: 0x2B4FC0, symSize: 0x0 }
  - { offset: 0x5B08CD, size: 0x8, addend: 0x0, symName: __MergedGlobals, symObjAddr: 0x117B90, symBinAddr: 0x2B4FC0, symSize: 0x0 }
  - { offset: 0x5B08E8, size: 0x8, addend: 0x0, symName: __MergedGlobals, symObjAddr: 0x117B90, symBinAddr: 0x2B4FC0, symSize: 0x0 }
  - { offset: 0x5B0905, size: 0x8, addend: 0x0, symName: __MergedGlobals, symObjAddr: 0x117B90, symBinAddr: 0x2B4FC0, symSize: 0x0 }
  - { offset: 0x5B0922, size: 0x8, addend: 0x0, symName: __MergedGlobals, symObjAddr: 0x117B90, symBinAddr: 0x2B4FC0, symSize: 0x0 }
  - { offset: 0x5B093F, size: 0x8, addend: 0x0, symName: __MergedGlobals, symObjAddr: 0x117B90, symBinAddr: 0x2B4FC0, symSize: 0x0 }
  - { offset: 0x5B095C, size: 0x8, addend: 0x0, symName: __MergedGlobals, symObjAddr: 0x117B90, symBinAddr: 0x2B4FC0, symSize: 0x0 }
  - { offset: 0x5B0979, size: 0x8, addend: 0x0, symName: __MergedGlobals, symObjAddr: 0x117B90, symBinAddr: 0x2B4FC0, symSize: 0x0 }
  - { offset: 0x5B0996, size: 0x8, addend: 0x0, symName: __MergedGlobals, symObjAddr: 0x117B90, symBinAddr: 0x2B4FC0, symSize: 0x0 }
  - { offset: 0x5B09B3, size: 0x8, addend: 0x0, symName: __MergedGlobals, symObjAddr: 0x117B90, symBinAddr: 0x2B4FC0, symSize: 0x0 }
  - { offset: 0x5B09D1, size: 0x8, addend: 0x0, symName: __MergedGlobals, symObjAddr: 0x117B90, symBinAddr: 0x2B4FC0, symSize: 0x0 }
  - { offset: 0x5B0A00, size: 0x8, addend: 0x0, symName: __MergedGlobals, symObjAddr: 0x117B90, symBinAddr: 0x2B4FC0, symSize: 0x0 }
  - { offset: 0x5B0A1E, size: 0x8, addend: 0x0, symName: __MergedGlobals, symObjAddr: 0x117B90, symBinAddr: 0x2B4FC0, symSize: 0x0 }
  - { offset: 0x5B0A3C, size: 0x8, addend: 0x0, symName: __MergedGlobals, symObjAddr: 0x117B90, symBinAddr: 0x2B4FC0, symSize: 0x0 }
  - { offset: 0x5B7BC4, size: 0x8, addend: 0x0, symName: __MergedGlobals, symObjAddr: 0x117B90, symBinAddr: 0x2B4FC0, symSize: 0x0 }
  - { offset: 0x5B7BE2, size: 0x8, addend: 0x0, symName: __MergedGlobals, symObjAddr: 0x117B90, symBinAddr: 0x2B4FC0, symSize: 0x0 }
  - { offset: 0x5B7C00, size: 0x8, addend: 0x0, symName: __MergedGlobals, symObjAddr: 0x117B90, symBinAddr: 0x2B4FC0, symSize: 0x0 }
  - { offset: 0x5B7C1E, size: 0x8, addend: 0x0, symName: __MergedGlobals, symObjAddr: 0x117B90, symBinAddr: 0x2B4FC0, symSize: 0x0 }
  - { offset: 0x5B7C3C, size: 0x8, addend: 0x0, symName: __MergedGlobals, symObjAddr: 0x117B90, symBinAddr: 0x2B4FC0, symSize: 0x0 }
  - { offset: 0x5B7C5A, size: 0x8, addend: 0x0, symName: __MergedGlobals, symObjAddr: 0x117B90, symBinAddr: 0x2B4FC0, symSize: 0x0 }
  - { offset: 0x5B7C78, size: 0x8, addend: 0x0, symName: __MergedGlobals, symObjAddr: 0x117B90, symBinAddr: 0x2B4FC0, symSize: 0x0 }
  - { offset: 0x5B7C96, size: 0x8, addend: 0x0, symName: __MergedGlobals, symObjAddr: 0x117B90, symBinAddr: 0x2B4FC0, symSize: 0x0 }
  - { offset: 0x5B7CB4, size: 0x8, addend: 0x0, symName: __MergedGlobals, symObjAddr: 0x117B90, symBinAddr: 0x2B4FC0, symSize: 0x0 }
  - { offset: 0x5B7CD2, size: 0x8, addend: 0x0, symName: __MergedGlobals, symObjAddr: 0x117B90, symBinAddr: 0x2B4FC0, symSize: 0x0 }
  - { offset: 0x5B7CF0, size: 0x8, addend: 0x0, symName: __MergedGlobals, symObjAddr: 0x117B90, symBinAddr: 0x2B4FC0, symSize: 0x0 }
  - { offset: 0x5B7DC0, size: 0x8, addend: 0x0, symName: __ZN5iplug9igraphics18NanoVGSetBlendModeEP10NVGcontextPKNS0_6IBlendE, symObjAddr: 0x2B78, symBinAddr: 0x90364, symSize: 0xCC }
  - { offset: 0x5B812E, size: 0x8, addend: 0x0, symName: __ZN5iplug9igraphics11NanoVGPaintEP10NVGcontextRKNS0_8IPatternEPKNS0_6IBlendE, symObjAddr: 0x2C44, symBinAddr: 0x90430, symSize: 0x21C }
  - { offset: 0x5B81B4, size: 0x8, addend: 0x0, symName: __ZN5iplug9igraphics11NanoVGPaintEP10NVGcontextRKNS0_8IPatternEPKNS0_6IBlendE, symObjAddr: 0x2C44, symBinAddr: 0x90430, symSize: 0x21C }
  - { offset: 0x5C8FB2, size: 0x8, addend: 0x0, symName: _sFontDescriptorCache, symObjAddr: 0x117AC8, symBinAddr: 0x1329D0, symSize: 0x0 }
  - { offset: 0x5C9028, size: 0x8, addend: 0x0, symName: __ZL10sFontCache, symObjAddr: 0x117B28, symBinAddr: 0x132A30, symSize: 0x0 }
  - { offset: 0x5C943B, size: 0x8, addend: 0x0, symName: __ZTVN5iplug9igraphics12IGraphicsMacE, symObjAddr: 0x80D0, symBinAddr: 0x125B38, symSize: 0x0 }
  - { offset: 0x5CA792, size: 0x8, addend: 0x0, symName: __ZTVN5iplug9igraphics15IGraphicsNanoVG6BitmapE, symObjAddr: 0x8500, symBinAddr: 0x125F68, symSize: 0x0 }
  - { offset: 0x5CA7BF, size: 0x8, addend: 0x0, symName: __ZTVN5iplug9igraphics15IGraphicsNanoVGE, symObjAddr: 0x8520, symBinAddr: 0x125F88, symSize: 0x0 }
  - { offset: 0x5CA7E0, size: 0x8, addend: 0x0, symName: '__ZTVNSt3__110__function6__funcIZN5iplug9igraphics12IGraphicsMac14UpdateTooltipsEvE3$_0FvPNS3_8IControlEEEE', symObjAddr: 0x8958, symBinAddr: 0x1263C0, symSize: 0x0 }
  - { offset: 0x5CA7EE, size: 0x8, addend: 0x0, symName: __ZN5iplug9igraphics12IGraphicsMac14UpdateTooltipsEv, symObjAddr: 0x564, symBinAddr: 0x8DD50, symSize: 0x194 }
  - { offset: 0x5CAF74, size: 0x8, addend: 0x0, symName: __ZN5iplug9igraphics13StaticStorageINS0_22CoreTextFontDescriptorEED1Ev, symObjAddr: 0x0, symBinAddr: 0x8D7F0, symSize: 0x40 }
  - { offset: 0x5CB0A6, size: 0x8, addend: 0x0, symName: __ZN11WDL_PtrListIN5iplug9igraphics13StaticStorageINS1_22CoreTextFontDescriptorEE7DataKeyEE5EmptyEbPFvPvE, symObjAddr: 0x678C, symBinAddr: 0x93F70, symSize: 0xF4 }
  - { offset: 0x5CB5D9, size: 0x8, addend: 0x0, symName: __ZN5iplug9igraphics12IGraphicsMacC2ERNS0_16IGEditorDelegateEiiif, symObjAddr: 0x40, symBinAddr: 0x8D830, symSize: 0xA4 }
  - { offset: 0x5CBA1D, size: 0x8, addend: 0x0, symName: __ZN5iplug9igraphics15IGraphicsNanoVGC2ERNS0_16IGEditorDelegateEiiif, symObjAddr: 0xE4, symBinAddr: 0x8D8D4, symSize: 0xD0 }
  - { offset: 0x5CBE8E, size: 0x8, addend: 0x0, symName: __ZN5iplug9igraphics15IGraphicsNanoVGD2Ev, symObjAddr: 0x1B4, symBinAddr: 0x8D9A4, symSize: 0xB8 }
  - { offset: 0x5CC416, size: 0x8, addend: 0x0, symName: __ZN5iplug9igraphics13StaticStorageINS0_9APIBitmapEED1Ev, symObjAddr: 0x2E90, symBinAddr: 0x9067C, symSize: 0x48 }
  - { offset: 0x5CC53C, size: 0x8, addend: 0x0, symName: __ZNSt3__15dequeIP15MNVGframebufferNS_9allocatorIS2_EEED2B9nqe210106Ev, symObjAddr: 0x65F4, symBinAddr: 0x93DD8, symSize: 0xC4 }
  - { offset: 0x5CC9B7, size: 0x8, addend: 0x0, symName: __ZN11WDL_PtrListIN5iplug9igraphics13StaticStorageINS1_9IFontDataEE7DataKeyEE5EmptyEbPFvPvE, symObjAddr: 0x69B8, symBinAddr: 0x9419C, symSize: 0x15C }
  - { offset: 0x5CCE63, size: 0x8, addend: 0x0, symName: __ZN5iplug9igraphics15IGraphicsNanoVG13ClearFBOStackEv, symObjAddr: 0x2ED8, symBinAddr: 0x906C4, symSize: 0x110 }
  - { offset: 0x5CD2AF, size: 0x8, addend: 0x0, symName: __ZN11WDL_PtrListIN5iplug9igraphics13StaticStorageINS1_9APIBitmapEE7DataKeyEE5EmptyEbPFvPvE, symObjAddr: 0x6B14, symBinAddr: 0x942F8, symSize: 0x148 }
  - { offset: 0x5CD5D1, size: 0x8, addend: 0x0, symName: __ZN5iplug9igraphics12IGraphicsMacD2Ev, symObjAddr: 0x270, symBinAddr: 0x8DA5C, symSize: 0xA4 }
  - { offset: 0x5CD8B9, size: 0x8, addend: 0x0, symName: __ZN5iplug9igraphics15IGraphicsNanoVG15OnViewDestroyedEv, symObjAddr: 0x77C, symBinAddr: 0x8DF68, symSize: 0xB8 }
  - { offset: 0x5CDADB, size: 0x8, addend: 0x0, symName: __ZN5iplug9igraphics12IGraphicsMac11CloseWindowEv, symObjAddr: 0x314, symBinAddr: 0x8DB00, symSize: 0x58 }
  - { offset: 0x5CDB29, size: 0x8, addend: 0x0, symName: __ZN5iplug9igraphics12IGraphicsMacD1Ev, symObjAddr: 0x36C, symBinAddr: 0x8DB58, symSize: 0x4 }
  - { offset: 0x5CDB4D, size: 0x8, addend: 0x0, symName: __ZN5iplug9igraphics12IGraphicsMacD1Ev, symObjAddr: 0x36C, symBinAddr: 0x8DB58, symSize: 0x4 }
  - { offset: 0x5CDB78, size: 0x8, addend: 0x0, symName: __ZN5iplug9igraphics12IGraphicsMacD0Ev, symObjAddr: 0x370, symBinAddr: 0x8DB5C, symSize: 0x14 }
  - { offset: 0x5CDC43, size: 0x8, addend: 0x0, symName: __ZN5iplug9igraphics12IGraphicsMac16LoadPlatformFontEPKcS3_, symObjAddr: 0x384, symBinAddr: 0x8DB70, symSize: 0x4C }
  - { offset: 0x5CDD93, size: 0x8, addend: 0x0, symName: __ZNK5iplug9igraphics12IGraphicsMac11GetBundleIDEv, symObjAddr: 0x3D0, symBinAddr: 0x8DBBC, symSize: 0x1C }
  - { offset: 0x5CDDB9, size: 0x8, addend: 0x0, symName: __ZNK5iplug9igraphics12IGraphicsMac11GetBundleIDEv, symObjAddr: 0x3D0, symBinAddr: 0x8DBBC, symSize: 0x1C }
  - { offset: 0x5CDDD9, size: 0x8, addend: 0x0, symName: __ZNK5iplug9igraphics12IGraphicsMac11GetBundleIDEv, symObjAddr: 0x3D0, symBinAddr: 0x8DBBC, symSize: 0x1C }
  - { offset: 0x5CDE19, size: 0x8, addend: 0x0, symName: __ZN5iplug9igraphics12IGraphicsMac16LoadPlatformFontEPKcS3_NS0_10ETextStyleE, symObjAddr: 0x3EC, symBinAddr: 0x8DBD8, symSize: 0x10 }
  - { offset: 0x5CDE7C, size: 0x8, addend: 0x0, symName: __ZN5iplug9igraphics12IGraphicsMac16LoadPlatformFontEPKcPvi, symObjAddr: 0x3FC, symBinAddr: 0x8DBE8, symSize: 0x10 }
  - { offset: 0x5CDED1, size: 0x8, addend: 0x0, symName: __ZN5iplug9igraphics12IGraphicsMac17CachePlatformFontEPKcRKNSt3__110unique_ptrINS0_12PlatformFontENS4_14default_deleteIS6_EEEE, symObjAddr: 0x40C, symBinAddr: 0x8DBF8, symSize: 0x18 }
  - { offset: 0x5CDF16, size: 0x8, addend: 0x0, symName: __ZNK5iplug9igraphics12IGraphicsMac11MeasureTextERKNS0_5ITextEPKcRNS0_5IRECTE, symObjAddr: 0x424, symBinAddr: 0x8DC10, symSize: 0x20 }
  - { offset: 0x5CDF6A, size: 0x8, addend: 0x0, symName: __ZNK5iplug9igraphics12IGraphicsMac11MeasureTextERKNS0_5ITextEPKcRNS0_5IRECTE, symObjAddr: 0x424, symBinAddr: 0x8DC10, symSize: 0x20 }
  - { offset: 0x5CE00B, size: 0x8, addend: 0x0, symName: __ZN5iplug9igraphics12IGraphicsMac10OpenWindowEPv, symObjAddr: 0x444, symBinAddr: 0x8DC30, symSize: 0xEC }
  - { offset: 0x5CE170, size: 0x8, addend: 0x0, symName: __ZN5iplug9igraphics12IGraphicsMac17ActivateGLContextEv, symObjAddr: 0x530, symBinAddr: 0x8DD1C, symSize: 0x8 }
  - { offset: 0x5CE19D, size: 0x8, addend: 0x0, symName: __ZN5iplug9igraphics15IGraphicsNanoVG17OnViewInitializedEPv, symObjAddr: 0x538, symBinAddr: 0x8DD24, symSize: 0x2C }
  - { offset: 0x5CE3FC, size: 0x8, addend: 0x0, symName: __ZN5iplug9igraphics12IGraphicsMac18AttachPlatformViewERKNS0_5IRECTEPv, symObjAddr: 0x6F8, symBinAddr: 0x8DEE4, symSize: 0x74 }
  - { offset: 0x5CE547, size: 0x8, addend: 0x0, symName: __ZN5iplug9igraphics12IGraphicsMac18RemovePlatformViewEPv, symObjAddr: 0x76C, symBinAddr: 0x8DF58, symSize: 0x8 }
  - { offset: 0x5CE57C, size: 0x8, addend: 0x0, symName: __ZN5iplug9igraphics12IGraphicsMac16HidePlatformViewEPvb, symObjAddr: 0x774, symBinAddr: 0x8DF60, symSize: 0x8 }
  - { offset: 0x5CE676, size: 0x8, addend: 0x0, symName: __ZN5iplug9igraphics13StaticStorageINS0_9APIBitmapEE8AccessorD1Ev, symObjAddr: 0x32DC, symBinAddr: 0x90AC0, symSize: 0x30 }
  - { offset: 0x5CE6F7, size: 0x8, addend: 0x0, symName: __ZN5iplug9igraphics12IGraphicsMac12WindowIsOpenEv, symObjAddr: 0x834, symBinAddr: 0x8E020, symSize: 0x10 }
  - { offset: 0x5CE730, size: 0x8, addend: 0x0, symName: __ZN5iplug9igraphics12IGraphicsMac14PlatformResizeEb, symObjAddr: 0x844, symBinAddr: 0x8E030, symSize: 0x88 }
  - { offset: 0x5CE82F, size: 0x8, addend: 0x0, symName: __ZN5iplug9igraphics12IGraphicsMac15HideMouseCursorEbb, symObjAddr: 0x8CC, symBinAddr: 0x8E0B8, symSize: 0xF0 }
  - { offset: 0x5CE972, size: 0x8, addend: 0x0, symName: __ZN5iplug9igraphics12IGraphicsMac12DoCursorLockEffRfS2_, symObjAddr: 0x9BC, symBinAddr: 0x8E1A8, symSize: 0xB0 }
  - { offset: 0x5CEB23, size: 0x8, addend: 0x0, symName: __ZN5iplug9igraphics12IGraphicsMac15MoveMouseCursorEff, symObjAddr: 0xA6C, symBinAddr: 0x8E258, symSize: 0x12C }
  - { offset: 0x5CECE4, size: 0x8, addend: 0x0, symName: __ZNK5iplug9igraphics12IGraphicsMac16GetMouseLocationERfS2_, symObjAddr: 0xB98, symBinAddr: 0x8E384, symSize: 0xA4 }
  - { offset: 0x5CEE53, size: 0x8, addend: 0x0, symName: __ZN5iplug9igraphics12IGraphicsMac14ShowMessageBoxEPKcS3_NS0_11EMsgBoxTypeENSt3__18functionIFvNS0_13EMsgBoxResultEEEE, symObjAddr: 0xC3C, symBinAddr: 0x8E428, symSize: 0x2A8 }
  - { offset: 0x5CF180, size: 0x8, addend: 0x0, symName: __ZN5iplug9igraphics12IGraphicsMac16ForceEndUserEditEv, symObjAddr: 0xEE4, symBinAddr: 0x8E6D0, symSize: 0x10 }
  - { offset: 0x5CF1AA, size: 0x8, addend: 0x0, symName: __ZN5iplug9igraphics12IGraphicsMac17GetPlatformAPIStrEv, symObjAddr: 0xEF4, symBinAddr: 0x8E6E0, symSize: 0xC }
  - { offset: 0x5CF1E6, size: 0x8, addend: 0x0, symName: __ZN5iplug9igraphics12IGraphicsMac28RevealPathInExplorerOrFinderER10WDL_Stringb, symObjAddr: 0xF00, symBinAddr: 0x8E6EC, symSize: 0x100 }
  - { offset: 0x5CF609, size: 0x8, addend: 0x0, symName: __ZN5iplug9igraphics12IGraphicsMac13PromptForFileER10WDL_StringS3_NS0_11EFileActionEPKcNSt3__18functionIFvRKS2_SA_EEE, symObjAddr: 0x1000, symBinAddr: 0x8E7EC, symSize: 0x388 }
  - { offset: 0x5CFC5C, size: 0x8, addend: 0x0, symName: '__ZZN5iplug9igraphics12IGraphicsMac13PromptForFileER10WDL_StringS3_NS0_11EFileActionEPKcNSt3__18functionIFvRKS2_SA_EEEENK3$_0clEP7NSPanellS3_S3_SC_', symObjAddr: 0x14EC, symBinAddr: 0x8ECD8, symSize: 0x118 }
  - { offset: 0x5CFECA, size: 0x8, addend: 0x0, symName: ____ZN5iplug9igraphics12IGraphicsMac13PromptForFileER10WDL_StringS3_NS0_11EFileActionEPKcNSt3__18functionIFvRKS2_SA_EEE_block_invoke, symObjAddr: 0x1388, symBinAddr: 0x8EB74, symSize: 0x164 }
  - { offset: 0x5D053F, size: 0x8, addend: 0x0, symName: ___copy_helper_block_e8_32o40c43_ZTSNSt3__18functionIFvRK10WDL_StringS3_EEE, symObjAddr: 0x1604, symBinAddr: 0x8EDF0, symSize: 0x90 }
  - { offset: 0x5D0609, size: 0x8, addend: 0x0, symName: ___destroy_helper_block_e8_32o40c43_ZTSNSt3__18functionIFvRK10WDL_StringS3_EEE, symObjAddr: 0x1694, symBinAddr: 0x8EE80, symSize: 0x50 }
  - { offset: 0x5D06B5, size: 0x8, addend: 0x0, symName: __ZN5iplug9igraphics12IGraphicsMac18PromptForDirectoryER10WDL_StringNSt3__18functionIFvRKS2_S7_EEE, symObjAddr: 0x16E4, symBinAddr: 0x8EED0, symSize: 0x30C }
  - { offset: 0x5D0C32, size: 0x8, addend: 0x0, symName: '__ZZN5iplug9igraphics12IGraphicsMac18PromptForDirectoryER10WDL_StringNSt3__18functionIFvRKS2_S7_EEEENK3$_0clEP11NSOpenPanellS3_S9_', symObjAddr: 0x1B30, symBinAddr: 0x8F31C, symSize: 0x128 }
  - { offset: 0x5D10C0, size: 0x8, addend: 0x0, symName: ____ZN5iplug9igraphics12IGraphicsMac18PromptForDirectoryER10WDL_StringNSt3__18functionIFvRKS2_S7_EEE_block_invoke, symObjAddr: 0x19F0, symBinAddr: 0x8F1DC, symSize: 0x140 }
  - { offset: 0x5D15E6, size: 0x8, addend: 0x0, symName: __ZN5iplug9igraphics12IGraphicsMac14PromptForColorERNS0_6IColorEPKcNSt3__18functionIFvRKS2_EEE, symObjAddr: 0x1C58, symBinAddr: 0x8F444, symSize: 0x148 }
  - { offset: 0x5D180C, size: 0x8, addend: 0x0, symName: __ZN5iplug9igraphics12IGraphicsMac23CreatePlatformPopupMenuERNS0_10IPopupMenuENS0_5IRECTERb, symObjAddr: 0x1DA0, symBinAddr: 0x8F58C, symSize: 0x6C }
  - { offset: 0x5D1A62, size: 0x8, addend: 0x0, symName: ____ZN5iplug9igraphics12IGraphicsMac23CreatePlatformPopupMenuERNS0_10IPopupMenuENS0_5IRECTERb_block_invoke, symObjAddr: 0x1E0C, symBinAddr: 0x8F5F8, symSize: 0x228 }
  - { offset: 0x5D1F01, size: 0x8, addend: 0x0, symName: __ZN5iplug9igraphics12IGraphicsMac23CreatePlatformTextEntryEiRKNS0_5ITextERKNS0_5IRECTEiPKc, symObjAddr: 0x2034, symBinAddr: 0x8F820, symSize: 0x70 }
  - { offset: 0x5D20C1, size: 0x8, addend: 0x0, symName: __ZN5iplug9igraphics12IGraphicsMac14SetMouseCursorENS0_7ECursorE, symObjAddr: 0x20A4, symBinAddr: 0x8F890, symSize: 0x38 }
  - { offset: 0x5D212D, size: 0x8, addend: 0x0, symName: __ZN5iplug9igraphics9IGraphics14SetMouseCursorENS0_7ECursorE, symObjAddr: 0x20DC, symBinAddr: 0x8F8C8, symSize: 0x10 }
  - { offset: 0x5D218C, size: 0x8, addend: 0x0, symName: __ZN5iplug9igraphics12IGraphicsMac7OpenURLEPKcS3_S3_S3_, symObjAddr: 0x20EC, symBinAddr: 0x8F8D8, symSize: 0x98 }
  - { offset: 0x5D2265, size: 0x8, addend: 0x0, symName: __ZN5iplug9igraphics12IGraphicsMac9GetWindowEv, symObjAddr: 0x2184, symBinAddr: 0x8F970, symSize: 0x8 }
  - { offset: 0x5D228F, size: 0x8, addend: 0x0, symName: __ZN5iplug9igraphics12IGraphicsMac20GetTextFromClipboardER10WDL_String, symObjAddr: 0x218C, symBinAddr: 0x8F978, symSize: 0xC4 }
  - { offset: 0x5D23D3, size: 0x8, addend: 0x0, symName: __ZN5iplug9igraphics12IGraphicsMac18SetTextInClipboardEPKc, symObjAddr: 0x2250, symBinAddr: 0x8FA3C, symSize: 0x54 }
  - { offset: 0x5D241B, size: 0x8, addend: 0x0, symName: __ZN5iplug9igraphics12IGraphicsMac22SetFilePathInClipboardEPKc, symObjAddr: 0x22A4, symBinAddr: 0x8FA90, symSize: 0x74 }
  - { offset: 0x5D2481, size: 0x8, addend: 0x0, symName: __ZN5iplug9igraphics12IGraphicsMac28InitiateExternalFileDragDropEPKcRKNS0_5IRECTE, symObjAddr: 0x2318, symBinAddr: 0x8FB04, symSize: 0x240 }
  - { offset: 0x5D2822, size: 0x8, addend: 0x0, symName: __ZNK5iplug9igraphics12IGraphicsMac15GetUIAppearanceEv, symObjAddr: 0x2558, symBinAddr: 0x8FD44, symSize: 0x30 }
  - { offset: 0x5D287D, size: 0x8, addend: 0x0, symName: __ZN5iplug9igraphics12IGraphicsMac19DeactivateGLContextEv, symObjAddr: 0x2588, symBinAddr: 0x8FD74, symSize: 0x8 }
  - { offset: 0x5D314F, size: 0x8, addend: 0x0, symName: __ZN5iplug9igraphics15IGraphicsNanoVG9DeleteFBOEP15MNVGframebuffer, symObjAddr: 0x2590, symBinAddr: 0x8FD7C, symSize: 0x4C0 }
  - { offset: 0x5D42FE, size: 0x8, addend: 0x0, symName: __ZNSt3__114__split_bufferIPP15MNVGframebufferNS_9allocatorIS3_EEE12emplace_backIJRS3_EEEvDpOT_, symObjAddr: 0x7308, symBinAddr: 0x94AEC, symSize: 0x178 }
  - { offset: 0x5D47DA, size: 0x8, addend: 0x0, symName: __ZN5iplug9igraphics15IGraphicsNanoVG6BitmapD1Ev, symObjAddr: 0x2A50, symBinAddr: 0x9023C, symSize: 0x70 }
  - { offset: 0x5D4896, size: 0x8, addend: 0x0, symName: __ZN5iplug9igraphics15IGraphicsNanoVG6BitmapD0Ev, symObjAddr: 0x2AC0, symBinAddr: 0x902AC, symSize: 0x70 }
  - { offset: 0x5D49B4, size: 0x8, addend: 0x0, symName: __ZN5iplug9igraphics13StaticStorageINS0_9IFontDataEED1Ev, symObjAddr: 0x2B30, symBinAddr: 0x9031C, symSize: 0x48 }
  - { offset: 0x5D4C10, size: 0x8, addend: 0x0, symName: __ZN5iplug9igraphics13StaticStorageINS0_9IFontDataEE8AccessorD1Ev, symObjAddr: 0x2E60, symBinAddr: 0x9064C, symSize: 0x30 }
  - { offset: 0x5D4DFD, size: 0x8, addend: 0x0, symName: __ZN5iplug9igraphics15IGraphicsNanoVGD1Ev, symObjAddr: 0x2FE8, symBinAddr: 0xFAD04, symSize: 0x4 }
  - { offset: 0x5D4E2A, size: 0x8, addend: 0x0, symName: __ZN5iplug9igraphics15IGraphicsNanoVGD0Ev, symObjAddr: 0x2FEC, symBinAddr: 0xFAD08, symSize: 0x4 }
  - { offset: 0x5D4E53, size: 0x8, addend: 0x0, symName: __ZN5iplug9igraphics15IGraphicsNanoVG16GetDrawingAPIStrEv, symObjAddr: 0x2FF0, symBinAddr: 0x907D4, symSize: 0xC }
  - { offset: 0x5D4EC2, size: 0x8, addend: 0x0, symName: __ZN5iplug9igraphics15IGraphicsNanoVG18BitmapExtSupportedEPKc, symObjAddr: 0x2FFC, symBinAddr: 0x907E0, symSize: 0xF4 }
  - { offset: 0x5D5172, size: 0x8, addend: 0x0, symName: __ZN5iplug9igraphics15IGraphicsNanoVG10LoadBitmapEPKcibi, symObjAddr: 0x30F0, symBinAddr: 0x908D4, symSize: 0x1EC }
  - { offset: 0x5D57AF, size: 0x8, addend: 0x0, symName: __ZN5iplug9igraphics13StaticStorageINS0_9APIBitmapEE4FindEPKcd, symObjAddr: 0x6C5C, symBinAddr: 0x94440, symSize: 0x198 }
  - { offset: 0x5D5B76, size: 0x8, addend: 0x0, symName: __ZN5iplug9igraphics13StaticStorageINS0_9APIBitmapEE3AddEPS2_PKcd, symObjAddr: 0x6EEC, symBinAddr: 0x946D0, symSize: 0x18C }
  - { offset: 0x5D608B, size: 0x8, addend: 0x0, symName: __ZN5iplug9igraphics7IBitmapC2EPNS0_9APIBitmapEibPKc, symObjAddr: 0x66B8, symBinAddr: 0x93E9C, symSize: 0xD4 }
  - { offset: 0x5D6421, size: 0x8, addend: 0x0, symName: __ZN5iplug9igraphics15IGraphicsNanoVG13LoadAPIBitmapEPKciNS_17EResourceLocationES3_, symObjAddr: 0x330C, symBinAddr: 0x90AF0, symSize: 0x1A4 }
  - { offset: 0x5D6891, size: 0x8, addend: 0x0, symName: __ZN5iplug9igraphics15IGraphicsNanoVG13LoadAPIBitmapEPKcPKvii, symObjAddr: 0x34B0, symBinAddr: 0x90C94, symSize: 0x1A4 }
  - { offset: 0x5D6E41, size: 0x8, addend: 0x0, symName: __ZN5iplug9igraphics15IGraphicsNanoVG15CreateAPIBitmapEiifdb, symObjAddr: 0x3654, symBinAddr: 0x90E38, symSize: 0x1A0 }
  - { offset: 0x5D72BF, size: 0x8, addend: 0x0, symName: __ZN5iplug9igraphics15IGraphicsNanoVG18GetLayerBitmapDataERKNSt3__110unique_ptrINS0_6ILayerENS2_14default_deleteIS4_EEEER12WDL_TypedBufIhE, symObjAddr: 0x37F4, symBinAddr: 0x90FD8, symSize: 0xB0 }
  - { offset: 0x5D79DC, size: 0x8, addend: 0x0, symName: __ZN5iplug9igraphics15IGraphicsNanoVG15ApplyShadowMaskERNSt3__110unique_ptrINS0_6ILayerENS2_14default_deleteIS4_EEEER12WDL_TypedBufIhERKNS0_7IShadowE, symObjAddr: 0x38A4, symBinAddr: 0x91088, symSize: 0x68C }
  - { offset: 0x5D8F80, size: 0x8, addend: 0x0, symName: __ZN5iplug9igraphics15IGraphicsNanoVG10DrawResizeEv, symObjAddr: 0x3F30, symBinAddr: 0x91714, symSize: 0x118 }
  - { offset: 0x5D919F, size: 0x8, addend: 0x0, symName: __ZN5iplug9igraphics15IGraphicsNanoVG10BeginFrameEv, symObjAddr: 0x4048, symBinAddr: 0x9182C, symSize: 0x10C }
  - { offset: 0x5D939F, size: 0x8, addend: 0x0, symName: __ZN5iplug9igraphics15IGraphicsNanoVG8EndFrameEv, symObjAddr: 0x4154, symBinAddr: 0x91938, symSize: 0x23C }
  - { offset: 0x5D96FF, size: 0x8, addend: 0x0, symName: __ZN5iplug9igraphics15IGraphicsNanoVG10DrawBitmapERKNS0_7IBitmapERKNS0_5IRECTEiiPKNS0_6IBlendE, symObjAddr: 0x4390, symBinAddr: 0x91B74, symSize: 0x1CC }
  - { offset: 0x5D99DD, size: 0x8, addend: 0x0, symName: __ZN5iplug9igraphics15IGraphicsNanoVG9PathClearEv, symObjAddr: 0x455C, symBinAddr: 0x91D40, symSize: 0x18 }
  - { offset: 0x5D9A3C, size: 0x8, addend: 0x0, symName: __ZN5iplug9igraphics15IGraphicsNanoVG9PathCloseEv, symObjAddr: 0x4574, symBinAddr: 0x91D58, symSize: 0x30 }
  - { offset: 0x5D9A8E, size: 0x8, addend: 0x0, symName: __ZN5iplug9igraphics15IGraphicsNanoVG7PathArcEfffffNS0_8EWindingE, symObjAddr: 0x45A4, symBinAddr: 0x91D88, symSize: 0x34 }
  - { offset: 0x5D9B82, size: 0x8, addend: 0x0, symName: __ZN5iplug9igraphics15IGraphicsNanoVG10PathMoveToEff, symObjAddr: 0x45D8, symBinAddr: 0x91DBC, symSize: 0x5C }
  - { offset: 0x5D9C0C, size: 0x8, addend: 0x0, symName: __ZN5iplug9igraphics15IGraphicsNanoVG10PathLineToEff, symObjAddr: 0x4634, symBinAddr: 0x91E18, symSize: 0x60 }
  - { offset: 0x5D9C96, size: 0x8, addend: 0x0, symName: __ZN5iplug9igraphics15IGraphicsNanoVG17PathCubicBezierToEffffff, symObjAddr: 0x4694, symBinAddr: 0x91E78, symSize: 0x68 }
